///////////////////////////////////////////////////////////////////////////////
//
// IAR C/C++ Compiler V9.20.1.2476 for 8051               08/Aug/2015  13:35:05
// Copyright 2004-2015 IAR Systems AB.
// Evaluation license - IAR Embedded Workbench for 8051, Evaluation version 9.20
//
//    Core               =  plain
//    Code model         =  banked
//    Data model         =  large
//    Calling convention =  xdata reentrant
//    Constant location  =  data_rom
//    Dptr setup         =  1,16
//                          
//    Source file        =  
//        C:\Users\Sears\Documents\GitHub\Z-Stack-Home-1.2.2.42930\Components\stack\zdo\ZDApp.c
//    Command line       =  
//        -f
//        C:\Users\Sears\Documents\GitHub\Z-Stack-Home-1.2.2.42930\Projects\zstack\HomeAutomation\SampleTemperatureSensor\CC2530DB\..\..\..\Tools\CC2530DB\f8wEndev.cfg
//        (-DCPU32MHZ -DROOT=__near_func -DMAC_CFG_TX_DATA_MAX=3
//        -DMAC_CFG_TX_MAX=6 -DMAC_CFG_RX_MAX=3) -f
//        C:\Users\Sears\Documents\GitHub\Z-Stack-Home-1.2.2.42930\Projects\zstack\HomeAutomation\SampleTemperatureSensor\CC2530DB\..\..\..\Tools\CC2530DB\f8wConfig.cfg
//        (-DZIGBEEPRO -DSECURE=1 -DZG_SECURE_DYNAMIC=0 -DREFLECTOR
//        -DDEFAULT_CHANLIST=0x00000800 -DZDAPP_CONFIG_PAN_ID=0xFFFF
//        -DNWK_START_DELAY=100 -DEXTENDED_JOINING_RANDOM_MASK=0x007F
//        -DBEACON_REQUEST_DELAY=100 -DBEACON_REQ_DELAY_MASK=0x00FF
//        -DLINK_STATUS_JITTER_MASK=0x007F -DROUTE_EXPIRY_TIME=30
//        -DAPSC_ACK_WAIT_DURATION_POLLED=3000 -DNWK_INDIRECT_MSG_TIMEOUT=7
//        -DMAX_RREQ_ENTRIES=8 -DAPSC_MAX_FRAME_RETRIES=3
//        -DNWK_MAX_DATA_RETRIES=2 -DMAX_POLL_FAILURE_RETRIES=2 -DMAX_BCAST=9
//        -DAPS_MAX_GROUPS=16 -DMAX_RTG_ENTRIES=40 -DNWK_MAX_BINDING_ENTRIES=4
//        -DMAX_BINDING_CLUSTER_IDS=4 "-DDEFAULT_KEY={0x01, 0x03, 0x05, 0x07,
//        0x09, 0x0B, 0x0D, 0x0F, 0x00, 0x02, 0x04, 0x06, 0x08, 0x0A, 0x0C,
//        0x0D}" -DMAC_MAX_FRAME_SIZE=116 -DZDNWKMGR_MIN_TRANSMISSIONS=20
//        "-DCONST=const __code" -DGENERIC=__generic -DRFD_RCVC_ALWAYS_ON=FALSE
//        -DPOLL_RATE=10000 -DQUEUED_POLL_RATE=1000 -DRESPONSE_POLL_RATE=1000
//        -DREJOIN_POLL_RATE=440 -DREJOIN_BACKOFF=900000 -DREJOIN_SCAN=900000)
//        -f
//        C:\Users\Sears\Documents\GitHub\Z-Stack-Home-1.2.2.42930\Projects\zstack\HomeAutomation\SampleTemperatureSensor\CC2530DB\..\..\..\Tools\CC2530DB\f8wZCL.cfg
//        C:\Users\Sears\Documents\GitHub\Z-Stack-Home-1.2.2.42930\Components\stack\zdo\ZDApp.c
//        -D SECURE=1 -D TC_LINKKEY_JOIN -D NV_INIT -D xNV_RESTORE -D
//        POWER_SAVING -D NWK_AUTO_POLL -D xHOLD_AUTO_START -D ZTOOL_P1 -D
//        MT_TASK -D MT_APP_FUNC -D MT_SYS_FUNC -D MT_ZDO_FUNC -D
//        LCD_SUPPORTED=DEBUG -D MULTICAST_ENABLED=FALSE -D ZCL_READ -D
//        ZCL_WRITE -D ZCL_REPORT -D xZCL_EZMODE -D ZCL_BASIC -D ZCL_IDENTIFY
//        -D ZCL_TEMPERATURE_MEASUREMENT -lC
//        C:\Users\Sears\Documents\GitHub\Z-Stack-Home-1.2.2.42930\Projects\zstack\HomeAutomation\SampleTemperatureSensor\CC2530DB\EndDeviceEB\List\
//        -lA
//        C:\Users\Sears\Documents\GitHub\Z-Stack-Home-1.2.2.42930\Projects\zstack\HomeAutomation\SampleTemperatureSensor\CC2530DB\EndDeviceEB\List\
//        --diag_suppress Pe001,Pa010 -o
//        C:\Users\Sears\Documents\GitHub\Z-Stack-Home-1.2.2.42930\Projects\zstack\HomeAutomation\SampleTemperatureSensor\CC2530DB\EndDeviceEB\Obj\
//        -e --debug --core=plain --dptr=16,1 --data_model=large
//        --code_model=banked --calling_convention=xdata_reentrant
//        --place_constants=data_rom --nr_virtual_regs 16 -I
//        C:\Users\Sears\Documents\GitHub\Z-Stack-Home-1.2.2.42930\Projects\zstack\HomeAutomation\SampleTemperatureSensor\CC2530DB\
//        -I
//        C:\Users\Sears\Documents\GitHub\Z-Stack-Home-1.2.2.42930\Projects\zstack\HomeAutomation\SampleTemperatureSensor\CC2530DB\..\Source\
//        -I
//        C:\Users\Sears\Documents\GitHub\Z-Stack-Home-1.2.2.42930\Projects\zstack\HomeAutomation\SampleTemperatureSensor\CC2530DB\..\..\Source\
//        -I
//        C:\Users\Sears\Documents\GitHub\Z-Stack-Home-1.2.2.42930\Projects\zstack\HomeAutomation\SampleTemperatureSensor\CC2530DB\..\..\..\ZMain\TI2530DB\
//        -I
//        C:\Users\Sears\Documents\GitHub\Z-Stack-Home-1.2.2.42930\Projects\zstack\HomeAutomation\SampleTemperatureSensor\CC2530DB\..\..\..\..\..\Components\hal\include\
//        -I
//        C:\Users\Sears\Documents\GitHub\Z-Stack-Home-1.2.2.42930\Projects\zstack\HomeAutomation\SampleTemperatureSensor\CC2530DB\..\..\..\..\..\Components\hal\target\CC2530EB\
//        -I
//        C:\Users\Sears\Documents\GitHub\Z-Stack-Home-1.2.2.42930\Projects\zstack\HomeAutomation\SampleTemperatureSensor\CC2530DB\..\..\..\..\..\Components\mac\include\
//        -I
//        C:\Users\Sears\Documents\GitHub\Z-Stack-Home-1.2.2.42930\Projects\zstack\HomeAutomation\SampleTemperatureSensor\CC2530DB\..\..\..\..\..\Components\mac\high_level\
//        -I
//        C:\Users\Sears\Documents\GitHub\Z-Stack-Home-1.2.2.42930\Projects\zstack\HomeAutomation\SampleTemperatureSensor\CC2530DB\..\..\..\..\..\Components\mac\low_level\srf04\
//        -I
//        C:\Users\Sears\Documents\GitHub\Z-Stack-Home-1.2.2.42930\Projects\zstack\HomeAutomation\SampleTemperatureSensor\CC2530DB\..\..\..\..\..\Components\mac\low_level\srf04\single_chip\
//        -I
//        C:\Users\Sears\Documents\GitHub\Z-Stack-Home-1.2.2.42930\Projects\zstack\HomeAutomation\SampleTemperatureSensor\CC2530DB\..\..\..\..\..\Components\mt\
//        -I
//        C:\Users\Sears\Documents\GitHub\Z-Stack-Home-1.2.2.42930\Projects\zstack\HomeAutomation\SampleTemperatureSensor\CC2530DB\..\..\..\..\..\Components\osal\include\
//        -I
//        C:\Users\Sears\Documents\GitHub\Z-Stack-Home-1.2.2.42930\Projects\zstack\HomeAutomation\SampleTemperatureSensor\CC2530DB\..\..\..\..\..\Components\services\saddr\
//        -I
//        C:\Users\Sears\Documents\GitHub\Z-Stack-Home-1.2.2.42930\Projects\zstack\HomeAutomation\SampleTemperatureSensor\CC2530DB\..\..\..\..\..\Components\services\sdata\
//        -I
//        C:\Users\Sears\Documents\GitHub\Z-Stack-Home-1.2.2.42930\Projects\zstack\HomeAutomation\SampleTemperatureSensor\CC2530DB\..\..\..\..\..\Components\stack\af\
//        -I
//        C:\Users\Sears\Documents\GitHub\Z-Stack-Home-1.2.2.42930\Projects\zstack\HomeAutomation\SampleTemperatureSensor\CC2530DB\..\..\..\..\..\Components\stack\nwk\
//        -I
//        C:\Users\Sears\Documents\GitHub\Z-Stack-Home-1.2.2.42930\Projects\zstack\HomeAutomation\SampleTemperatureSensor\CC2530DB\..\..\..\..\..\Components\stack\sapi\
//        -I
//        C:\Users\Sears\Documents\GitHub\Z-Stack-Home-1.2.2.42930\Projects\zstack\HomeAutomation\SampleTemperatureSensor\CC2530DB\..\..\..\..\..\Components\stack\sec\
//        -I
//        C:\Users\Sears\Documents\GitHub\Z-Stack-Home-1.2.2.42930\Projects\zstack\HomeAutomation\SampleTemperatureSensor\CC2530DB\..\..\..\..\..\Components\stack\sys\
//        -I
//        C:\Users\Sears\Documents\GitHub\Z-Stack-Home-1.2.2.42930\Projects\zstack\HomeAutomation\SampleTemperatureSensor\CC2530DB\..\..\..\..\..\Components\stack\zcl\
//        -I
//        C:\Users\Sears\Documents\GitHub\Z-Stack-Home-1.2.2.42930\Projects\zstack\HomeAutomation\SampleTemperatureSensor\CC2530DB\..\..\..\..\..\Components\stack\zdo\
//        -I
//        C:\Users\Sears\Documents\GitHub\Z-Stack-Home-1.2.2.42930\Projects\zstack\HomeAutomation\SampleTemperatureSensor\CC2530DB\..\..\..\..\..\Components\zmac\
//        -I
//        C:\Users\Sears\Documents\GitHub\Z-Stack-Home-1.2.2.42930\Projects\zstack\HomeAutomation\SampleTemperatureSensor\CC2530DB\..\..\..\..\..\Components\zmac\f8w\
//        -Ohz --require_prototypes
//    List file          =  
//        C:\Users\Sears\Documents\GitHub\Z-Stack-Home-1.2.2.42930\Projects\zstack\HomeAutomation\SampleTemperatureSensor\CC2530DB\EndDeviceEB\List\ZDApp.s51
//
///////////////////////////////////////////////////////////////////////////////

        NAME ZDApp

        RTMODEL "__SystemLibrary", "CLib"
        RTMODEL "__calling_convention", "xdata_reentrant"
        RTMODEL "__code_model", "banked"
        RTMODEL "__core", "plain"
        RTMODEL "__data_model", "large"
        RTMODEL "__dptr_size", "16"
        RTMODEL "__extended_stack", "disabled"
        RTMODEL "__location_for_constants", "data"
        RTMODEL "__number_of_dptrs", "1"
        RTMODEL "__rt_version", "1"

        RSEG DOVERLAY:DATA:NOROOT(0)
        RSEG IOVERLAY:IDATA:NOROOT(0)
        RSEG ISTACK:IDATA:NOROOT(0)
        RSEG PSTACK:XDATA:NOROOT(0)
        RSEG XSTACK:XDATA:NOROOT(0)

        EXTERN ?V0
        EXTERN ?V1
        EXTERN ?V2
        EXTERN ?V4
        EXTERN ?V5
        EXTERN ?V3
        EXTERN ?V6
        EXTERN ?V8
        EXTERN ?V9
        EXTERN ?V10
        EXTERN ?V7
        EXTERN ?ALLOC_XSTACK8
        EXTERN ?BANKED_ENTER_XDATA
        EXTERN ?BANKED_LEAVE_XDATA
        EXTERN ?BDISPATCH
        EXTERN ?BRET
        EXTERN ?CALL_IND
        EXTERN ?DEALLOC_XSTACK8
        EXTERN ?L_ADD_TO_X
        EXTERN ?L_ADD_X
        EXTERN ?L_MOV_TO_X
        EXTERN ?L_MOV_X
        EXTERN ?L_SHL
        EXTERN ?PUSH_XSTACK8_X_FOUR
        EXTERN ?PUSH_XSTACK8_X_TWO
        EXTERN ?PUSH_XSTACK_I_FOUR
        EXTERN ?PUSH_XSTACK_I_ONE
        EXTERN ?PUSH_XSTACK_I_THREE
        EXTERN ?PUSH_XSTACK_I_TWO
        EXTERN ?S_DIV_MOD
        EXTERN ?US_SWITCH_SPARSE
        EXTERN ?XLOAD_R0123
        EXTERN ?XLOAD_R2345
        EXTERN ?XSP
        EXTERN ?XSTACK_DISP0_8
        EXTERN ?XSTACK_DISP100_8
        EXTERN ?XSTACK_DISP101_8
        EXTERN ?XSTACK_DISP102_8
        EXTERN ?XSTORE_R0123
        EXTERN __INIT_XDATA_I
        EXTERN __INIT_XDATA_Z

        PUBLIC `??AddrMgrWriteNVRequest::?relay`
        FUNCTION `??AddrMgrWriteNVRequest::?relay`,0203H
        PUBLIC `??ZDAppCheckForHoldKey::?relay`
        FUNCTION `??ZDAppCheckForHoldKey::?relay`,0203H
        PUBLIC `??ZDAppDetermineDeviceType::?relay`
        FUNCTION `??ZDAppDetermineDeviceType::?relay`,0203H
        PUBLIC `??ZDApp_AgeOutPendingBindEntry::?relay`
        FUNCTION `??ZDApp_AgeOutPendingBindEntry::?relay`,0203H
        PUBLIC `??ZDApp_AnnounceNewAddress::?relay`
        FUNCTION `??ZDApp_AnnounceNewAddress::?relay`,0203H
        PUBLIC `??ZDApp_ChangeMatchDescRespPermission::?relay`
        FUNCTION `??ZDApp_ChangeMatchDescRespPermission::?relay`,0203H
        PUBLIC `??ZDApp_ChangeState::?relay`
        FUNCTION `??ZDApp_ChangeState::?relay`,0203H
        PUBLIC `??ZDApp_CoordStartPANIDConflictCB::?relay`
        FUNCTION `??ZDApp_CoordStartPANIDConflictCB::?relay`,0203H
        PUBLIC `??ZDApp_DeviceAuthEvt::?relay`
        FUNCTION `??ZDApp_DeviceAuthEvt::?relay`,0203H
        PUBLIC `??ZDApp_DeviceConfigured::?relay`
        FUNCTION `??ZDApp_DeviceConfigured::?relay`,0203H
        PUBLIC `??ZDApp_ForceConcentratorChange::?relay`
        FUNCTION `??ZDApp_ForceConcentratorChange::?relay`,0203H
        PUBLIC `??ZDApp_GetEmptyPendingBindReq::?relay`
        FUNCTION `??ZDApp_GetEmptyPendingBindReq::?relay`,0203H
        PUBLIC `??ZDApp_InMsgCB::?relay`
        FUNCTION `??ZDApp_InMsgCB::?relay`,0203H
        PUBLIC `??ZDApp_Init::?relay`
        FUNCTION `??ZDApp_Init::?relay`,0203H
        PUBLIC `??ZDApp_InitPendingBind::?relay`
        FUNCTION `??ZDApp_InitPendingBind::?relay`,0203H
        PUBLIC `??ZDApp_InitUserDesc::?relay`
        FUNCTION `??ZDApp_InitUserDesc::?relay`,0203H
        PUBLIC `??ZDApp_InitZdoCBFunc::?relay`
        FUNCTION `??ZDApp_InitZdoCBFunc::?relay`,0203H
        PUBLIC `??ZDApp_JoinReq::?relay`
        FUNCTION `??ZDApp_JoinReq::?relay`,0203H
        PUBLIC `??ZDApp_LeaveCtrlBypass::?relay`
        FUNCTION `??ZDApp_LeaveCtrlBypass::?relay`,0203H
        PUBLIC `??ZDApp_LeaveCtrlInit::?relay`
        FUNCTION `??ZDApp_LeaveCtrlInit::?relay`,0203H
        PUBLIC `??ZDApp_LeaveCtrlReset::?relay`
        FUNCTION `??ZDApp_LeaveCtrlReset::?relay`,0203H
        PUBLIC `??ZDApp_LeaveCtrlSet::?relay`
        FUNCTION `??ZDApp_LeaveCtrlSet::?relay`,0203H
        PUBLIC `??ZDApp_LeaveCtrlStartup::?relay`
        FUNCTION `??ZDApp_LeaveCtrlStartup::?relay`,0203H
        PUBLIC `??ZDApp_LeaveReset::?relay`
        FUNCTION `??ZDApp_LeaveReset::?relay`,0203H
        PUBLIC `??ZDApp_LeaveUpdate::?relay`
        FUNCTION `??ZDApp_LeaveUpdate::?relay`,0203H
        PUBLIC `??ZDApp_NVUpdate::?relay`
        FUNCTION `??ZDApp_NVUpdate::?relay`,0203H
        PUBLIC `??ZDApp_NetworkDiscoveryReq::?relay`
        FUNCTION `??ZDApp_NetworkDiscoveryReq::?relay`,0203H
        PUBLIC `??ZDApp_NetworkInit::?relay`
        FUNCTION `??ZDApp_NetworkInit::?relay`,0203H
        PUBLIC `??ZDApp_NetworkStartEvt::?relay`
        FUNCTION `??ZDApp_NetworkStartEvt::?relay`,0203H
        PUBLIC `??ZDApp_NodeProfileSync::?relay`
        FUNCTION `??ZDApp_NodeProfileSync::?relay`,0203H
        PUBLIC `??ZDApp_NwkDescListProcessing::?relay`
        FUNCTION `??ZDApp_NwkDescListProcessing::?relay`,0203H
        PUBLIC `??ZDApp_NwkStateUpdateCB::?relay`
        FUNCTION `??ZDApp_NwkStateUpdateCB::?relay`,0203H
        PUBLIC `??ZDApp_ProcessMsgCBs::?relay`
        FUNCTION `??ZDApp_ProcessMsgCBs::?relay`,0203H
        PUBLIC `??ZDApp_ProcessNetworkJoin::?relay`
        FUNCTION `??ZDApp_ProcessNetworkJoin::?relay`,0203H
        PUBLIC `??ZDApp_ProcessOSALMsg::?relay`
        FUNCTION `??ZDApp_ProcessOSALMsg::?relay`,0203H
        PUBLIC `??ZDApp_ProcessPendingBindReq::?relay`
        FUNCTION `??ZDApp_ProcessPendingBindReq::?relay`,0203H
        PUBLIC `??ZDApp_ProcessSecEvent::?relay`
        FUNCTION `??ZDApp_ProcessSecEvent::?relay`,0203H
        PUBLIC `??ZDApp_ProcessSecMsg::?relay`
        FUNCTION `??ZDApp_ProcessSecMsg::?relay`,0203H
        PUBLIC `??ZDApp_ReadNetworkRestoreState::?relay`
        FUNCTION `??ZDApp_ReadNetworkRestoreState::?relay`,0203H
        PUBLIC `??ZDApp_RegisterCBs::?relay`
        FUNCTION `??ZDApp_RegisterCBs::?relay`,0203H
        PUBLIC `??ZDApp_ResetNwkKey::?relay`
        FUNCTION `??ZDApp_ResetNwkKey::?relay`,0203H
        PUBLIC `??ZDApp_ResetTimerCancel::?relay`
        FUNCTION `??ZDApp_ResetTimerCancel::?relay`,0203H
        PUBLIC `??ZDApp_ResetTimerStart::?relay`
        FUNCTION `??ZDApp_ResetTimerStart::?relay`,0203H
        PUBLIC `??ZDApp_RestoreNwkKey::?relay`
        FUNCTION `??ZDApp_RestoreNwkKey::?relay`,0203H
        PUBLIC `??ZDApp_SaveNetworkStateEvt::?relay`
        FUNCTION `??ZDApp_SaveNetworkStateEvt::?relay`,0203H
        PUBLIC `??ZDApp_SaveNwkKey::?relay`
        FUNCTION `??ZDApp_SaveNwkKey::?relay`,0203H
        PUBLIC `??ZDApp_SecInit::?relay`
        FUNCTION `??ZDApp_SecInit::?relay`,0203H
        PUBLIC `??ZDApp_SendEventMsg::?relay`
        FUNCTION `??ZDApp_SendEventMsg::?relay`,0203H
        PUBLIC `??ZDApp_SendMsg::?relay`
        FUNCTION `??ZDApp_SendMsg::?relay`,0203H
        PUBLIC `??ZDApp_SendParentAnnce::?relay`
        FUNCTION `??ZDApp_SendParentAnnce::?relay`,0203H
        PUBLIC `??ZDApp_SetParentAnnceTimer::?relay`
        FUNCTION `??ZDApp_SetParentAnnceTimer::?relay`,0203H
        PUBLIC `??ZDApp_SetPendingBindDefault::?relay`
        FUNCTION `??ZDApp_SetPendingBindDefault::?relay`,0203H
        PUBLIC `??ZDApp_SetRejoinBackoffDuration::?relay`
        FUNCTION `??ZDApp_SetRejoinBackoffDuration::?relay`,0203H
        PUBLIC `??ZDApp_SetRejoinScanDuration::?relay`
        FUNCTION `??ZDApp_SetRejoinScanDuration::?relay`,0203H
        PUBLIC `??ZDApp_StartJoiningCycle::?relay`
        FUNCTION `??ZDApp_StartJoiningCycle::?relay`,0203H
        PUBLIC `??ZDApp_StopJoiningCycle::?relay`
        FUNCTION `??ZDApp_StopJoiningCycle::?relay`,0203H
        PUBLIC `??ZDApp_event_loop::?relay`
        FUNCTION `??ZDApp_event_loop::?relay`,0203H
        PUBLIC `??ZDOInitDevice::?relay`
        FUNCTION `??ZDOInitDevice::?relay`,0203H
        PUBLIC `??ZDO_AddrChangeIndicationCB::?relay`
        FUNCTION `??ZDO_AddrChangeIndicationCB::?relay`,0203H
        PUBLIC `??ZDO_ConcentratorIndicationCB::?relay`
        FUNCTION `??ZDO_ConcentratorIndicationCB::?relay`,0203H
        PUBLIC `??ZDO_DeregisterForZdoCB::?relay`
        FUNCTION `??ZDO_DeregisterForZdoCB::?relay`,0203H
        PUBLIC `??ZDO_JoinConfirmCB::?relay`
        FUNCTION `??ZDO_JoinConfirmCB::?relay`,0203H
        PUBLIC `??ZDO_JoinIndicationCB::?relay`
        FUNCTION `??ZDO_JoinIndicationCB::?relay`,0203H
        PUBLIC `??ZDO_LeaveCnf::?relay`
        FUNCTION `??ZDO_LeaveCnf::?relay`,0203H
        PUBLIC `??ZDO_LeaveInd::?relay`
        FUNCTION `??ZDO_LeaveInd::?relay`,0203H
        PUBLIC `??ZDO_ManytoOneFailureIndicationCB::?relay`
        FUNCTION `??ZDO_ManytoOneFailureIndicationCB::?relay`,0203H
        PUBLIC `??ZDO_NetworkDiscoveryConfirmCB::?relay`
        FUNCTION `??ZDO_NetworkDiscoveryConfirmCB::?relay`,0203H
        PUBLIC `??ZDO_NetworkFormationConfirmCB::?relay`
        FUNCTION `??ZDO_NetworkFormationConfirmCB::?relay`,0203H
        PUBLIC `??ZDO_NetworkStatusCB::?relay`
        FUNCTION `??ZDO_NetworkStatusCB::?relay`,0203H
        PUBLIC `??ZDO_PermitJoinCB::?relay`
        FUNCTION `??ZDO_PermitJoinCB::?relay`,0203H
        PUBLIC `??ZDO_PollConfirmCB::?relay`
        FUNCTION `??ZDO_PollConfirmCB::?relay`,0203H
        PUBLIC `??ZDO_RegisterForZdoCB::?relay`
        FUNCTION `??ZDO_RegisterForZdoCB::?relay`,0203H
        PUBLIC `??ZDO_SrcRtgIndCB::?relay`
        FUNCTION `??ZDO_SrcRtgIndCB::?relay`,0203H
        PUBLIC `??ZDO_StartRouterConfirmCB::?relay`
        FUNCTION `??ZDO_StartRouterConfirmCB::?relay`,0203H
        PUBLIC `??ZDO_SyncIndicationCB::?relay`
        FUNCTION `??ZDO_SyncIndicationCB::?relay`,0203H
        PUBLIC `??ZDO_UpdateDeviceIndication::?relay`
        FUNCTION `??ZDO_UpdateDeviceIndication::?relay`,0203H
        PUBLIC `??ZDO_beaconNotifyIndCB::?relay`
        FUNCTION `??ZDO_beaconNotifyIndCB::?relay`,0203H
        PUBLIC AddrMgrWriteNVRequest
        FUNCTION AddrMgrWriteNVRequest,0203H
        ARGFRAME XSTACK, 0, STACK
        PUBLIC MatchRsps
        PUBLIC ZDAppCheckForHoldKey
        FUNCTION ZDAppCheckForHoldKey,021203H
        ARGFRAME XSTACK, 9, STACK
        ARGFRAME IOVERLAY, 0, STATIC
        ARGFRAME DOVERLAY, 0, STATIC
        LOCFRAME ISTACK, 2, STACK
        PUBLIC ZDAppDetermineDeviceType
        FUNCTION ZDAppDetermineDeviceType,021203H
        ARGFRAME XSTACK, 12, STACK
        ARGFRAME IOVERLAY, 0, STATIC
        ARGFRAME DOVERLAY, 0, STATIC
        LOCFRAME ISTACK, 2, STACK
        PUBLIC ZDAppNwkAddr
        PUBLIC ZDAppPendingBindReq
        PUBLIC ZDAppTaskID
        PUBLIC ZDApp_AgeOutPendingBindEntry
        FUNCTION ZDApp_AgeOutPendingBindEntry,0a1203H
        ARGFRAME XSTACK, 14, STACK
        ARGFRAME IOVERLAY, 0, STATIC
        ARGFRAME DOVERLAY, 0, STATIC
        LOCFRAME XSTACK, 31, STACK
        PUBLIC ZDApp_AnnounceNewAddress
        FUNCTION ZDApp_AnnounceNewAddress,0a1203H
        ARGFRAME XSTACK, 14, STACK
        ARGFRAME IOVERLAY, 0, STATIC
        ARGFRAME DOVERLAY, 0, STATIC
        LOCFRAME XSTACK, 19, STACK
        PUBLIC ZDApp_AutoFindMode_epDesc
        PUBLIC ZDApp_ChangeMatchDescRespPermission
        FUNCTION ZDApp_ChangeMatchDescRespPermission,021203H
        ARGFRAME XSTACK, 0, STACK
        LOCFRAME XSTACK, 9, STACK
        PUBLIC ZDApp_ChangeState
        FUNCTION ZDApp_ChangeState,021203H
        ARGFRAME XSTACK, 17, STACK
        ARGFRAME IOVERLAY, 0, STATIC
        ARGFRAME DOVERLAY, 0, STATIC
        LOCFRAME XSTACK, 9, STACK
        PUBLIC ZDApp_CoordStartPANIDConflictCB
        FUNCTION ZDApp_CoordStartPANIDConflictCB,0203H
        ARGFRAME XSTACK, 0, STACK
        PUBLIC ZDApp_DeviceAuthEvt
        FUNCTION ZDApp_DeviceAuthEvt,021203H
        ARGFRAME XSTACK, 9, STACK
        ARGFRAME IOVERLAY, 0, STATIC
        ARGFRAME DOVERLAY, 0, STATIC
        LOCFRAME ISTACK, 2, STACK
        PUBLIC ZDApp_DeviceConfigured
        FUNCTION ZDApp_DeviceConfigured,0a1203H
        ARGFRAME XSTACK, 0, STACK
        LOCFRAME XSTACK, 16, STACK
        PUBLIC ZDApp_ForceConcentratorChange
        FUNCTION ZDApp_ForceConcentratorChange,0a1203H
        ARGFRAME XSTACK, 0, STACK
        LOCFRAME XSTACK, 14, STACK
        PUBLIC ZDApp_GetEmptyPendingBindReq
        FUNCTION ZDApp_GetEmptyPendingBindReq,0203H
        ARGFRAME XSTACK, 0, STACK
        LOCFRAME ISTACK, 2, STACK
        PUBLIC ZDApp_InMsgCB
        FUNCTION ZDApp_InMsgCB,0a1203H
        ARGFRAME XSTACK, 0, STACK
        LOCFRAME XSTACK, 14, STACK
        PUBLIC ZDApp_Init
        FUNCTION ZDApp_Init,021203H
        ARGFRAME XSTACK, 0, STACK
        LOCFRAME XSTACK, 9, STACK
        PUBLIC ZDApp_InitPendingBind
        FUNCTION ZDApp_InitPendingBind,021203H
        ARGFRAME XSTACK, 9, STACK
        ARGFRAME IOVERLAY, 0, STATIC
        ARGFRAME DOVERLAY, 0, STATIC
        LOCFRAME XSTACK, 9, STACK
        PUBLIC ZDApp_InitUserDesc
        FUNCTION ZDApp_InitUserDesc,0a1203H
        ARGFRAME XSTACK, 9, STACK
        ARGFRAME IOVERLAY, 0, STATIC
        ARGFRAME DOVERLAY, 0, STATIC
        LOCFRAME XSTACK, 31, STACK
        PUBLIC ZDApp_InitZdoCBFunc
        FUNCTION ZDApp_InitZdoCBFunc,0203H
        ARGFRAME XSTACK, 9, STACK
        ARGFRAME IOVERLAY, 0, STATIC
        ARGFRAME DOVERLAY, 0, STATIC
        LOCFRAME ISTACK, 2, STACK
        PUBLIC ZDApp_JoinReq
        FUNCTION ZDApp_JoinReq,0a1203H
        ARGFRAME XSTACK, 4, STACK
        LOCFRAME XSTACK, 16, STACK
        PUBLIC ZDApp_LeaveCtrl
        PUBLIC ZDApp_LeaveCtrlBypass
        FUNCTION ZDApp_LeaveCtrlBypass,0203H
        ARGFRAME XSTACK, 0, STACK
        LOCFRAME ISTACK, 2, STACK
        PUBLIC ZDApp_LeaveCtrlInit
        FUNCTION ZDApp_LeaveCtrlInit,0a1203H
        ARGFRAME XSTACK, 12, STACK
        ARGFRAME IOVERLAY, 0, STATIC
        ARGFRAME DOVERLAY, 0, STATIC
        LOCFRAME XSTACK, 14, STACK
        PUBLIC ZDApp_LeaveCtrlReset
        FUNCTION ZDApp_LeaveCtrlReset,0a1203H
        ARGFRAME XSTACK, 0, STACK
        ARGFRAME IOVERLAY, 0, STATIC
        ARGFRAME DOVERLAY, 0, STATIC
        LOCFRAME XSTACK, 14, STACK
        PUBLIC ZDApp_LeaveCtrlSet
        FUNCTION ZDApp_LeaveCtrlSet,0a1203H
        ARGFRAME XSTACK, 10, STACK
        ARGFRAME IOVERLAY, 0, STATIC
        ARGFRAME DOVERLAY, 0, STATIC
        LOCFRAME XSTACK, 14, STACK
        PUBLIC ZDApp_LeaveCtrlStartup
        FUNCTION ZDApp_LeaveCtrlStartup,021203H
        ARGFRAME XSTACK, 0, STACK
        LOCFRAME ISTACK, 2, STACK
        PUBLIC ZDApp_LeaveReset
        FUNCTION ZDApp_LeaveReset,0a1203H
        ARGFRAME XSTACK, 14, STACK
        ARGFRAME IOVERLAY, 0, STATIC
        ARGFRAME DOVERLAY, 0, STATIC
        LOCFRAME XSTACK, 10, STACK
        PUBLIC ZDApp_LeaveUpdate
        FUNCTION ZDApp_LeaveUpdate,0a1203H
        ARGFRAME XSTACK, 14, STACK
        ARGFRAME IOVERLAY, 0, STATIC
        ARGFRAME DOVERLAY, 0, STATIC
        LOCFRAME XSTACK, 27, STACK
        PUBLIC ZDApp_NVUpdate
        FUNCTION ZDApp_NVUpdate,0203H
        ARGFRAME XSTACK, 0, STACK
        PUBLIC ZDApp_NetworkDiscoveryReq
        FUNCTION ZDApp_NetworkDiscoveryReq,0a1203H
        ARGFRAME XSTACK, 0, STACK
        LOCFRAME XSTACK, 12, STACK
        PUBLIC ZDApp_NetworkInit
        FUNCTION ZDApp_NetworkInit,0a1203H
        ARGFRAME XSTACK, 15, STACK
        ARGFRAME IOVERLAY, 0, STATIC
        ARGFRAME DOVERLAY, 0, STATIC
        LOCFRAME XSTACK, 16, STACK
        PUBLIC ZDApp_NetworkStartEvt
        FUNCTION ZDApp_NetworkStartEvt,021203H
        ARGFRAME XSTACK, 0, STACK
        LOCFRAME ISTACK, 2, STACK
        PUBLIC ZDApp_NewDeviceList
        PUBLIC ZDApp_NodeProfileSync
        FUNCTION ZDApp_NodeProfileSync,021203H
        ARGFRAME XSTACK, 15, STACK
        ARGFRAME IOVERLAY, 0, STATIC
        ARGFRAME DOVERLAY, 0, STATIC
        LOCFRAME XSTACK, 9, STACK
        PUBLIC ZDApp_NwkDescListProcessing
        FUNCTION ZDApp_NwkDescListProcessing,0a1203H
        ARGFRAME XSTACK, 15, STACK
        ARGFRAME IOVERLAY, 0, STATIC
        ARGFRAME DOVERLAY, 0, STATIC
        LOCFRAME XSTACK, 14, STACK
        PUBLIC ZDApp_NwkStateUpdateCB
        FUNCTION ZDApp_NwkStateUpdateCB,021203H
        ARGFRAME XSTACK, 0, STACK
        LOCFRAME ISTACK, 2, STACK
        PUBLIC ZDApp_ProcessMsgCBs
        FUNCTION ZDApp_ProcessMsgCBs,0a1203H
        ARGFRAME XSTACK, 15, STACK
        ARGFRAME IOVERLAY, 0, STATIC
        ARGFRAME DOVERLAY, 0, STATIC
        LOCFRAME XSTACK, 35, STACK
        PUBLIC ZDApp_ProcessNetworkJoin
        FUNCTION ZDApp_ProcessNetworkJoin,0a1203H
        ARGFRAME XSTACK, 15, STACK
        ARGFRAME IOVERLAY, 0, STATIC
        ARGFRAME DOVERLAY, 0, STATIC
        LOCFRAME XSTACK, 14, STACK
        PUBLIC ZDApp_ProcessOSALMsg
        FUNCTION ZDApp_ProcessOSALMsg,0a1203H
        ARGFRAME XSTACK, 14, STACK
        ARGFRAME IOVERLAY, 0, STATIC
        ARGFRAME DOVERLAY, 0, STATIC
        LOCFRAME XSTACK, 19, STACK
        PUBLIC ZDApp_ProcessPendingBindReq
        FUNCTION ZDApp_ProcessPendingBindReq,0a1203H
        ARGFRAME XSTACK, 35, STACK
        ARGFRAME IOVERLAY, 0, STATIC
        ARGFRAME DOVERLAY, 0, STATIC
        LOCFRAME XSTACK, 21, STACK
        PUBLIC ZDApp_ProcessSecEvent
        FUNCTION ZDApp_ProcessSecEvent,021203H
        ARGFRAME XSTACK, 14, STACK
        ARGFRAME IOVERLAY, 0, STATIC
        ARGFRAME DOVERLAY, 0, STATIC
        LOCFRAME XSTACK, 9, STACK
        PUBLIC ZDApp_ProcessSecMsg
        FUNCTION ZDApp_ProcessSecMsg,021203H
        ARGFRAME XSTACK, 15, STACK
        ARGFRAME IOVERLAY, 0, STATIC
        ARGFRAME DOVERLAY, 0, STATIC
        LOCFRAME ISTACK, 2, STACK
        PUBLIC ZDApp_ReadNetworkRestoreState
        FUNCTION ZDApp_ReadNetworkRestoreState,021203H
        ARGFRAME XSTACK, 0, STACK
        LOCFRAME XSTACK, 9, STACK
        PUBLIC ZDApp_RegisterCBs
        FUNCTION ZDApp_RegisterCBs,021203H
        ARGFRAME XSTACK, 9, STACK
        ARGFRAME IOVERLAY, 0, STATIC
        ARGFRAME DOVERLAY, 0, STATIC
        LOCFRAME ISTACK, 2, STACK
        PUBLIC ZDApp_ResetNwkKey
        FUNCTION ZDApp_ResetNwkKey,0a1203H
        ARGFRAME XSTACK, 14, STACK
        ARGFRAME IOVERLAY, 0, STATIC
        ARGFRAME DOVERLAY, 0, STATIC
        LOCFRAME XSTACK, 35, STACK
        PUBLIC ZDApp_ResetTimerCancel
        FUNCTION ZDApp_ResetTimerCancel,021203H
        ARGFRAME XSTACK, 0, STACK
        ARGFRAME IOVERLAY, 0, STATIC
        ARGFRAME DOVERLAY, 0, STATIC
        LOCFRAME ISTACK, 2, STACK
        PUBLIC ZDApp_ResetTimerStart
        FUNCTION ZDApp_ResetTimerStart,0a1203H
        ARGFRAME XSTACK, 14, STACK
        ARGFRAME IOVERLAY, 0, STATIC
        ARGFRAME DOVERLAY, 0, STATIC
        LOCFRAME XSTACK, 16, STACK
        PUBLIC ZDApp_RestoreNwkKey
        FUNCTION ZDApp_RestoreNwkKey,0a1203H
        ARGFRAME XSTACK, 15, STACK
        ARGFRAME IOVERLAY, 0, STATIC
        ARGFRAME DOVERLAY, 0, STATIC
        LOCFRAME XSTACK, 53, STACK
        PUBLIC ZDApp_SaveNetworkStateEvt
        FUNCTION ZDApp_SaveNetworkStateEvt,0203H
        ARGFRAME XSTACK, 0, STACK
        PUBLIC ZDApp_SaveNwkKey
        FUNCTION ZDApp_SaveNwkKey,0a1203H
        ARGFRAME XSTACK, 9, STACK
        ARGFRAME IOVERLAY, 0, STATIC
        ARGFRAME DOVERLAY, 0, STATIC
        LOCFRAME XSTACK, 35, STACK
        PUBLIC ZDApp_SavedPollRate
        PUBLIC ZDApp_SecInit
        FUNCTION ZDApp_SecInit,0a1203H
        ARGFRAME XSTACK, 12, STACK
        ARGFRAME IOVERLAY, 0, STATIC
        ARGFRAME DOVERLAY, 0, STATIC
        LOCFRAME XSTACK, 25, STACK
        PUBLIC ZDApp_SendEventMsg
        FUNCTION ZDApp_SendEventMsg,021203H
        ARGFRAME XSTACK, 0, STACK
        LOCFRAME XSTACK, 9, STACK
        PUBLIC ZDApp_SendMsg
        FUNCTION ZDApp_SendMsg,0a1203H
        ARGFRAME XSTACK, 17, STACK
        ARGFRAME IOVERLAY, 0, STATIC
        ARGFRAME DOVERLAY, 0, STATIC
        LOCFRAME ISTACK, 1, STACK
        LOCFRAME XSTACK, 22, STACK
        PUBLIC ZDApp_SendParentAnnce
        FUNCTION ZDApp_SendParentAnnce,0a1203H
        ARGFRAME XSTACK, 0, STACK
        LOCFRAME XSTACK, 27, STACK
        PUBLIC ZDApp_SetParentAnnceTimer
        FUNCTION ZDApp_SetParentAnnceTimer,0a1203H
        ARGFRAME XSTACK, 0, STACK
        ARGFRAME IOVERLAY, 0, STATIC
        ARGFRAME DOVERLAY, 0, STATIC
        LOCFRAME XSTACK, 16, STACK
        PUBLIC ZDApp_SetPendingBindDefault
        FUNCTION ZDApp_SetPendingBindDefault,021203H
        ARGFRAME XSTACK, 26, STACK
        ARGFRAME IOVERLAY, 0, STATIC
        ARGFRAME DOVERLAY, 0, STATIC
        LOCFRAME XSTACK, 9, STACK
        PUBLIC ZDApp_SetRejoinBackoffDuration
        FUNCTION ZDApp_SetRejoinBackoffDuration,080203H
        ARGFRAME XSTACK, 0, STACK
        LOCFRAME XSTACK, 12, STACK
        PUBLIC ZDApp_SetRejoinScanDuration
        FUNCTION ZDApp_SetRejoinScanDuration,080203H
        ARGFRAME XSTACK, 0, STACK
        LOCFRAME XSTACK, 12, STACK
        PUBLIC ZDApp_StartJoiningCycle
        FUNCTION ZDApp_StartJoiningCycle,021203H
        ARGFRAME XSTACK, 14, STACK
        ARGFRAME IOVERLAY, 0, STATIC
        ARGFRAME DOVERLAY, 0, STATIC
        LOCFRAME ISTACK, 2, STACK
        PUBLIC ZDApp_StopJoiningCycle
        FUNCTION ZDApp_StopJoiningCycle,0203H
        ARGFRAME XSTACK, 14, STACK
        ARGFRAME IOVERLAY, 0, STATIC
        ARGFRAME DOVERLAY, 0, STATIC
        LOCFRAME ISTACK, 2, STACK
        PUBLIC ZDApp_epDesc
        PUBLIC ZDApp_event_loop
        FUNCTION ZDApp_event_loop,0a1203H
        ARGFRAME XSTACK, 0, STACK
        LOCFRAME XSTACK, 18, STACK
        PUBLIC ZDOInitDevice
        FUNCTION ZDOInitDevice,0a1203H
        ARGFRAME XSTACK, 9, STACK
        ARGFRAME IOVERLAY, 0, STATIC
        ARGFRAME DOVERLAY, 0, STATIC
        LOCFRAME XSTACK, 12, STACK
        PUBLIC ZDO_AddrChangeIndicationCB
        FUNCTION ZDO_AddrChangeIndicationCB,0a1203H
        ARGFRAME XSTACK, 0, STACK
        LOCFRAME XSTACK, 14, STACK
        PUBLIC ZDO_ConcentratorIndicationCB
        FUNCTION ZDO_ConcentratorIndicationCB,0203H
        ARGFRAME XSTACK, 0, STACK
        LOCFRAME ISTACK, 1, STACK
        LOCFRAME XSTACK, 14, STACK
        PUBLIC ZDO_DeregisterForZdoCB
        FUNCTION ZDO_DeregisterForZdoCB,0203H
        ARGFRAME XSTACK, 0, STACK
        LOCFRAME ISTACK, 2, STACK
        PUBLIC ZDO_JoinConfirmCB
        FUNCTION ZDO_JoinConfirmCB,0a1203H
        ARGFRAME XSTACK, 0, STACK
        LOCFRAME ISTACK, 1, STACK
        LOCFRAME XSTACK, 17, STACK
        PUBLIC ZDO_JoinIndicationCB
        FUNCTION ZDO_JoinIndicationCB,0a1203H
        ARGFRAME XSTACK, 1, STACK
        LOCFRAME XSTACK, 20, STACK
        PUBLIC ZDO_LeaveCnf
        FUNCTION ZDO_LeaveCnf,0a1203H
        ARGFRAME XSTACK, 0, STACK
        LOCFRAME XSTACK, 10, STACK
        PUBLIC ZDO_LeaveInd
        FUNCTION ZDO_LeaveInd,0a1203H
        ARGFRAME XSTACK, 0, STACK
        LOCFRAME XSTACK, 14, STACK
        PUBLIC ZDO_ManytoOneFailureIndicationCB
        FUNCTION ZDO_ManytoOneFailureIndicationCB,021203H
        ARGFRAME XSTACK, 0, STACK
        LOCFRAME ISTACK, 2, STACK
        PUBLIC ZDO_NetworkDiscoveryConfirmCB
        FUNCTION ZDO_NetworkDiscoveryConfirmCB,021203H
        ARGFRAME XSTACK, 0, STACK
        LOCFRAME ISTACK, 3, STACK
        LOCFRAME XSTACK, 3, STACK
        PUBLIC ZDO_NetworkFormationConfirmCB
        FUNCTION ZDO_NetworkFormationConfirmCB,021203H
        ARGFRAME XSTACK, 0, STACK
        LOCFRAME XSTACK, 9, STACK
        PUBLIC ZDO_NetworkStatusCB
        FUNCTION ZDO_NetworkStatusCB,021203H
        ARGFRAME XSTACK, 0, STACK
        LOCFRAME ISTACK, 2, STACK
        PUBLIC ZDO_PermitJoinCB
        FUNCTION ZDO_PermitJoinCB,0203H
        ARGFRAME XSTACK, 0, STACK
        LOCFRAME ISTACK, 3, STACK
        LOCFRAME XSTACK, 1, STACK
        PUBLIC ZDO_PollConfirmCB
        FUNCTION ZDO_PollConfirmCB,0203H
        ARGFRAME XSTACK, 0, STACK
        PUBLIC ZDO_RegisterForZdoCB
        FUNCTION ZDO_RegisterForZdoCB,0203H
        ARGFRAME XSTACK, 0, STACK
        LOCFRAME ISTACK, 2, STACK
        PUBLIC ZDO_SrcRtgIndCB
        FUNCTION ZDO_SrcRtgIndCB,0203H
        ARGFRAME XSTACK, 0, STACK
        LOCFRAME ISTACK, 1, STACK
        LOCFRAME XSTACK, 14, STACK
        PUBLIC ZDO_StartRouterConfirmCB
        FUNCTION ZDO_StartRouterConfirmCB,021203H
        ARGFRAME XSTACK, 0, STACK
        LOCFRAME XSTACK, 9, STACK
        PUBLIC ZDO_SyncIndicationCB
        FUNCTION ZDO_SyncIndicationCB,0a1203H
        ARGFRAME XSTACK, 0, STACK
        LOCFRAME XSTACK, 12, STACK
        PUBLIC ZDO_UpdateDeviceIndication
        FUNCTION ZDO_UpdateDeviceIndication,0203H
        ARGFRAME XSTACK, 0, STACK
        PUBLIC ZDO_UseExtendedPANID
        PUBLIC ZDO_beaconNotifyIndCB
        FUNCTION ZDO_beaconNotifyIndCB,0a1203H
        ARGFRAME XSTACK, 0, STACK
        LOCFRAME ISTACK, 1, STACK
        LOCFRAME XSTACK, 18, STACK
        PUBWEAK __Constant_0
        PUBWEAK __Constant_258
        PUBWEAK __Constant_2710
        PUBWEAK __Constant_3e8
        PUBWEAK __Constant_4e2
        PUBWEAK __Constant_64
        PUBLIC _tmpRejoinState
        PUBLIC continueJoining
        PUBLIC devStartMode
        PUBLIC devState
        PUBLIC nwkStatus
        PUBLIC prevDevState
        PUBLIC retryCnt
        PUBLIC runtimeChannel
        PUBLIC zdappMgmtNwkDiscReqInProgress
        PUBLIC zdappMgmtNwkDiscRspAddr
        PUBLIC zdappMgmtNwkDiscRspTransSeq
        PUBLIC zdappMgmtNwkDiscStartIndex
        PUBLIC zdappMgmtSavedNwkState
        PUBLIC zdoCBFunc
        PUBLIC zdoDiscCounter
        
          CFI Names cfiNames0
          CFI StackFrame CFA_SP SP IDATA
          CFI StackFrame CFA_PSP16 PSP16 XDATA
          CFI StackFrame CFA_XSP16 XSP16 XDATA
          CFI StaticOverlayFrame CFA_IOVERLAY IOVERLAY
          CFI StaticOverlayFrame CFA_DOVERLAY DOVERLAY
          CFI Resource `PSW.CY`:1, `B.BR0`:1, `B.BR1`:1, `B.BR2`:1, `B.BR3`:1
          CFI Resource `B.BR4`:1, `B.BR5`:1, `B.BR6`:1, `B.BR7`:1, `VB.BR8`:1
          CFI Resource `VB.BR9`:1, `VB.BR10`:1, `VB.BR11`:1, `VB.BR12`:1
          CFI Resource `VB.BR13`:1, `VB.BR14`:1, `VB.BR15`:1, VB:8, B:8, A:8
          CFI Resource PSW:8, DPL0:8, DPH0:8, R0:8, R1:8, R2:8, R3:8, R4:8, R5:8
          CFI Resource R6:8, R7:8, V0:8, V1:8, V2:8, V3:8, V4:8, V5:8, V6:8, V7:8
          CFI Resource V8:8, V9:8, V10:8, V11:8, V12:8, V13:8, V14:8, V15:8, SP:8
          CFI Resource PSPH:8, PSPL:8, PSP16:16, XSPH:8, XSPL:8, XSP16:16
          CFI VirtualResource ?RET:24
          CFI Resource ?BRET_EXT:8
          CFI VirtualResource ?RET_HIGH:8, ?RET_LOW:8
          CFI ResourceParts PSP16 PSPH, PSPL
          CFI ResourceParts XSP16 XSPH, XSPL
          CFI ResourceParts ?RET ?BRET_EXT, ?RET_HIGH, ?RET_LOW
          CFI EndNames cfiNames0
        
          CFI Common cfiCommon0 Using cfiNames0
          CFI CodeAlign 1
          CFI DataAlign -1
          CFI ReturnAddress ?RET CODE
          CFI CFA_DOVERLAY Used
          CFI CFA_IOVERLAY Used
          CFI CFA_SP SP+-3
          CFI CFA_PSP16 PSP16+0
          CFI CFA_XSP16 XSP16+0
          CFI `PSW.CY` SameValue
          CFI `B.BR0` SameValue
          CFI `B.BR1` SameValue
          CFI `B.BR2` SameValue
          CFI `B.BR3` SameValue
          CFI `B.BR4` SameValue
          CFI `B.BR5` SameValue
          CFI `B.BR6` SameValue
          CFI `B.BR7` SameValue
          CFI `VB.BR8` SameValue
          CFI `VB.BR9` SameValue
          CFI `VB.BR10` SameValue
          CFI `VB.BR11` SameValue
          CFI `VB.BR12` SameValue
          CFI `VB.BR13` SameValue
          CFI `VB.BR14` SameValue
          CFI `VB.BR15` SameValue
          CFI VB SameValue
          CFI B Undefined
          CFI A Undefined
          CFI PSW SameValue
          CFI DPL0 SameValue
          CFI DPH0 SameValue
          CFI R0 Undefined
          CFI R1 Undefined
          CFI R2 Undefined
          CFI R3 Undefined
          CFI R4 Undefined
          CFI R5 Undefined
          CFI R6 SameValue
          CFI R7 SameValue
          CFI V0 SameValue
          CFI V1 SameValue
          CFI V2 SameValue
          CFI V3 SameValue
          CFI V4 SameValue
          CFI V5 SameValue
          CFI V6 SameValue
          CFI V7 SameValue
          CFI V8 SameValue
          CFI V9 SameValue
          CFI V10 SameValue
          CFI V11 SameValue
          CFI V12 SameValue
          CFI V13 SameValue
          CFI V14 SameValue
          CFI V15 SameValue
          CFI PSPH Undefined
          CFI PSPL Undefined
          CFI XSPH Undefined
          CFI XSPL Undefined
          CFI ?RET Concat
          CFI ?BRET_EXT Frame(CFA_SP, 3)
          CFI ?RET_HIGH Frame(CFA_SP, 2)
          CFI ?RET_LOW Frame(CFA_SP, 1)
          CFI EndCommon cfiCommon0
        
        
          CFI Common cfiCommon1 Using cfiNames0
          CFI CodeAlign 1
          CFI DataAlign -1
          CFI ReturnAddress ?RET CODE
          CFI CFA_DOVERLAY Used
          CFI CFA_IOVERLAY Used
          CFI CFA_SP SP+-2
          CFI CFA_PSP16 PSP16+0
          CFI CFA_XSP16 XSP16+0
          CFI `PSW.CY` SameValue
          CFI `B.BR0` SameValue
          CFI `B.BR1` SameValue
          CFI `B.BR2` SameValue
          CFI `B.BR3` SameValue
          CFI `B.BR4` SameValue
          CFI `B.BR5` SameValue
          CFI `B.BR6` SameValue
          CFI `B.BR7` SameValue
          CFI `VB.BR8` SameValue
          CFI `VB.BR9` SameValue
          CFI `VB.BR10` SameValue
          CFI `VB.BR11` SameValue
          CFI `VB.BR12` SameValue
          CFI `VB.BR13` SameValue
          CFI `VB.BR14` SameValue
          CFI `VB.BR15` SameValue
          CFI VB SameValue
          CFI B SameValue
          CFI A SameValue
          CFI PSW SameValue
          CFI DPL0 SameValue
          CFI DPH0 SameValue
          CFI R0 SameValue
          CFI R1 SameValue
          CFI R2 SameValue
          CFI R3 SameValue
          CFI R4 SameValue
          CFI R5 SameValue
          CFI R6 SameValue
          CFI R7 SameValue
          CFI V0 SameValue
          CFI V1 SameValue
          CFI V2 SameValue
          CFI V3 SameValue
          CFI V4 SameValue
          CFI V5 SameValue
          CFI V6 SameValue
          CFI V7 SameValue
          CFI V8 SameValue
          CFI V9 SameValue
          CFI V10 SameValue
          CFI V11 SameValue
          CFI V12 SameValue
          CFI V13 SameValue
          CFI V14 SameValue
          CFI V15 SameValue
          CFI PSPH Undefined
          CFI PSPL Undefined
          CFI XSPH Undefined
          CFI XSPL Undefined
          CFI ?RET Concat
          CFI ?BRET_EXT SameValue
          CFI ?RET_HIGH Frame(CFA_SP, 2)
          CFI ?RET_LOW Frame(CFA_SP, 1)
          CFI EndCommon cfiCommon1
        
APSME_BindRequest   SYMBOL "APSME_BindRequest"
`??APSME_BindRequest::?relay` SYMBOL "?relay", APSME_BindRequest
APSME_HoldDataRequests SYMBOL "APSME_HoldDataRequests"
`??APSME_HoldDataRequests::?relay` SYMBOL "?relay", APSME_HoldDataRequests
AddrMgrEntryLookupExt SYMBOL "AddrMgrEntryLookupExt"
`??AddrMgrEntryLookupExt::?relay` SYMBOL "?relay", AddrMgrEntryLookupExt
AddrMgrEntryRelease SYMBOL "AddrMgrEntryRelease"
`??AddrMgrEntryRelease::?relay` SYMBOL "?relay", AddrMgrEntryRelease
AddrMgrExtAddrSet   SYMBOL "AddrMgrExtAddrSet"
`??AddrMgrExtAddrSet::?relay` SYMBOL "?relay", AddrMgrExtAddrSet
AssocMakeListOfRfdChild SYMBOL "AssocMakeListOfRfdChild"
`??AssocMakeListOfRfdChild::?relay` SYMBOL "?relay", AssocMakeListOfRfdChild
HalKeyRead          SYMBOL "HalKeyRead"
`??HalKeyRead::?relay` SYMBOL "?relay", HalKeyRead
HalLedBlink         SYMBOL "HalLedBlink"
`??HalLedBlink::?relay` SYMBOL "?relay", HalLedBlink
HalLedSet           SYMBOL "HalLedSet"
`??HalLedSet::?relay` SYMBOL "?relay", HalLedSet
NLME_GetCoordExtAddr SYMBOL "NLME_GetCoordExtAddr"
`??NLME_GetCoordExtAddr::?relay` SYMBOL "?relay", NLME_GetCoordExtAddr
NLME_GetCoordShortAddr SYMBOL "NLME_GetCoordShortAddr"
`??NLME_GetCoordShortAddr::?relay` SYMBOL "?relay", NLME_GetCoordShortAddr
NLME_GetEnergyThreshold SYMBOL "NLME_GetEnergyThreshold"
`??NLME_GetEnergyThreshold::?relay` SYMBOL "?relay", NLME_GetEnergyThreshold
NLME_GetExtAddr     SYMBOL "NLME_GetExtAddr"
`??NLME_GetExtAddr::?relay` SYMBOL "?relay", NLME_GetExtAddr
NLME_GetShortAddr   SYMBOL "NLME_GetShortAddr"
`??NLME_GetShortAddr::?relay` SYMBOL "?relay", NLME_GetShortAddr
NLME_JoinRequest    SYMBOL "NLME_JoinRequest"
`??NLME_JoinRequest::?relay` SYMBOL "?relay", NLME_JoinRequest
NLME_LeaveRsp       SYMBOL "NLME_LeaveRsp"
`??NLME_LeaveRsp::?relay` SYMBOL "?relay", NLME_LeaveRsp
NLME_NetworkDiscoveryRequest SYMBOL "NLME_NetworkDiscoveryRequest"
`??NLME_NetworkDiscoveryRequest::?relay` SYMBOL "?relay", NLME_NetworkDiscoveryRequest
NLME_NwkDiscTerm    SYMBOL "NLME_NwkDiscTerm"
`??NLME_NwkDiscTerm::?relay` SYMBOL "?relay", NLME_NwkDiscTerm
NLME_ReJoinRequest  SYMBOL "NLME_ReJoinRequest"
`??NLME_ReJoinRequest::?relay` SYMBOL "?relay", NLME_ReJoinRequest
NLME_ReJoinRequestUnsecure SYMBOL "NLME_ReJoinRequestUnsecure"
`??NLME_ReJoinRequestUnsecure::?relay` SYMBOL "?relay", NLME_ReJoinRequestUnsecure
NLME_SendEndDevTimeoutReq SYMBOL "NLME_SendEndDevTimeoutReq"
`??NLME_SendEndDevTimeoutReq::?relay` SYMBOL "?relay", NLME_SendEndDevTimeoutReq
NLME_SetBroadcastFilter SYMBOL "NLME_SetBroadcastFilter"
`??NLME_SetBroadcastFilter::?relay` SYMBOL "?relay", NLME_SetBroadcastFilter
NLME_SetEnergyThreshold SYMBOL "NLME_SetEnergyThreshold"
`??NLME_SetEnergyThreshold::?relay` SYMBOL "?relay", NLME_SetEnergyThreshold
NLME_SetPollRate    SYMBOL "NLME_SetPollRate"
`??NLME_SetPollRate::?relay` SYMBOL "?relay", NLME_SetPollRate
NLME_SetQueuedPollRate SYMBOL "NLME_SetQueuedPollRate"
`??NLME_SetQueuedPollRate::?relay` SYMBOL "?relay", NLME_SetQueuedPollRate
NLME_SetResponseRate SYMBOL "NLME_SetResponseRate"
`??NLME_SetResponseRate::?relay` SYMBOL "?relay", NLME_SetResponseRate
RTG_MTORouteReq     SYMBOL "RTG_MTORouteReq"
`??RTG_MTORouteReq::?relay` SYMBOL "?relay", RTG_MTORouteReq
RTG_RemoveRtgEntry  SYMBOL "RTG_RemoveRtgEntry"
`??RTG_RemoveRtgEntry::?relay` SYMBOL "?relay", RTG_RemoveRtgEntry
SSP_ReadNwkActiveKey SYMBOL "SSP_ReadNwkActiveKey"
`??SSP_ReadNwkActiveKey::?relay` SYMBOL "?relay", SSP_ReadNwkActiveKey
SSP_SwitchNwkKey    SYMBOL "SSP_SwitchNwkKey"
`??SSP_SwitchNwkKey::?relay` SYMBOL "?relay", SSP_SwitchNwkKey
SSP_UpdateNwkKey    SYMBOL "SSP_UpdateNwkKey"
`??SSP_UpdateNwkKey::?relay` SYMBOL "?relay", SSP_UpdateNwkKey
ZDConfig_InitDescriptors SYMBOL "ZDConfig_InitDescriptors"
`??ZDConfig_InitDescriptors::?relay` SYMBOL "?relay", ZDConfig_InitDescriptors
ZDO_Init            SYMBOL "ZDO_Init"
`??ZDO_Init::?relay` SYMBOL "?relay", ZDO_Init
ZDO_ParseAddrRsp    SYMBOL "ZDO_ParseAddrRsp"
`??ZDO_ParseAddrRsp::?relay` SYMBOL "?relay", ZDO_ParseAddrRsp
ZDO_ParseBindUnbindReq SYMBOL "ZDO_ParseBindUnbindReq"
`??ZDO_ParseBindUnbindReq::?relay` SYMBOL "?relay", ZDO_ParseBindUnbindReq
ZDO_ProcessBindUnbindReq SYMBOL "ZDO_ProcessBindUnbindReq"
`??ZDO_ProcessBindUnbindReq::?relay` SYMBOL "?relay", ZDO_ProcessBindUnbindReq
ZDO_RegisterForZDOMsg SYMBOL "ZDO_RegisterForZDOMsg"
`??ZDO_RegisterForZDOMsg::?relay` SYMBOL "?relay", ZDO_RegisterForZDOMsg
ZDO_StartDevice     SYMBOL "ZDO_StartDevice"
`??ZDO_StartDevice::?relay` SYMBOL "?relay", ZDO_StartDevice
ZDO_UpdateAddrManager SYMBOL "ZDO_UpdateAddrManager"
`??ZDO_UpdateAddrManager::?relay` SYMBOL "?relay", ZDO_UpdateAddrManager
ZDO_UpdateNwkStatus SYMBOL "ZDO_UpdateNwkStatus"
`??ZDO_UpdateNwkStatus::?relay` SYMBOL "?relay", ZDO_UpdateNwkStatus
ZDP_DeviceAnnce     SYMBOL "ZDP_DeviceAnnce"
`??ZDP_DeviceAnnce::?relay` SYMBOL "?relay", ZDP_DeviceAnnce
ZDP_GenericRsp      SYMBOL "ZDP_GenericRsp"
`??ZDP_GenericRsp::?relay` SYMBOL "?relay", ZDP_GenericRsp
ZDP_IncomingData    SYMBOL "ZDP_IncomingData"
`??ZDP_IncomingData::?relay` SYMBOL "?relay", ZDP_IncomingData
ZDP_ParentAnnce     SYMBOL "ZDP_ParentAnnce"
`??ZDP_ParentAnnce::?relay` SYMBOL "?relay", ZDP_ParentAnnce
ZDP_SendData        SYMBOL "ZDP_SendData"
`??ZDP_SendData::?relay` SYMBOL "?relay", ZDP_SendData
ZDSecMgrAddrClear   SYMBOL "ZDSecMgrAddrClear"
`??ZDSecMgrAddrClear::?relay` SYMBOL "?relay", ZDSecMgrAddrClear
ZDSecMgrDeviceRemoveByExtAddr SYMBOL "ZDSecMgrDeviceRemoveByExtAddr"
`??ZDSecMgrDeviceRemoveByExtAddr::?relay` SYMBOL "?relay", ZDSecMgrDeviceRemoveByExtAddr
ZDSecMgrInit        SYMBOL "ZDSecMgrInit"
`??ZDSecMgrInit::?relay` SYMBOL "?relay", ZDSecMgrInit
ZDSecMgrReadKeyFromNv SYMBOL "ZDSecMgrReadKeyFromNv"
`??ZDSecMgrReadKeyFromNv::?relay` SYMBOL "?relay", ZDSecMgrReadKeyFromNv
ZDSecMgrSaveTCLinkKey SYMBOL "ZDSecMgrSaveTCLinkKey"
`??ZDSecMgrSaveTCLinkKey::?relay` SYMBOL "?relay", ZDSecMgrSaveTCLinkKey
ZDSecMgrSwitchKeyInd SYMBOL "ZDSecMgrSwitchKeyInd"
`??ZDSecMgrSwitchKeyInd::?relay` SYMBOL "?relay", ZDSecMgrSwitchKeyInd
ZDSecMgrTransportKeyInd SYMBOL "ZDSecMgrTransportKeyInd"
`??ZDSecMgrTransportKeyInd::?relay` SYMBOL "?relay", ZDSecMgrTransportKeyInd
ZMacSetReq          SYMBOL "ZMacSetReq"
`??ZMacSetReq::?relay` SYMBOL "?relay", ZMacSetReq
afRegister          SYMBOL "afRegister"
`??afRegister::?relay` SYMBOL "?relay", afRegister
afSetMatch          SYMBOL "afSetMatch"
`??afSetMatch::?relay` SYMBOL "?relay", afSetMatch
nwkNeighborFindEmptySlot SYMBOL "nwkNeighborFindEmptySlot"
`??nwkNeighborFindEmptySlot::?relay` SYMBOL "?relay", nwkNeighborFindEmptySlot
nwkNeighborInitTable SYMBOL "nwkNeighborInitTable"
`??nwkNeighborInitTable::?relay` SYMBOL "?relay", nwkNeighborInitTable
nwkNeighborRemove   SYMBOL "nwkNeighborRemove"
`??nwkNeighborRemove::?relay` SYMBOL "?relay", nwkNeighborRemove
nwk_ExtPANIDValid   SYMBOL "nwk_ExtPANIDValid"
`??nwk_ExtPANIDValid::?relay` SYMBOL "?relay", nwk_ExtPANIDValid
nwk_desc_list_free  SYMBOL "nwk_desc_list_free"
`??nwk_desc_list_free::?relay` SYMBOL "?relay", nwk_desc_list_free
nwk_getNwkDescList  SYMBOL "nwk_getNwkDescList"
`??nwk_getNwkDescList::?relay` SYMBOL "?relay", nwk_getNwkDescList
osal_clear_event    SYMBOL "osal_clear_event"
`??osal_clear_event::?relay` SYMBOL "?relay", osal_clear_event
osal_get_timeoutEx  SYMBOL "osal_get_timeoutEx"
`??osal_get_timeoutEx::?relay` SYMBOL "?relay", osal_get_timeoutEx
osal_mem_alloc      SYMBOL "osal_mem_alloc"
`??osal_mem_alloc::?relay` SYMBOL "?relay", osal_mem_alloc
osal_mem_free       SYMBOL "osal_mem_free"
`??osal_mem_free::?relay` SYMBOL "?relay", osal_mem_free
osal_memcmp         SYMBOL "osal_memcmp"
`??osal_memcmp::?relay` SYMBOL "?relay", osal_memcmp
osal_memcpy         SYMBOL "osal_memcpy"
`??osal_memcpy::?relay` SYMBOL "?relay", osal_memcpy
osal_memset         SYMBOL "osal_memset"
`??osal_memset::?relay` SYMBOL "?relay", osal_memset
osal_msg_allocate   SYMBOL "osal_msg_allocate"
`??osal_msg_allocate::?relay` SYMBOL "?relay", osal_msg_allocate
osal_msg_deallocate SYMBOL "osal_msg_deallocate"
`??osal_msg_deallocate::?relay` SYMBOL "?relay", osal_msg_deallocate
osal_msg_receive    SYMBOL "osal_msg_receive"
`??osal_msg_receive::?relay` SYMBOL "?relay", osal_msg_receive
osal_msg_send       SYMBOL "osal_msg_send"
`??osal_msg_send::?relay` SYMBOL "?relay", osal_msg_send
osal_nv_item_init   SYMBOL "osal_nv_item_init"
`??osal_nv_item_init::?relay` SYMBOL "?relay", osal_nv_item_init
osal_nv_read        SYMBOL "osal_nv_read"
`??osal_nv_read::?relay` SYMBOL "?relay", osal_nv_read
osal_nv_write       SYMBOL "osal_nv_write"
`??osal_nv_write::?relay` SYMBOL "?relay", osal_nv_write
osal_pwrmgr_device  SYMBOL "osal_pwrmgr_device"
`??osal_pwrmgr_device::?relay` SYMBOL "?relay", osal_pwrmgr_device
osal_rand           SYMBOL "osal_rand"
`??osal_rand::?relay` SYMBOL "?relay", osal_rand
osal_set_event      SYMBOL "osal_set_event"
`??osal_set_event::?relay` SYMBOL "?relay", osal_set_event
osal_start_timerEx  SYMBOL "osal_start_timerEx"
`??osal_start_timerEx::?relay` SYMBOL "?relay", osal_start_timerEx
osal_stop_timerEx   SYMBOL "osal_stop_timerEx"
`??osal_stop_timerEx::?relay` SYMBOL "?relay", osal_stop_timerEx
sAddrExtCmp         SYMBOL "sAddrExtCmp"
`??sAddrExtCmp::?relay` SYMBOL "?relay", sAddrExtCmp
sAddrExtCpy         SYMBOL "sAddrExtCpy"
`??sAddrExtCpy::?relay` SYMBOL "?relay", sAddrExtCpy
zgInitItems         SYMBOL "zgInitItems"
`??zgInitItems::?relay` SYMBOL "?relay", zgInitItems
zgReadStartupOptions SYMBOL "zgReadStartupOptions"
`??zgReadStartupOptions::?relay` SYMBOL "?relay", zgReadStartupOptions
zgWriteStartupOptions SYMBOL "zgWriteStartupOptions"
`??zgWriteStartupOptions::?relay` SYMBOL "?relay", zgWriteStartupOptions
AddrMgrWriteNVRequest SYMBOL "AddrMgrWriteNVRequest"
`??AddrMgrWriteNVRequest::?relay` SYMBOL "?relay", AddrMgrWriteNVRequest
ZDAppCheckForHoldKey SYMBOL "ZDAppCheckForHoldKey"
`??ZDAppCheckForHoldKey::?relay` SYMBOL "?relay", ZDAppCheckForHoldKey
ZDAppDetermineDeviceType SYMBOL "ZDAppDetermineDeviceType"
`??ZDAppDetermineDeviceType::?relay` SYMBOL "?relay", ZDAppDetermineDeviceType
ZDApp_AgeOutPendingBindEntry SYMBOL "ZDApp_AgeOutPendingBindEntry"
`??ZDApp_AgeOutPendingBindEntry::?relay` SYMBOL "?relay", ZDApp_AgeOutPendingBindEntry
ZDApp_AnnounceNewAddress SYMBOL "ZDApp_AnnounceNewAddress"
`??ZDApp_AnnounceNewAddress::?relay` SYMBOL "?relay", ZDApp_AnnounceNewAddress
ZDApp_ChangeMatchDescRespPermission SYMBOL "ZDApp_ChangeMatchDescRespPermission"
`??ZDApp_ChangeMatchDescRespPermission::?relay` SYMBOL "?relay", ZDApp_ChangeMatchDescRespPermission
ZDApp_ChangeState   SYMBOL "ZDApp_ChangeState"
`??ZDApp_ChangeState::?relay` SYMBOL "?relay", ZDApp_ChangeState
ZDApp_CoordStartPANIDConflictCB SYMBOL "ZDApp_CoordStartPANIDConflictCB"
`??ZDApp_CoordStartPANIDConflictCB::?relay` SYMBOL "?relay", ZDApp_CoordStartPANIDConflictCB
ZDApp_DeviceAuthEvt SYMBOL "ZDApp_DeviceAuthEvt"
`??ZDApp_DeviceAuthEvt::?relay` SYMBOL "?relay", ZDApp_DeviceAuthEvt
ZDApp_DeviceConfigured SYMBOL "ZDApp_DeviceConfigured"
`??ZDApp_DeviceConfigured::?relay` SYMBOL "?relay", ZDApp_DeviceConfigured
ZDApp_ForceConcentratorChange SYMBOL "ZDApp_ForceConcentratorChange"
`??ZDApp_ForceConcentratorChange::?relay` SYMBOL "?relay", ZDApp_ForceConcentratorChange
ZDApp_GetEmptyPendingBindReq SYMBOL "ZDApp_GetEmptyPendingBindReq"
`??ZDApp_GetEmptyPendingBindReq::?relay` SYMBOL "?relay", ZDApp_GetEmptyPendingBindReq
ZDApp_InMsgCB       SYMBOL "ZDApp_InMsgCB"
`??ZDApp_InMsgCB::?relay` SYMBOL "?relay", ZDApp_InMsgCB
ZDApp_Init          SYMBOL "ZDApp_Init"
`??ZDApp_Init::?relay` SYMBOL "?relay", ZDApp_Init
ZDApp_InitPendingBind SYMBOL "ZDApp_InitPendingBind"
`??ZDApp_InitPendingBind::?relay` SYMBOL "?relay", ZDApp_InitPendingBind
ZDApp_InitUserDesc  SYMBOL "ZDApp_InitUserDesc"
`??ZDApp_InitUserDesc::?relay` SYMBOL "?relay", ZDApp_InitUserDesc
ZDApp_InitZdoCBFunc SYMBOL "ZDApp_InitZdoCBFunc"
`??ZDApp_InitZdoCBFunc::?relay` SYMBOL "?relay", ZDApp_InitZdoCBFunc
ZDApp_JoinReq       SYMBOL "ZDApp_JoinReq"
`??ZDApp_JoinReq::?relay` SYMBOL "?relay", ZDApp_JoinReq
ZDApp_LeaveCtrlBypass SYMBOL "ZDApp_LeaveCtrlBypass"
`??ZDApp_LeaveCtrlBypass::?relay` SYMBOL "?relay", ZDApp_LeaveCtrlBypass
ZDApp_LeaveCtrlInit SYMBOL "ZDApp_LeaveCtrlInit"
`??ZDApp_LeaveCtrlInit::?relay` SYMBOL "?relay", ZDApp_LeaveCtrlInit
ZDApp_LeaveCtrlReset SYMBOL "ZDApp_LeaveCtrlReset"
`??ZDApp_LeaveCtrlReset::?relay` SYMBOL "?relay", ZDApp_LeaveCtrlReset
ZDApp_LeaveCtrlSet  SYMBOL "ZDApp_LeaveCtrlSet"
`??ZDApp_LeaveCtrlSet::?relay` SYMBOL "?relay", ZDApp_LeaveCtrlSet
ZDApp_LeaveCtrlStartup SYMBOL "ZDApp_LeaveCtrlStartup"
`??ZDApp_LeaveCtrlStartup::?relay` SYMBOL "?relay", ZDApp_LeaveCtrlStartup
ZDApp_LeaveReset    SYMBOL "ZDApp_LeaveReset"
`??ZDApp_LeaveReset::?relay` SYMBOL "?relay", ZDApp_LeaveReset
ZDApp_LeaveUpdate   SYMBOL "ZDApp_LeaveUpdate"
`??ZDApp_LeaveUpdate::?relay` SYMBOL "?relay", ZDApp_LeaveUpdate
ZDApp_NVUpdate      SYMBOL "ZDApp_NVUpdate"
`??ZDApp_NVUpdate::?relay` SYMBOL "?relay", ZDApp_NVUpdate
ZDApp_NetworkDiscoveryReq SYMBOL "ZDApp_NetworkDiscoveryReq"
`??ZDApp_NetworkDiscoveryReq::?relay` SYMBOL "?relay", ZDApp_NetworkDiscoveryReq
ZDApp_NetworkInit   SYMBOL "ZDApp_NetworkInit"
`??ZDApp_NetworkInit::?relay` SYMBOL "?relay", ZDApp_NetworkInit
ZDApp_NetworkStartEvt SYMBOL "ZDApp_NetworkStartEvt"
`??ZDApp_NetworkStartEvt::?relay` SYMBOL "?relay", ZDApp_NetworkStartEvt
ZDApp_NodeProfileSync SYMBOL "ZDApp_NodeProfileSync"
`??ZDApp_NodeProfileSync::?relay` SYMBOL "?relay", ZDApp_NodeProfileSync
ZDApp_NwkDescListProcessing SYMBOL "ZDApp_NwkDescListProcessing"
`??ZDApp_NwkDescListProcessing::?relay` SYMBOL "?relay", ZDApp_NwkDescListProcessing
ZDApp_NwkStateUpdateCB SYMBOL "ZDApp_NwkStateUpdateCB"
`??ZDApp_NwkStateUpdateCB::?relay` SYMBOL "?relay", ZDApp_NwkStateUpdateCB
ZDApp_ProcessMsgCBs SYMBOL "ZDApp_ProcessMsgCBs"
`??ZDApp_ProcessMsgCBs::?relay` SYMBOL "?relay", ZDApp_ProcessMsgCBs
ZDApp_ProcessNetworkJoin SYMBOL "ZDApp_ProcessNetworkJoin"
`??ZDApp_ProcessNetworkJoin::?relay` SYMBOL "?relay", ZDApp_ProcessNetworkJoin
ZDApp_ProcessOSALMsg SYMBOL "ZDApp_ProcessOSALMsg"
`??ZDApp_ProcessOSALMsg::?relay` SYMBOL "?relay", ZDApp_ProcessOSALMsg
ZDApp_ProcessPendingBindReq SYMBOL "ZDApp_ProcessPendingBindReq"
`??ZDApp_ProcessPendingBindReq::?relay` SYMBOL "?relay", ZDApp_ProcessPendingBindReq
ZDApp_ProcessSecEvent SYMBOL "ZDApp_ProcessSecEvent"
`??ZDApp_ProcessSecEvent::?relay` SYMBOL "?relay", ZDApp_ProcessSecEvent
ZDApp_ProcessSecMsg SYMBOL "ZDApp_ProcessSecMsg"
`??ZDApp_ProcessSecMsg::?relay` SYMBOL "?relay", ZDApp_ProcessSecMsg
ZDApp_ReadNetworkRestoreState SYMBOL "ZDApp_ReadNetworkRestoreState"
`??ZDApp_ReadNetworkRestoreState::?relay` SYMBOL "?relay", ZDApp_ReadNetworkRestoreState
ZDApp_RegisterCBs   SYMBOL "ZDApp_RegisterCBs"
`??ZDApp_RegisterCBs::?relay` SYMBOL "?relay", ZDApp_RegisterCBs
ZDApp_ResetNwkKey   SYMBOL "ZDApp_ResetNwkKey"
`??ZDApp_ResetNwkKey::?relay` SYMBOL "?relay", ZDApp_ResetNwkKey
ZDApp_ResetTimerCancel SYMBOL "ZDApp_ResetTimerCancel"
`??ZDApp_ResetTimerCancel::?relay` SYMBOL "?relay", ZDApp_ResetTimerCancel
ZDApp_ResetTimerStart SYMBOL "ZDApp_ResetTimerStart"
`??ZDApp_ResetTimerStart::?relay` SYMBOL "?relay", ZDApp_ResetTimerStart
ZDApp_RestoreNwkKey SYMBOL "ZDApp_RestoreNwkKey"
`??ZDApp_RestoreNwkKey::?relay` SYMBOL "?relay", ZDApp_RestoreNwkKey
ZDApp_SaveNetworkStateEvt SYMBOL "ZDApp_SaveNetworkStateEvt"
`??ZDApp_SaveNetworkStateEvt::?relay` SYMBOL "?relay", ZDApp_SaveNetworkStateEvt
ZDApp_SaveNwkKey    SYMBOL "ZDApp_SaveNwkKey"
`??ZDApp_SaveNwkKey::?relay` SYMBOL "?relay", ZDApp_SaveNwkKey
ZDApp_SecInit       SYMBOL "ZDApp_SecInit"
`??ZDApp_SecInit::?relay` SYMBOL "?relay", ZDApp_SecInit
ZDApp_SendEventMsg  SYMBOL "ZDApp_SendEventMsg"
`??ZDApp_SendEventMsg::?relay` SYMBOL "?relay", ZDApp_SendEventMsg
ZDApp_SendMsg       SYMBOL "ZDApp_SendMsg"
`??ZDApp_SendMsg::?relay` SYMBOL "?relay", ZDApp_SendMsg
ZDApp_SendParentAnnce SYMBOL "ZDApp_SendParentAnnce"
`??ZDApp_SendParentAnnce::?relay` SYMBOL "?relay", ZDApp_SendParentAnnce
ZDApp_SetParentAnnceTimer SYMBOL "ZDApp_SetParentAnnceTimer"
`??ZDApp_SetParentAnnceTimer::?relay` SYMBOL "?relay", ZDApp_SetParentAnnceTimer
ZDApp_SetPendingBindDefault SYMBOL "ZDApp_SetPendingBindDefault"
`??ZDApp_SetPendingBindDefault::?relay` SYMBOL "?relay", ZDApp_SetPendingBindDefault
ZDApp_SetRejoinBackoffDuration SYMBOL "ZDApp_SetRejoinBackoffDuration"
`??ZDApp_SetRejoinBackoffDuration::?relay` SYMBOL "?relay", ZDApp_SetRejoinBackoffDuration
ZDApp_SetRejoinScanDuration SYMBOL "ZDApp_SetRejoinScanDuration"
`??ZDApp_SetRejoinScanDuration::?relay` SYMBOL "?relay", ZDApp_SetRejoinScanDuration
ZDApp_StartJoiningCycle SYMBOL "ZDApp_StartJoiningCycle"
`??ZDApp_StartJoiningCycle::?relay` SYMBOL "?relay", ZDApp_StartJoiningCycle
ZDApp_StopJoiningCycle SYMBOL "ZDApp_StopJoiningCycle"
`??ZDApp_StopJoiningCycle::?relay` SYMBOL "?relay", ZDApp_StopJoiningCycle
ZDApp_event_loop    SYMBOL "ZDApp_event_loop"
`??ZDApp_event_loop::?relay` SYMBOL "?relay", ZDApp_event_loop
ZDOInitDevice       SYMBOL "ZDOInitDevice"
`??ZDOInitDevice::?relay` SYMBOL "?relay", ZDOInitDevice
ZDO_AddrChangeIndicationCB SYMBOL "ZDO_AddrChangeIndicationCB"
`??ZDO_AddrChangeIndicationCB::?relay` SYMBOL "?relay", ZDO_AddrChangeIndicationCB
ZDO_ConcentratorIndicationCB SYMBOL "ZDO_ConcentratorIndicationCB"
`??ZDO_ConcentratorIndicationCB::?relay` SYMBOL "?relay", ZDO_ConcentratorIndicationCB
ZDO_DeregisterForZdoCB SYMBOL "ZDO_DeregisterForZdoCB"
`??ZDO_DeregisterForZdoCB::?relay` SYMBOL "?relay", ZDO_DeregisterForZdoCB
ZDO_JoinConfirmCB   SYMBOL "ZDO_JoinConfirmCB"
`??ZDO_JoinConfirmCB::?relay` SYMBOL "?relay", ZDO_JoinConfirmCB
ZDO_JoinIndicationCB SYMBOL "ZDO_JoinIndicationCB"
`??ZDO_JoinIndicationCB::?relay` SYMBOL "?relay", ZDO_JoinIndicationCB
ZDO_LeaveCnf        SYMBOL "ZDO_LeaveCnf"
`??ZDO_LeaveCnf::?relay` SYMBOL "?relay", ZDO_LeaveCnf
ZDO_LeaveInd        SYMBOL "ZDO_LeaveInd"
`??ZDO_LeaveInd::?relay` SYMBOL "?relay", ZDO_LeaveInd
ZDO_ManytoOneFailureIndicationCB SYMBOL "ZDO_ManytoOneFailureIndicationCB"
`??ZDO_ManytoOneFailureIndicationCB::?relay` SYMBOL "?relay", ZDO_ManytoOneFailureIndicationCB
ZDO_NetworkDiscoveryConfirmCB SYMBOL "ZDO_NetworkDiscoveryConfirmCB"
`??ZDO_NetworkDiscoveryConfirmCB::?relay` SYMBOL "?relay", ZDO_NetworkDiscoveryConfirmCB
ZDO_NetworkFormationConfirmCB SYMBOL "ZDO_NetworkFormationConfirmCB"
`??ZDO_NetworkFormationConfirmCB::?relay` SYMBOL "?relay", ZDO_NetworkFormationConfirmCB
ZDO_NetworkStatusCB SYMBOL "ZDO_NetworkStatusCB"
`??ZDO_NetworkStatusCB::?relay` SYMBOL "?relay", ZDO_NetworkStatusCB
ZDO_PermitJoinCB    SYMBOL "ZDO_PermitJoinCB"
`??ZDO_PermitJoinCB::?relay` SYMBOL "?relay", ZDO_PermitJoinCB
ZDO_PollConfirmCB   SYMBOL "ZDO_PollConfirmCB"
`??ZDO_PollConfirmCB::?relay` SYMBOL "?relay", ZDO_PollConfirmCB
ZDO_RegisterForZdoCB SYMBOL "ZDO_RegisterForZdoCB"
`??ZDO_RegisterForZdoCB::?relay` SYMBOL "?relay", ZDO_RegisterForZdoCB
ZDO_SrcRtgIndCB     SYMBOL "ZDO_SrcRtgIndCB"
`??ZDO_SrcRtgIndCB::?relay` SYMBOL "?relay", ZDO_SrcRtgIndCB
ZDO_StartRouterConfirmCB SYMBOL "ZDO_StartRouterConfirmCB"
`??ZDO_StartRouterConfirmCB::?relay` SYMBOL "?relay", ZDO_StartRouterConfirmCB
ZDO_SyncIndicationCB SYMBOL "ZDO_SyncIndicationCB"
`??ZDO_SyncIndicationCB::?relay` SYMBOL "?relay", ZDO_SyncIndicationCB
ZDO_UpdateDeviceIndication SYMBOL "ZDO_UpdateDeviceIndication"
`??ZDO_UpdateDeviceIndication::?relay` SYMBOL "?relay", ZDO_UpdateDeviceIndication
ZDO_beaconNotifyIndCB SYMBOL "ZDO_beaconNotifyIndCB"
`??ZDO_beaconNotifyIndCB::?relay` SYMBOL "?relay", ZDO_beaconNotifyIndCB

        EXTERN `??APSME_BindRequest::?relay`
        FUNCTION `??APSME_BindRequest::?relay`,00H
        EXTERN `??APSME_HoldDataRequests::?relay`
        FUNCTION `??APSME_HoldDataRequests::?relay`,00H
        EXTERN `??AddrMgrEntryLookupExt::?relay`
        FUNCTION `??AddrMgrEntryLookupExt::?relay`,00H
        EXTERN `??AddrMgrEntryRelease::?relay`
        FUNCTION `??AddrMgrEntryRelease::?relay`,00H
        EXTERN `??AddrMgrExtAddrSet::?relay`
        FUNCTION `??AddrMgrExtAddrSet::?relay`,00H
        EXTERN `??AssocMakeListOfRfdChild::?relay`
        FUNCTION `??AssocMakeListOfRfdChild::?relay`,00H
        EXTERN `??HalKeyRead::?relay`
        FUNCTION `??HalKeyRead::?relay`,00H
        EXTERN `??HalLedBlink::?relay`
        FUNCTION `??HalLedBlink::?relay`,00H
        EXTERN `??HalLedSet::?relay`
        FUNCTION `??HalLedSet::?relay`,00H
        EXTERN `??NLME_GetCoordExtAddr::?relay`
        FUNCTION `??NLME_GetCoordExtAddr::?relay`,00H
        EXTERN `??NLME_GetCoordShortAddr::?relay`
        FUNCTION `??NLME_GetCoordShortAddr::?relay`,00H
        EXTERN `??NLME_GetEnergyThreshold::?relay`
        FUNCTION `??NLME_GetEnergyThreshold::?relay`,00H
        EXTERN `??NLME_GetExtAddr::?relay`
        FUNCTION `??NLME_GetExtAddr::?relay`,00H
        EXTERN `??NLME_GetShortAddr::?relay`
        FUNCTION `??NLME_GetShortAddr::?relay`,00H
        EXTERN `??NLME_JoinRequest::?relay`
        FUNCTION `??NLME_JoinRequest::?relay`,00H
        EXTERN `??NLME_LeaveRsp::?relay`
        FUNCTION `??NLME_LeaveRsp::?relay`,00H
        EXTERN `??NLME_NetworkDiscoveryRequest::?relay`
        FUNCTION `??NLME_NetworkDiscoveryRequest::?relay`,00H
        EXTERN `??NLME_NwkDiscTerm::?relay`
        FUNCTION `??NLME_NwkDiscTerm::?relay`,00H
        EXTERN `??NLME_ReJoinRequest::?relay`
        FUNCTION `??NLME_ReJoinRequest::?relay`,00H
        EXTERN `??NLME_ReJoinRequestUnsecure::?relay`
        FUNCTION `??NLME_ReJoinRequestUnsecure::?relay`,00H
        EXTERN `??NLME_SendEndDevTimeoutReq::?relay`
        FUNCTION `??NLME_SendEndDevTimeoutReq::?relay`,00H
        EXTERN `??NLME_SetBroadcastFilter::?relay`
        FUNCTION `??NLME_SetBroadcastFilter::?relay`,00H
        EXTERN `??NLME_SetEnergyThreshold::?relay`
        FUNCTION `??NLME_SetEnergyThreshold::?relay`,00H
        EXTERN `??NLME_SetPollRate::?relay`
        FUNCTION `??NLME_SetPollRate::?relay`,00H
        EXTERN `??NLME_SetQueuedPollRate::?relay`
        FUNCTION `??NLME_SetQueuedPollRate::?relay`,00H
        EXTERN `??NLME_SetResponseRate::?relay`
        FUNCTION `??NLME_SetResponseRate::?relay`,00H
        EXTERN `??RTG_MTORouteReq::?relay`
        FUNCTION `??RTG_MTORouteReq::?relay`,00H
        EXTERN `??RTG_RemoveRtgEntry::?relay`
        FUNCTION `??RTG_RemoveRtgEntry::?relay`,00H
        EXTERN `??SSP_ReadNwkActiveKey::?relay`
        FUNCTION `??SSP_ReadNwkActiveKey::?relay`,00H
        EXTERN `??SSP_SwitchNwkKey::?relay`
        FUNCTION `??SSP_SwitchNwkKey::?relay`,00H
        EXTERN `??SSP_UpdateNwkKey::?relay`
        FUNCTION `??SSP_UpdateNwkKey::?relay`,00H
        EXTERN `??ZDConfig_InitDescriptors::?relay`
        FUNCTION `??ZDConfig_InitDescriptors::?relay`,00H
        EXTERN `??ZDO_Init::?relay`
        FUNCTION `??ZDO_Init::?relay`,00H
        EXTERN `??ZDO_ParseAddrRsp::?relay`
        FUNCTION `??ZDO_ParseAddrRsp::?relay`,00H
        EXTERN `??ZDO_ParseBindUnbindReq::?relay`
        FUNCTION `??ZDO_ParseBindUnbindReq::?relay`,00H
        EXTERN `??ZDO_ProcessBindUnbindReq::?relay`
        FUNCTION `??ZDO_ProcessBindUnbindReq::?relay`,00H
        EXTERN `??ZDO_RegisterForZDOMsg::?relay`
        FUNCTION `??ZDO_RegisterForZDOMsg::?relay`,00H
        EXTERN `??ZDO_StartDevice::?relay`
        FUNCTION `??ZDO_StartDevice::?relay`,00H
        EXTERN `??ZDO_UpdateAddrManager::?relay`
        FUNCTION `??ZDO_UpdateAddrManager::?relay`,00H
        EXTERN `??ZDO_UpdateNwkStatus::?relay`
        FUNCTION `??ZDO_UpdateNwkStatus::?relay`,00H
        EXTERN `??ZDP_DeviceAnnce::?relay`
        FUNCTION `??ZDP_DeviceAnnce::?relay`,00H
        EXTERN `??ZDP_GenericRsp::?relay`
        FUNCTION `??ZDP_GenericRsp::?relay`,00H
        EXTERN `??ZDP_IncomingData::?relay`
        FUNCTION `??ZDP_IncomingData::?relay`,00H
        EXTERN `??ZDP_ParentAnnce::?relay`
        FUNCTION `??ZDP_ParentAnnce::?relay`,00H
        EXTERN `??ZDP_SendData::?relay`
        FUNCTION `??ZDP_SendData::?relay`,00H
        EXTERN `??ZDSecMgrAddrClear::?relay`
        FUNCTION `??ZDSecMgrAddrClear::?relay`,00H
        EXTERN `??ZDSecMgrDeviceRemoveByExtAddr::?relay`
        FUNCTION `??ZDSecMgrDeviceRemoveByExtAddr::?relay`,00H
        EXTERN `??ZDSecMgrInit::?relay`
        FUNCTION `??ZDSecMgrInit::?relay`,00H
        EXTERN `??ZDSecMgrReadKeyFromNv::?relay`
        FUNCTION `??ZDSecMgrReadKeyFromNv::?relay`,00H
        EXTERN `??ZDSecMgrSaveTCLinkKey::?relay`
        FUNCTION `??ZDSecMgrSaveTCLinkKey::?relay`,00H
        EXTERN `??ZDSecMgrSwitchKeyInd::?relay`
        FUNCTION `??ZDSecMgrSwitchKeyInd::?relay`,00H
        EXTERN `??ZDSecMgrTransportKeyInd::?relay`
        FUNCTION `??ZDSecMgrTransportKeyInd::?relay`,00H
        EXTERN `??ZMacSetReq::?relay`
        FUNCTION `??ZMacSetReq::?relay`,00H
        EXTERN `??afRegister::?relay`
        FUNCTION `??afRegister::?relay`,00H
        EXTERN `??afSetMatch::?relay`
        FUNCTION `??afSetMatch::?relay`,00H
        EXTERN `??nwkNeighborFindEmptySlot::?relay`
        FUNCTION `??nwkNeighborFindEmptySlot::?relay`,00H
        EXTERN `??nwkNeighborInitTable::?relay`
        FUNCTION `??nwkNeighborInitTable::?relay`,00H
        EXTERN `??nwkNeighborRemove::?relay`
        FUNCTION `??nwkNeighborRemove::?relay`,00H
        EXTERN `??nwk_ExtPANIDValid::?relay`
        FUNCTION `??nwk_ExtPANIDValid::?relay`,00H
        EXTERN `??nwk_desc_list_free::?relay`
        FUNCTION `??nwk_desc_list_free::?relay`,00H
        EXTERN `??nwk_getNwkDescList::?relay`
        FUNCTION `??nwk_getNwkDescList::?relay`,00H
        EXTERN `??osal_clear_event::?relay`
        FUNCTION `??osal_clear_event::?relay`,00H
        EXTERN `??osal_get_timeoutEx::?relay`
        FUNCTION `??osal_get_timeoutEx::?relay`,00H
        EXTERN `??osal_mem_alloc::?relay`
        FUNCTION `??osal_mem_alloc::?relay`,00H
        EXTERN `??osal_mem_free::?relay`
        FUNCTION `??osal_mem_free::?relay`,00H
        EXTERN `??osal_memcmp::?relay`
        FUNCTION `??osal_memcmp::?relay`,00H
        EXTERN `??osal_memcpy::?relay`
        FUNCTION `??osal_memcpy::?relay`,00H
        EXTERN `??osal_memset::?relay`
        FUNCTION `??osal_memset::?relay`,00H
        EXTERN `??osal_msg_allocate::?relay`
        FUNCTION `??osal_msg_allocate::?relay`,00H
        EXTERN `??osal_msg_deallocate::?relay`
        FUNCTION `??osal_msg_deallocate::?relay`,00H
        EXTERN `??osal_msg_receive::?relay`
        FUNCTION `??osal_msg_receive::?relay`,00H
        EXTERN `??osal_msg_send::?relay`
        FUNCTION `??osal_msg_send::?relay`,00H
        EXTERN `??osal_nv_item_init::?relay`
        FUNCTION `??osal_nv_item_init::?relay`,00H
        EXTERN `??osal_nv_read::?relay`
        FUNCTION `??osal_nv_read::?relay`,00H
        EXTERN `??osal_nv_write::?relay`
        FUNCTION `??osal_nv_write::?relay`,00H
        EXTERN `??osal_pwrmgr_device::?relay`
        FUNCTION `??osal_pwrmgr_device::?relay`,00H
        EXTERN `??osal_rand::?relay`
        FUNCTION `??osal_rand::?relay`,00H
        EXTERN `??osal_set_event::?relay`
        FUNCTION `??osal_set_event::?relay`,00H
        EXTERN `??osal_start_timerEx::?relay`
        FUNCTION `??osal_start_timerEx::?relay`,00H
        EXTERN `??osal_stop_timerEx::?relay`
        FUNCTION `??osal_stop_timerEx::?relay`,00H
        EXTERN `??sAddrExtCmp::?relay`
        FUNCTION `??sAddrExtCmp::?relay`,00H
        EXTERN `??sAddrExtCpy::?relay`
        FUNCTION `??sAddrExtCpy::?relay`,00H
        EXTERN `??zgInitItems::?relay`
        FUNCTION `??zgInitItems::?relay`,00H
        EXTERN `??zgReadStartupOptions::?relay`
        FUNCTION `??zgReadStartupOptions::?relay`,00H
        EXTERN `??zgWriteStartupOptions::?relay`
        FUNCTION `??zgWriteStartupOptions::?relay`,00H
        EXTERN AIB_apsUseExtendedPANID
        EXTERN AIB_apsUseInsecureJoin
        EXTERN APSME_BindRequest
        FUNCTION APSME_BindRequest,0202H
        ARGFRAME ISTACK, 0, STACK
        ARGFRAME PSTACK, 0, STACK
        ARGFRAME XSTACK, 17, STACK
        ARGFRAME IOVERLAY, 0, STATIC
        ARGFRAME DOVERLAY, 0, STATIC
        EXTERN APSME_HoldDataRequests
        FUNCTION APSME_HoldDataRequests,0202H
        ARGFRAME ISTACK, 0, STACK
        ARGFRAME PSTACK, 0, STACK
        ARGFRAME XSTACK, 18, STACK
        ARGFRAME IOVERLAY, 0, STATIC
        ARGFRAME DOVERLAY, 0, STATIC
        EXTERN AddrMgrEntryLookupExt
        FUNCTION AddrMgrEntryLookupExt,0202H
        ARGFRAME ISTACK, 0, STACK
        ARGFRAME PSTACK, 0, STACK
        ARGFRAME XSTACK, 26, STACK
        ARGFRAME IOVERLAY, 0, STATIC
        ARGFRAME DOVERLAY, 0, STATIC
        EXTERN AddrMgrEntryRelease
        FUNCTION AddrMgrEntryRelease,0202H
        ARGFRAME ISTACK, 0, STACK
        ARGFRAME PSTACK, 0, STACK
        ARGFRAME XSTACK, 26, STACK
        ARGFRAME IOVERLAY, 0, STATIC
        ARGFRAME DOVERLAY, 0, STATIC
        EXTERN AddrMgrExtAddrSet
        FUNCTION AddrMgrExtAddrSet,0202H
        ARGFRAME ISTACK, 0, STACK
        ARGFRAME PSTACK, 0, STACK
        ARGFRAME XSTACK, 26, STACK
        ARGFRAME IOVERLAY, 0, STATIC
        ARGFRAME DOVERLAY, 0, STATIC
        EXTERN AssocMakeListOfRfdChild
        FUNCTION AssocMakeListOfRfdChild,0202H
        ARGFRAME ISTACK, 0, STACK
        ARGFRAME PSTACK, 0, STACK
        ARGFRAME XSTACK, 22, STACK
        ARGFRAME IOVERLAY, 0, STATIC
        ARGFRAME DOVERLAY, 0, STATIC
        EXTERN HalKeyRead
        FUNCTION HalKeyRead,0202H
        ARGFRAME ISTACK, 2, STACK
        ARGFRAME PSTACK, 0, STACK
        ARGFRAME XSTACK, 0, STACK
        ARGFRAME IOVERLAY, 0, STATIC
        ARGFRAME DOVERLAY, 0, STATIC
        EXTERN HalLedBlink
        FUNCTION HalLedBlink,0202H
        ARGFRAME ISTACK, 0, STACK
        ARGFRAME PSTACK, 0, STACK
        ARGFRAME XSTACK, 9, STACK
        ARGFRAME IOVERLAY, 0, STATIC
        ARGFRAME DOVERLAY, 0, STATIC
        EXTERN HalLedSet
        FUNCTION HalLedSet,0202H
        ARGFRAME ISTACK, 0, STACK
        ARGFRAME PSTACK, 0, STACK
        ARGFRAME XSTACK, 17, STACK
        ARGFRAME IOVERLAY, 0, STATIC
        ARGFRAME DOVERLAY, 0, STATIC
        EXTERN NLME_GetCoordExtAddr
        FUNCTION NLME_GetCoordExtAddr,0202H
        ARGFRAME ISTACK, 0, STACK
        ARGFRAME PSTACK, 0, STACK
        ARGFRAME XSTACK, 18, STACK
        ARGFRAME IOVERLAY, 0, STATIC
        ARGFRAME DOVERLAY, 0, STATIC
        EXTERN NLME_GetCoordShortAddr
        FUNCTION NLME_GetCoordShortAddr,0202H
        ARGFRAME ISTACK, 0, STACK
        ARGFRAME PSTACK, 0, STACK
        ARGFRAME XSTACK, 18, STACK
        ARGFRAME IOVERLAY, 0, STATIC
        ARGFRAME DOVERLAY, 0, STATIC
        EXTERN NLME_GetEnergyThreshold
        FUNCTION NLME_GetEnergyThreshold,0202H
        ARGFRAME ISTACK, 2, STACK
        ARGFRAME PSTACK, 0, STACK
        ARGFRAME XSTACK, 0, STACK
        ARGFRAME IOVERLAY, 0, STATIC
        ARGFRAME DOVERLAY, 0, STATIC
        EXTERN NLME_GetExtAddr
        FUNCTION NLME_GetExtAddr,0202H
        ARGFRAME ISTACK, 0, STACK
        ARGFRAME PSTACK, 0, STACK
        ARGFRAME XSTACK, 18, STACK
        ARGFRAME IOVERLAY, 0, STATIC
        ARGFRAME DOVERLAY, 0, STATIC
        EXTERN NLME_GetShortAddr
        FUNCTION NLME_GetShortAddr,0202H
        ARGFRAME ISTACK, 2, STACK
        ARGFRAME PSTACK, 0, STACK
        ARGFRAME XSTACK, 18, STACK
        ARGFRAME IOVERLAY, 0, STATIC
        ARGFRAME DOVERLAY, 0, STATIC
        EXTERN NLME_JoinRequest
        FUNCTION NLME_JoinRequest,0202H
        ARGFRAME ISTACK, 0, STACK
        ARGFRAME PSTACK, 0, STACK
        ARGFRAME XSTACK, 19, STACK
        ARGFRAME IOVERLAY, 0, STATIC
        ARGFRAME DOVERLAY, 0, STATIC
        EXTERN NLME_LeaveRsp
        FUNCTION NLME_LeaveRsp,0202H
        ARGFRAME ISTACK, 0, STACK
        ARGFRAME PSTACK, 0, STACK
        ARGFRAME XSTACK, 14, STACK
        ARGFRAME IOVERLAY, 0, STATIC
        ARGFRAME DOVERLAY, 0, STATIC
        EXTERN NLME_NetworkDiscoveryRequest
        FUNCTION NLME_NetworkDiscoveryRequest,0202H
        ARGFRAME ISTACK, 0, STACK
        ARGFRAME PSTACK, 0, STACK
        ARGFRAME XSTACK, 12, STACK
        ARGFRAME IOVERLAY, 0, STATIC
        ARGFRAME DOVERLAY, 0, STATIC
        EXTERN NLME_NwkDiscTerm
        FUNCTION NLME_NwkDiscTerm,0202H
        ARGFRAME ISTACK, 0, STACK
        ARGFRAME PSTACK, 0, STACK
        ARGFRAME XSTACK, 14, STACK
        ARGFRAME IOVERLAY, 0, STATIC
        ARGFRAME DOVERLAY, 0, STATIC
        EXTERN NLME_ReJoinRequest
        FUNCTION NLME_ReJoinRequest,0202H
        ARGFRAME ISTACK, 0, STACK
        ARGFRAME PSTACK, 0, STACK
        ARGFRAME XSTACK, 15, STACK
        ARGFRAME IOVERLAY, 0, STATIC
        ARGFRAME DOVERLAY, 0, STATIC
        EXTERN NLME_ReJoinRequestUnsecure
        FUNCTION NLME_ReJoinRequestUnsecure,0202H
        ARGFRAME ISTACK, 0, STACK
        ARGFRAME PSTACK, 0, STACK
        ARGFRAME XSTACK, 15, STACK
        ARGFRAME IOVERLAY, 0, STATIC
        ARGFRAME DOVERLAY, 0, STATIC
        EXTERN NLME_SendEndDevTimeoutReq
        FUNCTION NLME_SendEndDevTimeoutReq,0202H
        ARGFRAME ISTACK, 0, STACK
        ARGFRAME PSTACK, 0, STACK
        ARGFRAME XSTACK, 19, STACK
        ARGFRAME IOVERLAY, 0, STATIC
        ARGFRAME DOVERLAY, 0, STATIC
        EXTERN NLME_SetBroadcastFilter
        FUNCTION NLME_SetBroadcastFilter,0202H
        ARGFRAME ISTACK, 0, STACK
        ARGFRAME PSTACK, 0, STACK
        ARGFRAME XSTACK, 12, STACK
        ARGFRAME IOVERLAY, 0, STATIC
        ARGFRAME DOVERLAY, 0, STATIC
        EXTERN NLME_SetEnergyThreshold
        FUNCTION NLME_SetEnergyThreshold,0202H
        ARGFRAME ISTACK, 2, STACK
        ARGFRAME PSTACK, 0, STACK
        ARGFRAME XSTACK, 0, STACK
        ARGFRAME IOVERLAY, 0, STATIC
        ARGFRAME DOVERLAY, 0, STATIC
        EXTERN NLME_SetPollRate
        FUNCTION NLME_SetPollRate,0202H
        ARGFRAME ISTACK, 2, STACK
        ARGFRAME PSTACK, 0, STACK
        ARGFRAME XSTACK, 15, STACK
        ARGFRAME IOVERLAY, 0, STATIC
        ARGFRAME DOVERLAY, 0, STATIC
        EXTERN NLME_SetQueuedPollRate
        FUNCTION NLME_SetQueuedPollRate,0202H
        ARGFRAME ISTACK, 0, STACK
        ARGFRAME PSTACK, 0, STACK
        ARGFRAME XSTACK, 15, STACK
        ARGFRAME IOVERLAY, 0, STATIC
        ARGFRAME DOVERLAY, 0, STATIC
        EXTERN NLME_SetResponseRate
        FUNCTION NLME_SetResponseRate,0202H
        ARGFRAME ISTACK, 0, STACK
        ARGFRAME PSTACK, 0, STACK
        ARGFRAME XSTACK, 15, STACK
        ARGFRAME IOVERLAY, 0, STATIC
        ARGFRAME DOVERLAY, 0, STATIC
        EXTERN NWK_TaskID
        EXTERN NwkDescList
        EXTERN Onboard_soft_reset
        FUNCTION Onboard_soft_reset,0202H
        ARGFRAME ISTACK, 0, STACK
        ARGFRAME PSTACK, 0, STACK
        ARGFRAME XSTACK, 14, STACK
        ARGFRAME IOVERLAY, 0, STATIC
        ARGFRAME DOVERLAY, 0, STATIC
        EXTERN RTG_MTORouteReq
        FUNCTION RTG_MTORouteReq,0202H
        ARGFRAME ISTACK, 2, STACK
        ARGFRAME PSTACK, 0, STACK
        ARGFRAME XSTACK, 0, STACK
        ARGFRAME IOVERLAY, 0, STATIC
        ARGFRAME DOVERLAY, 0, STATIC
        EXTERN RTG_RemoveRtgEntry
        FUNCTION RTG_RemoveRtgEntry,0202H
        ARGFRAME ISTACK, 0, STACK
        ARGFRAME PSTACK, 0, STACK
        ARGFRAME XSTACK, 24, STACK
        ARGFRAME IOVERLAY, 0, STATIC
        ARGFRAME DOVERLAY, 0, STATIC
        EXTERN SSP_ReadNwkActiveKey
        FUNCTION SSP_ReadNwkActiveKey,0202H
        ARGFRAME ISTACK, 0, STACK
        ARGFRAME PSTACK, 0, STACK
        ARGFRAME XSTACK, 31, STACK
        ARGFRAME IOVERLAY, 0, STATIC
        ARGFRAME DOVERLAY, 0, STATIC
        EXTERN SSP_SwitchNwkKey
        FUNCTION SSP_SwitchNwkKey,0202H
        ARGFRAME ISTACK, 0, STACK
        ARGFRAME PSTACK, 0, STACK
        ARGFRAME XSTACK, 25, STACK
        ARGFRAME IOVERLAY, 0, STATIC
        ARGFRAME DOVERLAY, 0, STATIC
        EXTERN SSP_UpdateNwkKey
        FUNCTION SSP_UpdateNwkKey,0202H
        ARGFRAME ISTACK, 0, STACK
        ARGFRAME PSTACK, 0, STACK
        ARGFRAME XSTACK, 25, STACK
        ARGFRAME IOVERLAY, 0, STATIC
        ARGFRAME DOVERLAY, 0, STATIC
        EXTERN ZDConfig_InitDescriptors
        FUNCTION ZDConfig_InitDescriptors,0202H
        ARGFRAME ISTACK, 0, STACK
        ARGFRAME PSTACK, 0, STACK
        ARGFRAME XSTACK, 12, STACK
        ARGFRAME IOVERLAY, 0, STATIC
        ARGFRAME DOVERLAY, 0, STATIC
        EXTERN ZDO_Config_Node_Descriptor
        EXTERN ZDO_Init
        FUNCTION ZDO_Init,0202H
        ARGFRAME ISTACK, 0, STACK
        ARGFRAME PSTACK, 0, STACK
        ARGFRAME XSTACK, 9, STACK
        ARGFRAME IOVERLAY, 0, STATIC
        ARGFRAME DOVERLAY, 0, STATIC
        EXTERN ZDO_ParseAddrRsp
        FUNCTION ZDO_ParseAddrRsp,0202H
        ARGFRAME ISTACK, 0, STACK
        ARGFRAME PSTACK, 0, STACK
        ARGFRAME XSTACK, 35, STACK
        ARGFRAME IOVERLAY, 0, STATIC
        ARGFRAME DOVERLAY, 0, STATIC
        EXTERN ZDO_ParseBindUnbindReq
        FUNCTION ZDO_ParseBindUnbindReq,0202H
        ARGFRAME ISTACK, 0, STACK
        ARGFRAME PSTACK, 0, STACK
        ARGFRAME XSTACK, 35, STACK
        ARGFRAME IOVERLAY, 0, STATIC
        ARGFRAME DOVERLAY, 0, STATIC
        EXTERN ZDO_ProcessBindUnbindReq
        FUNCTION ZDO_ProcessBindUnbindReq,0202H
        ARGFRAME ISTACK, 0, STACK
        ARGFRAME PSTACK, 0, STACK
        ARGFRAME XSTACK, 35, STACK
        ARGFRAME IOVERLAY, 0, STATIC
        ARGFRAME DOVERLAY, 0, STATIC
        EXTERN ZDO_RegisterForZDOMsg
        FUNCTION ZDO_RegisterForZDOMsg,0202H
        ARGFRAME ISTACK, 2, STACK
        ARGFRAME PSTACK, 0, STACK
        ARGFRAME XSTACK, 0, STACK
        ARGFRAME IOVERLAY, 0, STATIC
        ARGFRAME DOVERLAY, 0, STATIC
        EXTERN ZDO_StartDevice
        FUNCTION ZDO_StartDevice,0202H
        ARGFRAME ISTACK, 0, STACK
        ARGFRAME PSTACK, 0, STACK
        ARGFRAME XSTACK, 14, STACK
        ARGFRAME IOVERLAY, 0, STATIC
        ARGFRAME DOVERLAY, 0, STATIC
        EXTERN ZDO_UpdateAddrManager
        FUNCTION ZDO_UpdateAddrManager,0202H
        ARGFRAME ISTACK, 0, STACK
        ARGFRAME PSTACK, 0, STACK
        ARGFRAME XSTACK, 35, STACK
        ARGFRAME IOVERLAY, 0, STATIC
        ARGFRAME DOVERLAY, 0, STATIC
        EXTERN ZDO_UpdateNwkStatus
        FUNCTION ZDO_UpdateNwkStatus,0202H
        ARGFRAME ISTACK, 0, STACK
        ARGFRAME PSTACK, 0, STACK
        ARGFRAME XSTACK, 14, STACK
        ARGFRAME IOVERLAY, 0, STATIC
        ARGFRAME DOVERLAY, 0, STATIC
        EXTERN ZDP_DeviceAnnce
        FUNCTION ZDP_DeviceAnnce,0202H
        ARGFRAME ISTACK, 0, STACK
        ARGFRAME PSTACK, 0, STACK
        ARGFRAME XSTACK, 19, STACK
        ARGFRAME IOVERLAY, 0, STATIC
        ARGFRAME DOVERLAY, 0, STATIC
        EXTERN ZDP_GenericRsp
        FUNCTION ZDP_GenericRsp,0202H
        ARGFRAME ISTACK, 0, STACK
        ARGFRAME PSTACK, 0, STACK
        ARGFRAME XSTACK, 14, STACK
        ARGFRAME IOVERLAY, 0, STATIC
        ARGFRAME DOVERLAY, 0, STATIC
        EXTERN ZDP_IncomingData
        FUNCTION ZDP_IncomingData,0202H
        ARGFRAME ISTACK, 0, STACK
        ARGFRAME PSTACK, 0, STACK
        ARGFRAME XSTACK, 15, STACK
        ARGFRAME IOVERLAY, 0, STATIC
        ARGFRAME DOVERLAY, 0, STATIC
        EXTERN ZDP_ParentAnnce
        FUNCTION ZDP_ParentAnnce,0202H
        ARGFRAME ISTACK, 0, STACK
        ARGFRAME PSTACK, 0, STACK
        ARGFRAME XSTACK, 27, STACK
        ARGFRAME IOVERLAY, 0, STATIC
        ARGFRAME DOVERLAY, 0, STATIC
        EXTERN ZDP_SendData
        FUNCTION ZDP_SendData,0202H
        ARGFRAME ISTACK, 0, STACK
        ARGFRAME PSTACK, 0, STACK
        ARGFRAME XSTACK, 31, STACK
        ARGFRAME IOVERLAY, 0, STATIC
        ARGFRAME DOVERLAY, 0, STATIC
        EXTERN ZDP_TransID
        EXTERN ZDSecMgrAddrClear
        FUNCTION ZDSecMgrAddrClear,0202H
        ARGFRAME ISTACK, 0, STACK
        ARGFRAME PSTACK, 0, STACK
        ARGFRAME XSTACK, 24, STACK
        ARGFRAME IOVERLAY, 0, STATIC
        ARGFRAME DOVERLAY, 0, STATIC
        EXTERN ZDSecMgrDeviceRemoveByExtAddr
        FUNCTION ZDSecMgrDeviceRemoveByExtAddr,0202H
        ARGFRAME ISTACK, 0, STACK
        ARGFRAME PSTACK, 0, STACK
        ARGFRAME XSTACK, 24, STACK
        ARGFRAME IOVERLAY, 0, STATIC
        ARGFRAME DOVERLAY, 0, STATIC
        EXTERN ZDSecMgrInit
        FUNCTION ZDSecMgrInit,0202H
        ARGFRAME ISTACK, 0, STACK
        ARGFRAME PSTACK, 0, STACK
        ARGFRAME XSTACK, 25, STACK
        ARGFRAME IOVERLAY, 0, STATIC
        ARGFRAME DOVERLAY, 0, STATIC
        EXTERN ZDSecMgrReadKeyFromNv
        FUNCTION ZDSecMgrReadKeyFromNv,0202H
        ARGFRAME ISTACK, 0, STACK
        ARGFRAME PSTACK, 0, STACK
        ARGFRAME XSTACK, 25, STACK
        ARGFRAME IOVERLAY, 0, STATIC
        ARGFRAME DOVERLAY, 0, STATIC
        EXTERN ZDSecMgrSaveTCLinkKey
        FUNCTION ZDSecMgrSaveTCLinkKey,0202H
        ARGFRAME ISTACK, 0, STACK
        ARGFRAME PSTACK, 0, STACK
        ARGFRAME XSTACK, 9, STACK
        ARGFRAME IOVERLAY, 0, STATIC
        ARGFRAME DOVERLAY, 0, STATIC
        EXTERN ZDSecMgrSwitchKeyInd
        FUNCTION ZDSecMgrSwitchKeyInd,0202H
        ARGFRAME ISTACK, 2, STACK
        ARGFRAME PSTACK, 0, STACK
        ARGFRAME XSTACK, 0, STACK
        ARGFRAME IOVERLAY, 0, STATIC
        ARGFRAME DOVERLAY, 0, STATIC
        EXTERN ZDSecMgrTransportKeyInd
        FUNCTION ZDSecMgrTransportKeyInd,0202H
        ARGFRAME ISTACK, 2, STACK
        ARGFRAME PSTACK, 0, STACK
        ARGFRAME XSTACK, 0, STACK
        ARGFRAME IOVERLAY, 0, STATIC
        ARGFRAME DOVERLAY, 0, STATIC
        EXTERN ZMacSetReq
        FUNCTION ZMacSetReq,0202H
        ARGFRAME ISTACK, 0, STACK
        ARGFRAME PSTACK, 0, STACK
        ARGFRAME XSTACK, 15, STACK
        ARGFRAME IOVERLAY, 0, STATIC
        ARGFRAME DOVERLAY, 0, STATIC
        EXTERN _NIB
        EXTERN afRegister
        FUNCTION afRegister,0202H
        ARGFRAME ISTACK, 0, STACK
        ARGFRAME PSTACK, 0, STACK
        ARGFRAME XSTACK, 9, STACK
        ARGFRAME IOVERLAY, 0, STATIC
        ARGFRAME DOVERLAY, 0, STATIC
        EXTERN afSetMatch
        FUNCTION afSetMatch,0202H
        ARGFRAME ISTACK, 0, STACK
        ARGFRAME PSTACK, 0, STACK
        ARGFRAME XSTACK, 9, STACK
        ARGFRAME IOVERLAY, 0, STATIC
        ARGFRAME DOVERLAY, 0, STATIC
        EXTERN epList
        EXTERN gLINK_DOWN_TRIGGER
        EXTERN gMIN_TREE_LQI
        EXTERN nwkFrameCounter
        EXTERN nwkFrameCounterChanges
        EXTERN nwkNeighborFindEmptySlot
        FUNCTION nwkNeighborFindEmptySlot,0202H
        ARGFRAME ISTACK, 0, STACK
        ARGFRAME PSTACK, 0, STACK
        ARGFRAME XSTACK, 17, STACK
        ARGFRAME IOVERLAY, 0, STATIC
        ARGFRAME DOVERLAY, 0, STATIC
        EXTERN nwkNeighborInitTable
        FUNCTION nwkNeighborInitTable,0202H
        ARGFRAME ISTACK, 0, STACK
        ARGFRAME PSTACK, 0, STACK
        ARGFRAME XSTACK, 17, STACK
        ARGFRAME IOVERLAY, 0, STATIC
        ARGFRAME DOVERLAY, 0, STATIC
        EXTERN nwkNeighborRemove
        FUNCTION nwkNeighborRemove,0202H
        ARGFRAME ISTACK, 0, STACK
        ARGFRAME PSTACK, 0, STACK
        ARGFRAME XSTACK, 24, STACK
        ARGFRAME IOVERLAY, 0, STATIC
        ARGFRAME DOVERLAY, 0, STATIC
        EXTERN nwk_ExtPANIDValid
        FUNCTION nwk_ExtPANIDValid,0202H
        ARGFRAME ISTACK, 2, STACK
        ARGFRAME PSTACK, 0, STACK
        ARGFRAME XSTACK, 14, STACK
        ARGFRAME IOVERLAY, 0, STATIC
        ARGFRAME DOVERLAY, 0, STATIC
        EXTERN nwk_desc_list_free
        FUNCTION nwk_desc_list_free,0202H
        ARGFRAME ISTACK, 0, STACK
        ARGFRAME PSTACK, 0, STACK
        ARGFRAME XSTACK, 14, STACK
        ARGFRAME IOVERLAY, 0, STATIC
        ARGFRAME DOVERLAY, 0, STATIC
        EXTERN nwk_getNwkDescList
        FUNCTION nwk_getNwkDescList,0202H
        ARGFRAME ISTACK, 0, STACK
        ARGFRAME PSTACK, 0, STACK
        ARGFRAME XSTACK, 14, STACK
        ARGFRAME IOVERLAY, 0, STATIC
        ARGFRAME DOVERLAY, 0, STATIC
        EXTERN osal_clear_event
        FUNCTION osal_clear_event,0202H
        ARGFRAME ISTACK, 2, STACK
        ARGFRAME PSTACK, 0, STACK
        ARGFRAME XSTACK, 0, STACK
        ARGFRAME IOVERLAY, 0, STATIC
        ARGFRAME DOVERLAY, 0, STATIC
        EXTERN osal_get_timeoutEx
        FUNCTION osal_get_timeoutEx,0202H
        ARGFRAME ISTACK, 2, STACK
        ARGFRAME PSTACK, 0, STACK
        ARGFRAME XSTACK, 16, STACK
        ARGFRAME IOVERLAY, 0, STATIC
        ARGFRAME DOVERLAY, 0, STATIC
        EXTERN osal_mem_alloc
        FUNCTION osal_mem_alloc,0202H
        ARGFRAME ISTACK, 0, STACK
        ARGFRAME PSTACK, 0, STACK
        ARGFRAME XSTACK, 18, STACK
        ARGFRAME IOVERLAY, 0, STATIC
        ARGFRAME DOVERLAY, 0, STATIC
        EXTERN osal_mem_free
        FUNCTION osal_mem_free,0202H
        ARGFRAME ISTACK, 0, STACK
        ARGFRAME PSTACK, 0, STACK
        ARGFRAME XSTACK, 35, STACK
        ARGFRAME IOVERLAY, 0, STATIC
        ARGFRAME DOVERLAY, 0, STATIC
        EXTERN osal_memcmp
        FUNCTION osal_memcmp,0202H
        ARGFRAME ISTACK, 0, STACK
        ARGFRAME PSTACK, 0, STACK
        ARGFRAME XSTACK, 52, STACK
        ARGFRAME IOVERLAY, 0, STATIC
        ARGFRAME DOVERLAY, 0, STATIC
        EXTERN osal_memcpy
        FUNCTION osal_memcpy,0202H
        ARGFRAME ISTACK, 0, STACK
        ARGFRAME PSTACK, 0, STACK
        ARGFRAME XSTACK, 27, STACK
        ARGFRAME IOVERLAY, 0, STATIC
        ARGFRAME DOVERLAY, 0, STATIC
        EXTERN osal_memset
        FUNCTION osal_memset,0202H
        ARGFRAME ISTACK, 0, STACK
        ARGFRAME PSTACK, 0, STACK
        ARGFRAME XSTACK, 49, STACK
        ARGFRAME IOVERLAY, 0, STATIC
        ARGFRAME DOVERLAY, 0, STATIC
        EXTERN osal_msg_allocate
        FUNCTION osal_msg_allocate,0202H
        ARGFRAME ISTACK, 0, STACK
        ARGFRAME PSTACK, 0, STACK
        ARGFRAME XSTACK, 19, STACK
        ARGFRAME IOVERLAY, 0, STATIC
        ARGFRAME DOVERLAY, 0, STATIC
        EXTERN osal_msg_deallocate
        FUNCTION osal_msg_deallocate,0202H
        ARGFRAME ISTACK, 0, STACK
        ARGFRAME PSTACK, 0, STACK
        ARGFRAME XSTACK, 14, STACK
        ARGFRAME IOVERLAY, 0, STATIC
        ARGFRAME DOVERLAY, 0, STATIC
        EXTERN osal_msg_receive
        FUNCTION osal_msg_receive,0202H
        ARGFRAME ISTACK, 0, STACK
        ARGFRAME PSTACK, 0, STACK
        ARGFRAME XSTACK, 14, STACK
        ARGFRAME IOVERLAY, 0, STATIC
        ARGFRAME DOVERLAY, 0, STATIC
        EXTERN osal_msg_send
        FUNCTION osal_msg_send,0202H
        ARGFRAME ISTACK, 0, STACK
        ARGFRAME PSTACK, 0, STACK
        ARGFRAME XSTACK, 19, STACK
        ARGFRAME IOVERLAY, 0, STATIC
        ARGFRAME DOVERLAY, 0, STATIC
        EXTERN osal_nv_item_init
        FUNCTION osal_nv_item_init,0202H
        ARGFRAME ISTACK, 0, STACK
        ARGFRAME PSTACK, 0, STACK
        ARGFRAME XSTACK, 29, STACK
        ARGFRAME IOVERLAY, 0, STATIC
        ARGFRAME DOVERLAY, 0, STATIC
        EXTERN osal_nv_read
        FUNCTION osal_nv_read,0202H
        ARGFRAME ISTACK, 0, STACK
        ARGFRAME PSTACK, 0, STACK
        ARGFRAME XSTACK, 53, STACK
        ARGFRAME IOVERLAY, 0, STATIC
        ARGFRAME DOVERLAY, 0, STATIC
        EXTERN osal_nv_write
        FUNCTION osal_nv_write,0202H
        ARGFRAME ISTACK, 0, STACK
        ARGFRAME PSTACK, 0, STACK
        ARGFRAME XSTACK, 53, STACK
        ARGFRAME IOVERLAY, 0, STATIC
        ARGFRAME DOVERLAY, 0, STATIC
        EXTERN osal_pwrmgr_device
        FUNCTION osal_pwrmgr_device,0202H
        ARGFRAME ISTACK, 2, STACK
        ARGFRAME PSTACK, 0, STACK
        ARGFRAME XSTACK, 14, STACK
        ARGFRAME IOVERLAY, 0, STATIC
        ARGFRAME DOVERLAY, 0, STATIC
        EXTERN osal_rand
        FUNCTION osal_rand,0202H
        ARGFRAME ISTACK, 0, STACK
        ARGFRAME PSTACK, 0, STACK
        ARGFRAME XSTACK, 15, STACK
        ARGFRAME IOVERLAY, 0, STATIC
        ARGFRAME DOVERLAY, 0, STATIC
        EXTERN osal_set_event
        FUNCTION osal_set_event,0202H
        ARGFRAME ISTACK, 2, STACK
        ARGFRAME PSTACK, 0, STACK
        ARGFRAME XSTACK, 14, STACK
        ARGFRAME IOVERLAY, 0, STATIC
        ARGFRAME DOVERLAY, 0, STATIC
        EXTERN osal_start_timerEx
        FUNCTION osal_start_timerEx,0202H
        ARGFRAME ISTACK, 0, STACK
        ARGFRAME PSTACK, 0, STACK
        ARGFRAME XSTACK, 30, STACK
        ARGFRAME IOVERLAY, 0, STATIC
        ARGFRAME DOVERLAY, 0, STATIC
        EXTERN osal_stop_timerEx
        FUNCTION osal_stop_timerEx,0202H
        ARGFRAME ISTACK, 2, STACK
        ARGFRAME PSTACK, 0, STACK
        ARGFRAME XSTACK, 26, STACK
        ARGFRAME IOVERLAY, 0, STATIC
        ARGFRAME DOVERLAY, 0, STATIC
        EXTERN pbindRemoveDev
        EXTERN sAddrExtCmp
        FUNCTION sAddrExtCmp,0202H
        ARGFRAME ISTACK, 0, STACK
        ARGFRAME PSTACK, 0, STACK
        ARGFRAME XSTACK, 14, STACK
        ARGFRAME IOVERLAY, 0, STATIC
        ARGFRAME DOVERLAY, 0, STATIC
        EXTERN sAddrExtCpy
        FUNCTION sAddrExtCpy,0202H
        ARGFRAME ISTACK, 0, STACK
        ARGFRAME PSTACK, 0, STACK
        ARGFRAME XSTACK, 18, STACK
        ARGFRAME IOVERLAY, 0, STATIC
        ARGFRAME DOVERLAY, 0, STATIC
        EXTERN savedQueuedPollRate
        EXTERN savedResponseRate
        EXTERN zgChildAgingEnable
        EXTERN zgConcentratorDiscoveryTime
        EXTERN zgConcentratorEnable
        EXTERN zgConfigPANID
        EXTERN zgDefaultChannelList
        EXTERN zgDefaultRejoinBackoff
        EXTERN zgDefaultRejoinScan
        EXTERN zgDefaultStartingScanDuration
        EXTERN zgDeviceLogicalType
        EXTERN zgEndDeviceConfiguration
        EXTERN zgEndDeviceTimeoutValue
        EXTERN zgInitItems
        FUNCTION zgInitItems,0202H
        ARGFRAME ISTACK, 0, STACK
        ARGFRAME PSTACK, 0, STACK
        ARGFRAME XSTACK, 12, STACK
        ARGFRAME IOVERLAY, 0, STATIC
        ARGFRAME DOVERLAY, 0, STATIC
        EXTERN zgPollRate
        EXTERN zgPreConfigKeys
        EXTERN zgQueuedPollRate
        EXTERN zgReadStartupOptions
        FUNCTION zgReadStartupOptions,0202H
        ARGFRAME ISTACK, 0, STACK
        ARGFRAME PSTACK, 0, STACK
        ARGFRAME XSTACK, 9, STACK
        ARGFRAME IOVERLAY, 0, STATIC
        ARGFRAME DOVERLAY, 0, STATIC
        EXTERN zgRejoinPollRate
        EXTERN zgResponsePollRate
        EXTERN zgSecurityMode
        EXTERN zgStackProfile
        EXTERN zgWriteStartupOptions
        FUNCTION zgWriteStartupOptions,0202H
        ARGFRAME ISTACK, 0, STACK
        ARGFRAME PSTACK, 0, STACK
        ARGFRAME XSTACK, 14, STACK
        ARGFRAME IOVERLAY, 0, STATIC
        ARGFRAME DOVERLAY, 0, STATIC

// C:\Users\Sears\Documents\GitHub\Z-Stack-Home-1.2.2.42930\Components\stack\zdo\ZDApp.c
//    1 /**************************************************************************************************
//    2   Filename:       ZDApp.c
//    3   Revised:        $Date: 2015-02-18 17:35:22 -0800 (Wed, 18 Feb 2015) $
//    4   Revision:       $Revision: 42773 $
//    5 
//    6   Description:    This file contains the interface to the Zigbee Device Application. This is the
//    7                   Application part that the user can change. This also contains the Task functions.
//    8 
//    9 
//   10   Copyright 2004-2015 Texas Instruments Incorporated. All rights reserved.
//   11 
//   12   IMPORTANT: Your use of this Software is limited to those specific rights
//   13   granted under the terms of a software license agreement between the user
//   14   who downloaded the software, his/her employer (which must be your employer)
//   15   and Texas Instruments Incorporated (the "License"). You may not use this
//   16   Software unless you agree to abide by the terms of the License. The License
//   17   limits your use, and you acknowledge, that the Software may not be modified,
//   18   copied or distributed unless embedded on a Texas Instruments microcontroller
//   19   or used solely and exclusively in conjunction with a Texas Instruments radio
//   20   frequency transceiver, which is integrated into your product. Other than for
//   21   the foregoing purpose, you may not use, reproduce, copy, prepare derivative
//   22   works of, modify, distribute, perform, display or sell this Software and/or
//   23   its documentation for any purpose.
//   24 
//   25   YOU FURTHER ACKNOWLEDGE AND AGREE THAT THE SOFTWARE AND DOCUMENTATION ARE
//   26   PROVIDED "AS IS" WITHOUT WARRANTY OF ANY KIND, EITHER EXPRESS OR IMPLIED,
//   27   INCLUDING WITHOUT LIMITATION, ANY WARRANTY OF MERCHANTABILITY, TITLE,
//   28   NON-INFRINGEMENT AND FITNESS FOR A PARTICULAR PURPOSE. IN NO EVENT SHALL
//   29   TEXAS INSTRUMENTS OR ITS LICENSORS BE LIABLE OR OBLIGATED UNDER CONTRACT,
//   30   NEGLIGENCE, STRICT LIABILITY, CONTRIBUTION, BREACH OF WARRANTY, OR OTHER
//   31   LEGAL EQUITABLE THEORY ANY DIRECT OR INDIRECT DAMAGES OR EXPENSES
//   32   INCLUDING BUT NOT LIMITED TO ANY INCIDENTAL, SPECIAL, INDIRECT, PUNITIVE
//   33   OR CONSEQUENTIAL DAMAGES, LOST PROFITS OR LOST DATA, COST OF PROCUREMENT
//   34   OF SUBSTITUTE GOODS, TECHNOLOGY, SERVICES, OR ANY CLAIMS BY THIRD PARTIES
//   35   (INCLUDING BUT NOT LIMITED TO ANY DEFENSE THEREOF), OR OTHER SIMILAR COSTS.
//   36 
//   37   Should you have any questions regarding your right to use this Software,
//   38   contact Texas Instruments Incorporated at www.TI.com.
//   39 **************************************************************************************************/
//   40 
//   41 /*********************************************************************
//   42  * INCLUDES
//   43  */
//   44 
//   45 #include "ZComDef.h"
//   46 #include "ZMAC.h"
//   47 #include "OSAL.h"
//   48 #include "OSAL_Tasks.h"
//   49 #include "OSAL_PwrMgr.h"
//   50 #include "OSAL_Nv.h"
//   51 #include "AF.h"
//   52 #include "APSMEDE.h"
//   53 #include "NLMEDE.h"
//   54 #include "AddrMgr.h"
//   55 #include "ZDProfile.h"
//   56 #include "ZDObject.h"
//   57 #include "ZDConfig.h"
//   58 #include "ZDSecMgr.h"
//   59 #include "ZDApp.h"
//   60 #include "DebugTrace.h"
//   61 #include "nwk_util.h"
//   62 #include "OnBoard.h"
//   63 #include "ZGlobals.h"
//   64 #include "ZDNwkMgr.h"
//   65 #include "rtg.h"
//   66 
//   67 #include "ssp.h"
//   68 
//   69 /* HAL */
//   70 #include "hal_led.h"
//   71 #include "hal_lcd.h"
//   72 #include "hal_key.h"
//   73 
//   74 #if defined( MT_MAC_FUNC ) || defined( MT_MAC_CB_FUNC )
//   75   #error "ERROR! MT_MAC functionalities should be disabled on ZDO devices"
//   76 #endif
//   77 
//   78 /*********************************************************************
//   79  * CONSTANTS
//   80  */
//   81 
//   82 #if !defined( NWK_START_DELAY )
//   83   #define NWK_START_DELAY             100   // in milliseconds
//   84 #endif
//   85 
//   86 #if !defined( LEAVE_RESET_DELAY )
//   87   #define LEAVE_RESET_DELAY           5000  // in milliseconds
//   88 #endif
//   89 
//   90 // Init ZDO, but hold and wait for application to start the joining or
//   91 // forming network
//   92 #define ZDO_INIT_HOLD_NWK_START       0xFFFF
//   93 
//   94 #if !defined( EXTENDED_JOINING_RANDOM_MASK )
//   95   #define EXTENDED_JOINING_RANDOM_MASK 0x007F
//   96 #endif
//   97 
//   98 #if !defined( BEACON_REQUEST_DELAY )
//   99   #define BEACON_REQUEST_DELAY        100   // in milliseconds
//  100 #endif
//  101 
//  102 #if !defined( BEACON_REQ_DELAY_MASK )
//  103   #define BEACON_REQ_DELAY_MASK       0x007F
//  104 #endif
//  105 
//  106 #define MAX_RESUME_RETRY            3
//  107 
//  108 #define MAX_DEVICE_UNAUTH_TIMEOUT   10000  // 10 seconds
//  109 
//  110 // Beacon Order Settings (see NLMEDE.h)
//  111 #define DEFAULT_BEACON_ORDER        BEACON_ORDER_NO_BEACONS
//  112 #define DEFAULT_SUPERFRAME_ORDER    DEFAULT_BEACON_ORDER
//  113 
//  114 #if !defined( NWK_FRAMECOUNTER_CHANGES_RESTORE_DELTA )
//  115 // Additional counts to add to the frame counter when restoring from NV
//  116 // This amount is in addition to MAX_NWK_FRAMECOUNTER_CHANGES
//  117 #define NWK_FRAMECOUNTER_CHANGES_RESTORE_DELTA    250
//  118 #endif
//  119 
//  120 // Leave control bits
//  121 #define ZDAPP_LEAVE_CTRL_INIT 0
//  122 #define ZDAPP_LEAVE_CTRL_SET  1
//  123 #define ZDAPP_LEAVE_CTRL_RA   2
//  124 
//  125 // Address Manager Stub Implementation
//  126 #define ZDApp_NwkWriteNVRequest AddrMgrWriteNVRequest
//  127 
//  128 
//  129 #if !defined ZDO_NV_SAVE_RFDs
//  130 #define ZDO_NV_SAVE_RFDs  TRUE
//  131 #endif
//  132 
//  133 // Delay time before updating NWK NV data to force fewer writes during high activity.
//  134 #if ZDO_NV_SAVE_RFDs
//  135 #define ZDAPP_UPDATE_NWK_NV_TIME 700
//  136 #else
//  137 #define ZDAPP_UPDATE_NWK_NV_TIME 65000
//  138 #endif
//  139 
//  140 // Timeout value to process New Devices
//  141 #define ZDAPP_NEW_DEVICE_TIME     600   // in ms
//  142 
//  143 #if !defined ( ZDP_BIND_SKIP_VALIDATION )
//  144 #if !defined MAX_PENDING_BIND_REQ
//  145 #define MAX_PENDING_BIND_REQ 3
//  146 #endif
//  147 #endif
//  148 
//  149 /******************************************************************************
//  150  * TYPEDEFS
//  151  */
//  152 typedef struct
//  153 {
//  154   void   *next;
//  155   uint16 shortAddr;
//  156   uint16 timeDelta;
//  157 } ZDAppNewDevice_t;
//  158 
//  159 /*********************************************************************
//  160  * GLOBAL VARIABLES
//  161  */
//  162 
//  163 #if defined( LCD_SUPPORTED )

        RSEG XDATA_Z:XDATA:NOROOT(0)
        DATA8
//  164   uint8 MatchRsps = 0;
MatchRsps:
        DS 1
        REQUIRE __INIT_XDATA_Z
//  165 #endif
//  166 

        RSEG XDATA_I:XDATA:NOROOT(0)
//  167 uint8 zdoDiscCounter = 1;
zdoDiscCounter:
        DATA8
        DS 1
        REQUIRE `?<Initializer for zdoDiscCounter>`
        REQUIRE __INIT_XDATA_I
//  168 

        RSEG XDATA_Z:XDATA:NOROOT(0)
        DATA8
//  169 zAddrType_t ZDAppNwkAddr;
ZDAppNwkAddr:
        DS 9
        REQUIRE __INIT_XDATA_Z
//  170 

        RSEG XDATA_Z:XDATA:NOROOT(0)
        DATA8
//  171 uint8 zdappMgmtNwkDiscRspTransSeq;
zdappMgmtNwkDiscRspTransSeq:
        DS 1
        REQUIRE __INIT_XDATA_Z

        RSEG XDATA_Z:XDATA:NOROOT(0)
        DATA8
//  172 uint8 zdappMgmtNwkDiscReqInProgress = FALSE;
zdappMgmtNwkDiscReqInProgress:
        DS 1
        REQUIRE __INIT_XDATA_Z

        RSEG XDATA_Z:XDATA:NOROOT(0)
        DATA8
//  173 zAddrType_t zdappMgmtNwkDiscRspAddr;
zdappMgmtNwkDiscRspAddr:
        DS 9
        REQUIRE __INIT_XDATA_Z

        RSEG XDATA_Z:XDATA:NOROOT(0)
        DATA8
//  174 uint8 zdappMgmtNwkDiscStartIndex;
zdappMgmtNwkDiscStartIndex:
        DS 1
        REQUIRE __INIT_XDATA_Z

        RSEG XDATA_Z:XDATA:NOROOT(0)
        DATA8
//  175 uint8 zdappMgmtSavedNwkState;
zdappMgmtSavedNwkState:
        DS 1
        REQUIRE __INIT_XDATA_Z
//  176 

        RSEG XDATA_I:XDATA:NOROOT(0)
//  177 uint8 continueJoining = TRUE;
continueJoining:
        DATA8
        DS 1
        REQUIRE `?<Initializer for continueJoining>`
        REQUIRE __INIT_XDATA_I
//  178 

        RSEG XDATA_Z:XDATA:NOROOT(0)
        DATA8
//  179 uint8  _tmpRejoinState;
_tmpRejoinState:
        DS 1
        REQUIRE __INIT_XDATA_Z
//  180 
//  181 // The extended PanID used in ZDO layer for rejoin.

        RSEG XDATA_Z:XDATA:NOROOT(0)
        DATA8
//  182 uint8 ZDO_UseExtendedPANID[Z_EXTADDR_LEN];
ZDO_UseExtendedPANID:
        DS 8
        REQUIRE __INIT_XDATA_Z
//  183 

        RSEG XDATA_Z:XDATA:NOROOT(0)
        DATA8
//  184 pfnZdoCb zdoCBFunc[MAX_ZDO_CB_FUNC];
zdoCBFunc:
        DS 18
        REQUIRE __INIT_XDATA_Z
//  185 
//  186 #if !defined ( ZDP_BIND_SKIP_VALIDATION )

        RSEG XDATA_Z:XDATA:NOROOT(0)
        DATA16
//  187 ZDO_PendingBindReq_t *ZDAppPendingBindReq = NULL;
ZDAppPendingBindReq:
        DS 2
        REQUIRE __INIT_XDATA_Z
//  188 #endif
//  189 

        RSEG XDATA_Z:XDATA:NOROOT(0)
        DATA32
//  190 uint32 runtimeChannel;
runtimeChannel:
        DS 4
        REQUIRE __INIT_XDATA_Z
//  191 
//  192 /*********************************************************************
//  193  * EXTERNAL VARIABLES
//  194  */
//  195 
//  196 /*********************************************************************
//  197  * EXTERNAL FUNCTIONS
//  198  */
//  199 
//  200 /*********************************************************************
//  201  * LOCAL FUNCTIONS
//  202  */
//  203 
//  204 void ZDApp_NetworkStartEvt( void );
//  205 void ZDApp_DeviceAuthEvt( void );
//  206 void ZDApp_SaveNetworkStateEvt( void );
//  207 
//  208 uint8 ZDApp_ReadNetworkRestoreState( void );
//  209 uint8 ZDApp_RestoreNetworkState( void );
//  210 void ZDAppDetermineDeviceType( void );
//  211 void ZDApp_InitUserDesc( void );
//  212 void ZDAppCheckForHoldKey( void );
//  213 void ZDApp_ProcessOSALMsg( osal_event_hdr_t *msgPtr );
//  214 void ZDApp_ProcessNetworkJoin( void );
//  215 void ZDApp_SetCoordAddress( uint8 endPoint, uint8 dstEP );
//  216 uint8 ZDApp_RestoreNwkKey( uint8 incrFrmCnt );
//  217 networkDesc_t* ZDApp_NwkDescListProcessing(void);
//  218 
//  219 void ZDApp_SecInit( uint8 state );
//  220 UINT16 ZDApp_ProcessSecEvent( uint8 task_id, UINT16 events );
//  221 void ZDApp_ProcessSecMsg( osal_event_hdr_t *msgPtr );
//  222 
//  223 void ZDApp_SendMsg( uint8 taskID, uint8 cmd, uint8 len, uint8 *buf );
//  224 
//  225 void ZDApp_ResetTimerStart( uint16 delay );
//  226 void ZDApp_ResetTimerCancel( void );
//  227 void ZDApp_LeaveCtrlInit( void );
//  228 void ZDApp_LeaveCtrlSet( uint8 ra );
//  229 uint8 ZDApp_LeaveCtrlBypass( void );
//  230 void ZDApp_LeaveCtrlStartup( devStates_t* state, uint16* startDelay );
//  231 void ZDApp_LeaveUpdate( uint16 nwkAddr, uint8* extAddr,
//  232                         uint8 removeChildren );
//  233 void ZDApp_NodeProfileSync( uint8 stackProfile );
//  234 void ZDApp_ProcessMsgCBs( zdoIncomingMsg_t *inMsg );
//  235 void ZDApp_RegisterCBs( void );
//  236 void ZDApp_InitZdoCBFunc(void);
//  237 #if !defined ( ZDP_BIND_SKIP_VALIDATION )
//  238 void ZDApp_SetPendingBindDefault( ZDO_PendingBindReq_t *pendBindReq );
//  239 void ZDApp_InitPendingBind( void );
//  240 void ZDApp_ProcessPendingBindReq( uint8 *extAddr );
//  241 void ZDApp_AgeOutPendingBindEntry( void );
//  242 #endif
//  243 
//  244 void ZDApp_SetParentAnnceTimer( void );
//  245 
//  246 /*********************************************************************
//  247  * LOCAL VARIABLES
//  248  */
//  249 

        RSEG XDATA_Z:XDATA:NOROOT(0)
        DATA8
//  250 uint8 ZDAppTaskID;
ZDAppTaskID:
        DS 1
        REQUIRE __INIT_XDATA_Z

        RSEG XDATA_Z:XDATA:NOROOT(0)
        DATA8
//  251 uint8 nwkStatus;
nwkStatus:
        DS 1
        REQUIRE __INIT_XDATA_Z

        RSEG XDATA_Z:XDATA:NOROOT(0)
        DATA16
//  252 endPointDesc_t *ZDApp_AutoFindMode_epDesc = (endPointDesc_t *)NULL;
ZDApp_AutoFindMode_epDesc:
        DS 2
        REQUIRE __INIT_XDATA_Z

        RSEG XDATA_Z:XDATA:NOROOT(0)
        DATA8
//  253 uint8 ZDApp_LeaveCtrl;
ZDApp_LeaveCtrl:
        DS 1
        REQUIRE __INIT_XDATA_Z
//  254 
//  255 #if defined( HOLD_AUTO_START )
//  256   devStates_t devState = DEV_HOLD;
//  257 #else

        RSEG XDATA_I:XDATA:NOROOT(0)
//  258   devStates_t devState = DEV_INIT;
devState:
        DATA8
        DS 1
        REQUIRE `?<Initializer for devState>`
        REQUIRE __INIT_XDATA_I
//  259 #endif
//  260 
//  261 // previous rejoin state

        RSEG XDATA_I:XDATA:NOROOT(0)
//  262   devStates_t prevDevState = DEV_NWK_SEC_REJOIN_CURR_CHANNEL;
prevDevState:
        DATA8
        DS 1
        REQUIRE `?<Initializer for prevDevState>`
        REQUIRE __INIT_XDATA_I
//  263 
//  264 #if ( ZG_BUILD_RTRONLY_TYPE ) || ( ZG_BUILD_ENDDEVICE_TYPE )

        RSEG XDATA_Z:XDATA:NOROOT(0)
        DATA8
//  265   devStartModes_t devStartMode = MODE_JOIN;     // Assume joining
devStartMode:
        DS 1
        REQUIRE __INIT_XDATA_Z
//  266   //devStartModes_t devStartMode = MODE_RESUME; // if already "directly joined"
//  267                         // to parent. Set to make the device do an Orphan scan.
//  268 #else
//  269   // Set the default to coodinator
//  270   devStartModes_t devStartMode = MODE_HARD;
//  271 #endif
//  272 

        RSEG XDATA_Z:XDATA:NOROOT(0)
        DATA8
//  273 uint8 retryCnt;
retryCnt:
        DS 1
        REQUIRE __INIT_XDATA_Z
//  274 

        RSEG XDATA_I:XDATA:NOROOT(0)
//  275 endPointDesc_t ZDApp_epDesc =
ZDApp_epDesc:
        DATA8
        DS 6
        REQUIRE `?<Initializer for ZDApp_epDesc>`
        REQUIRE __INIT_XDATA_I
//  276 {
//  277   ZDO_EP,
//  278   &ZDAppTaskID,
//  279   (SimpleDescriptionFormat_t *)NULL,  // No Simple description for ZDO
//  280   (afNetworkLatencyReq_t)0            // No Network Latency req
//  281 };
//  282 

        RSEG XDATA_I:XDATA:NOROOT(0)
//  283 uint32 ZDApp_SavedPollRate = POLL_RATE;
ZDApp_SavedPollRate:
        DATA32
        DS 4
        REQUIRE `?<Initializer for ZDApp_SavedPollRate>`
        REQUIRE __INIT_XDATA_I
//  284 

        RSEG XDATA_Z:XDATA:NOROOT(0)
        DATA16
//  285 ZDAppNewDevice_t *ZDApp_NewDeviceList = NULL;
ZDApp_NewDeviceList:
        DS 2
        REQUIRE __INIT_XDATA_Z
//  286 
//  287 /* "Hold Key" status saved during ZDAppCheckForHoldKey() */

        RSEG XDATA_Z:XDATA:NOROOT(0)
        DATA8
//  288 static uint8 zdappHoldKeys;
zdappHoldKeys:
        DS 1
        REQUIRE __INIT_XDATA_Z
//  289 
//  290 /*********************************************************************
//  291  * @fn      ZDApp_Init
//  292  *
//  293  * @brief   ZDApp Initialization function.
//  294  *
//  295  * @param   task_id - ZDApp Task ID
//  296  *
//  297  * @return  None
//  298  */

        RSEG BANKED_CODE:CODE:NOROOT(0)
//  299 void ZDApp_Init( uint8 task_id )
ZDApp_Init:
          CFI Block cfiBlock0 Using cfiCommon0
          CFI Function ZDApp_Init
        CODE
//  300 {
        FUNCALL ZDApp_Init, NLME_GetExtAddr
        LOCFRAME ISTACK, 0, STACK
        LOCFRAME PSTACK, 0, STACK
        LOCFRAME XSTACK, 9, STACK
        LOCFRAME IOVERLAY, 0, STATIC
        LOCFRAME DOVERLAY, 0, STATIC
        ARGFRAME ISTACK, 0, STACK
        ARGFRAME PSTACK, 0, STACK
        ARGFRAME XSTACK, 9, STACK
        ARGFRAME IOVERLAY, 0, STATIC
        ARGFRAME DOVERLAY, 0, STATIC
        FUNCALL ZDApp_Init, ZDAppCheckForHoldKey
        LOCFRAME ISTACK, 0, STACK
        LOCFRAME PSTACK, 0, STACK
        LOCFRAME XSTACK, 9, STACK
        LOCFRAME IOVERLAY, 0, STATIC
        LOCFRAME DOVERLAY, 0, STATIC
        ARGFRAME ISTACK, 0, STACK
        ARGFRAME PSTACK, 0, STACK
        ARGFRAME XSTACK, 9, STACK
        ARGFRAME IOVERLAY, 0, STATIC
        ARGFRAME DOVERLAY, 0, STATIC
        FUNCALL ZDApp_Init, ZDO_Init
        LOCFRAME ISTACK, 0, STACK
        LOCFRAME PSTACK, 0, STACK
        LOCFRAME XSTACK, 9, STACK
        LOCFRAME IOVERLAY, 0, STATIC
        LOCFRAME DOVERLAY, 0, STATIC
        ARGFRAME ISTACK, 0, STACK
        ARGFRAME PSTACK, 0, STACK
        ARGFRAME XSTACK, 9, STACK
        ARGFRAME IOVERLAY, 0, STATIC
        ARGFRAME DOVERLAY, 0, STATIC
        FUNCALL ZDApp_Init, afRegister
        LOCFRAME ISTACK, 0, STACK
        LOCFRAME PSTACK, 0, STACK
        LOCFRAME XSTACK, 9, STACK
        LOCFRAME IOVERLAY, 0, STATIC
        LOCFRAME DOVERLAY, 0, STATIC
        ARGFRAME ISTACK, 0, STACK
        ARGFRAME PSTACK, 0, STACK
        ARGFRAME XSTACK, 9, STACK
        ARGFRAME IOVERLAY, 0, STATIC
        ARGFRAME DOVERLAY, 0, STATIC
        FUNCALL ZDApp_Init, ZDApp_InitUserDesc
        LOCFRAME ISTACK, 0, STACK
        LOCFRAME PSTACK, 0, STACK
        LOCFRAME XSTACK, 9, STACK
        LOCFRAME IOVERLAY, 0, STATIC
        LOCFRAME DOVERLAY, 0, STATIC
        ARGFRAME ISTACK, 0, STACK
        ARGFRAME PSTACK, 0, STACK
        ARGFRAME XSTACK, 9, STACK
        ARGFRAME IOVERLAY, 0, STATIC
        ARGFRAME DOVERLAY, 0, STATIC
        FUNCALL ZDApp_Init, ZDOInitDevice
        LOCFRAME ISTACK, 0, STACK
        LOCFRAME PSTACK, 0, STACK
        LOCFRAME XSTACK, 9, STACK
        LOCFRAME IOVERLAY, 0, STATIC
        LOCFRAME DOVERLAY, 0, STATIC
        ARGFRAME ISTACK, 0, STACK
        ARGFRAME PSTACK, 0, STACK
        ARGFRAME XSTACK, 9, STACK
        ARGFRAME IOVERLAY, 0, STATIC
        ARGFRAME DOVERLAY, 0, STATIC
        FUNCALL ZDApp_Init, ZDOInitDevice
        LOCFRAME ISTACK, 0, STACK
        LOCFRAME PSTACK, 0, STACK
        LOCFRAME XSTACK, 9, STACK
        LOCFRAME IOVERLAY, 0, STATIC
        LOCFRAME DOVERLAY, 0, STATIC
        ARGFRAME ISTACK, 0, STACK
        ARGFRAME PSTACK, 0, STACK
        ARGFRAME XSTACK, 9, STACK
        ARGFRAME IOVERLAY, 0, STATIC
        ARGFRAME DOVERLAY, 0, STATIC
        FUNCALL ZDApp_Init, HalLedBlink
        LOCFRAME ISTACK, 0, STACK
        LOCFRAME PSTACK, 0, STACK
        LOCFRAME XSTACK, 9, STACK
        LOCFRAME IOVERLAY, 0, STATIC
        LOCFRAME DOVERLAY, 0, STATIC
        ARGFRAME ISTACK, 0, STACK
        ARGFRAME PSTACK, 0, STACK
        ARGFRAME XSTACK, 9, STACK
        ARGFRAME IOVERLAY, 0, STATIC
        ARGFRAME DOVERLAY, 0, STATIC
        FUNCALL ZDApp_Init, ZDApp_InitZdoCBFunc
        LOCFRAME ISTACK, 0, STACK
        LOCFRAME PSTACK, 0, STACK
        LOCFRAME XSTACK, 9, STACK
        LOCFRAME IOVERLAY, 0, STATIC
        LOCFRAME DOVERLAY, 0, STATIC
        ARGFRAME ISTACK, 0, STACK
        ARGFRAME PSTACK, 0, STACK
        ARGFRAME XSTACK, 9, STACK
        ARGFRAME IOVERLAY, 0, STATIC
        ARGFRAME DOVERLAY, 0, STATIC
        FUNCALL ZDApp_Init, ZDApp_RegisterCBs
        LOCFRAME ISTACK, 0, STACK
        LOCFRAME PSTACK, 0, STACK
        LOCFRAME XSTACK, 9, STACK
        LOCFRAME IOVERLAY, 0, STATIC
        LOCFRAME DOVERLAY, 0, STATIC
        ARGFRAME ISTACK, 0, STACK
        ARGFRAME PSTACK, 0, STACK
        ARGFRAME XSTACK, 9, STACK
        ARGFRAME IOVERLAY, 0, STATIC
        ARGFRAME DOVERLAY, 0, STATIC
        FUNCALL ZDApp_Init, ZDApp_InitPendingBind
        LOCFRAME ISTACK, 0, STACK
        LOCFRAME PSTACK, 0, STACK
        LOCFRAME XSTACK, 9, STACK
        LOCFRAME IOVERLAY, 0, STATIC
        LOCFRAME DOVERLAY, 0, STATIC
        ARGFRAME ISTACK, 0, STACK
        ARGFRAME PSTACK, 0, STACK
        ARGFRAME XSTACK, 9, STACK
        ARGFRAME IOVERLAY, 0, STATIC
        ARGFRAME DOVERLAY, 0, STATIC
        MOV     A,#-0x9
        LCALL   ?BANKED_ENTER_XDATA
          CFI DPH0 load(1, XDATA, add(CFA_XSP16, literal(-1)))
          CFI DPL0 load(1, XDATA, add(CFA_XSP16, literal(-2)))
          CFI ?BRET_EXT load(1, XDATA, add(CFA_XSP16, literal(-3)))
          CFI ?RET_HIGH load(1, XDATA, add(CFA_XSP16, literal(-4)))
          CFI ?RET_LOW load(1, XDATA, add(CFA_XSP16, literal(-5)))
          CFI R7 load(1, XDATA, add(CFA_XSP16, literal(-6)))
          CFI V0 load(1, XDATA, add(CFA_XSP16, literal(-7)))
          CFI VB load(1, XDATA, add(CFA_XSP16, literal(-8)))
          CFI R6 load(1, XDATA, add(CFA_XSP16, literal(-9)))
          CFI CFA_SP SP+0
          CFI CFA_XSP16 add(XSP16, 9)
        ; Saved register size: 9
        ; Auto size: 0
        MOV     A,R1
//  301   // Save the task ID
//  302   ZDAppTaskID = task_id;
        MOV     DPTR,#ZDAppTaskID
        MOVX    @DPTR,A
//  303 
//  304   // Initialize the ZDO global device short address storage
//  305   ZDAppNwkAddr.addrMode = Addr16Bit;
        MOV     DPTR,#ZDAppNwkAddr + 8
        MOV     A,#0x2
        MOVX    @DPTR,A
//  306   ZDAppNwkAddr.addr.shortAddr = INVALID_NODE_ADDR;
        MOV     DPTR,#ZDAppNwkAddr
        MOV     A,#-0x2
        MOVX    @DPTR,A
        INC     DPTR
        INC     A
        MOVX    @DPTR,A
//  307   (void)NLME_GetExtAddr();  // Load the saveExtAddr pointer.
        ; Setup parameters for call to function NLME_GetExtAddr
        LCALL   `??NLME_GetExtAddr::?relay`; Banked call to: NLME_GetExtAddr
//  308 
//  309   // Check for manual "Hold Auto Start"
//  310   ZDAppCheckForHoldKey();
        ; Setup parameters for call to function ZDAppCheckForHoldKey
        LCALL   `??ZDAppCheckForHoldKey::?relay`; Banked call to: ZDAppCheckForHoldKey
//  311 
//  312   // Initialize ZDO items and setup the device - type of device to create.
//  313   ZDO_Init();
        ; Setup parameters for call to function ZDO_Init
        LCALL   `??ZDO_Init::?relay` ; Banked call to: ZDO_Init
//  314 
//  315   // Register the endpoint description with the AF
//  316   // This task doesn't have a Simple description, but we still need
//  317   // to register the endpoint.
//  318   afRegister( (endPointDesc_t *)&ZDApp_epDesc );
        ; Setup parameters for call to function afRegister
        MOV     R2,#ZDApp_epDesc & 0xff
        MOV     R3,#(ZDApp_epDesc >> 8) & 0xff
        LCALL   `??afRegister::?relay`; Banked call to: afRegister
//  319 
//  320 #if defined( ZDO_USERDESC_RESPONSE )
//  321   ZDApp_InitUserDesc();
        ; Setup parameters for call to function ZDApp_InitUserDesc
        LCALL   `??ZDApp_InitUserDesc::?relay`; Banked call to: ZDApp_InitUserDesc
//  322 #endif // ZDO_USERDESC_RESPONSE
//  323 
//  324   // Start the device?
//  325   if ( devState != DEV_HOLD )
        MOV     DPTR,#devState
        MOVX    A,@DPTR
        JZ      ??ZDApp_Init_0
//  326   {
//  327     ZDOInitDevice( 0 );
        ; Setup parameters for call to function ZDOInitDevice
        MOV     R2,#0x0
        MOV     R3,#0x0
        LCALL   `??ZDOInitDevice::?relay`; Banked call to: ZDOInitDevice
        SJMP    ??ZDApp_Init_1
//  328   }
//  329   else
//  330   {
//  331     ZDOInitDevice( ZDO_INIT_HOLD_NWK_START );
??ZDApp_Init_0:
        ; Setup parameters for call to function ZDOInitDevice
        MOV     R2,#-0x1
        MOV     R3,#-0x1
        LCALL   `??ZDOInitDevice::?relay`; Banked call to: ZDOInitDevice
//  332     // Blink LED to indicate HOLD_START
//  333     HalLedBlink ( HAL_LED_4, 0, 50, 500 );
        ; Setup parameters for call to function HalLedBlink
        MOV     R4,#-0xc
        MOV     R5,#0x1
        MOV     R3,#0x32
        MOV     R2,#0x0
        MOV     R1,#0x8
        LCALL   `??HalLedBlink::?relay`; Banked call to: HalLedBlink
//  334   }
//  335 
//  336   // Initialize the ZDO callback function pointers zdoCBFunc[]
//  337   ZDApp_InitZdoCBFunc();
??ZDApp_Init_1:
        ; Setup parameters for call to function ZDApp_InitZdoCBFunc
        LCALL   `??ZDApp_InitZdoCBFunc::?relay`; Banked call to: ZDApp_InitZdoCBFunc
//  338 
//  339   ZDApp_RegisterCBs();
        ; Setup parameters for call to function ZDApp_RegisterCBs
        LCALL   `??ZDApp_RegisterCBs::?relay`; Banked call to: ZDApp_RegisterCBs
//  340 
//  341 #if !defined ( ZDP_BIND_SKIP_VALIDATION )
//  342 #if defined ( REFLECTOR )
//  343   ZDApp_InitPendingBind();
        ; Setup parameters for call to function ZDApp_InitPendingBind
        LCALL   `??ZDApp_InitPendingBind::?relay`; Banked call to: ZDApp_InitPendingBind
//  344 #endif
//  345 #endif
//  346 } /* ZDApp_Init() */
        LJMP    ??Subroutine46_0 & 0xFFFF
          CFI EndBlock cfiBlock0
//  347 
//  348 /*********************************************************************
//  349  * @fn          ZDApp_SecInit
//  350  *
//  351  * @brief       ZDApp initialize security.
//  352  *
//  353  * @param       state - device initialization state
//  354  *
//  355  * @return      none
//  356  */

        RSEG BANKED_CODE:CODE:NOROOT(0)
//  357 void ZDApp_SecInit( uint8 state )
ZDApp_SecInit:
          CFI Block cfiBlock1 Using cfiCommon0
          CFI Function ZDApp_SecInit
        CODE
//  358 {
        FUNCALL ZDApp_SecInit, ZDSecMgrInit
        LOCFRAME ISTACK, 0, STACK
        LOCFRAME PSTACK, 0, STACK
        LOCFRAME XSTACK, 25, STACK
        LOCFRAME IOVERLAY, 0, STATIC
        LOCFRAME DOVERLAY, 0, STATIC
        ARGFRAME ISTACK, 0, STACK
        ARGFRAME PSTACK, 0, STACK
        ARGFRAME XSTACK, 25, STACK
        ARGFRAME IOVERLAY, 0, STATIC
        ARGFRAME DOVERLAY, 0, STATIC
        FUNCALL ZDApp_SecInit, ZDSecMgrReadKeyFromNv
        LOCFRAME ISTACK, 0, STACK
        LOCFRAME PSTACK, 0, STACK
        LOCFRAME XSTACK, 25, STACK
        LOCFRAME IOVERLAY, 0, STATIC
        LOCFRAME DOVERLAY, 0, STATIC
        ARGFRAME ISTACK, 0, STACK
        ARGFRAME PSTACK, 0, STACK
        ARGFRAME XSTACK, 25, STACK
        ARGFRAME IOVERLAY, 0, STATIC
        ARGFRAME DOVERLAY, 0, STATIC
        FUNCALL ZDApp_SecInit, SSP_UpdateNwkKey
        LOCFRAME ISTACK, 0, STACK
        LOCFRAME PSTACK, 0, STACK
        LOCFRAME XSTACK, 25, STACK
        LOCFRAME IOVERLAY, 0, STATIC
        LOCFRAME DOVERLAY, 0, STATIC
        ARGFRAME ISTACK, 0, STACK
        ARGFRAME PSTACK, 0, STACK
        ARGFRAME XSTACK, 25, STACK
        ARGFRAME IOVERLAY, 0, STATIC
        ARGFRAME DOVERLAY, 0, STATIC
        FUNCALL ZDApp_SecInit, SSP_SwitchNwkKey
        LOCFRAME ISTACK, 0, STACK
        LOCFRAME PSTACK, 0, STACK
        LOCFRAME XSTACK, 25, STACK
        LOCFRAME IOVERLAY, 0, STATIC
        LOCFRAME DOVERLAY, 0, STATIC
        ARGFRAME ISTACK, 0, STACK
        ARGFRAME PSTACK, 0, STACK
        ARGFRAME XSTACK, 25, STACK
        ARGFRAME IOVERLAY, 0, STATIC
        ARGFRAME DOVERLAY, 0, STATIC
        FUNCALL ZDApp_SecInit, osal_memset
        LOCFRAME ISTACK, 0, STACK
        LOCFRAME PSTACK, 0, STACK
        LOCFRAME XSTACK, 25, STACK
        LOCFRAME IOVERLAY, 0, STATIC
        LOCFRAME DOVERLAY, 0, STATIC
        ARGFRAME ISTACK, 0, STACK
        ARGFRAME PSTACK, 0, STACK
        ARGFRAME XSTACK, 25, STACK
        ARGFRAME IOVERLAY, 0, STATIC
        ARGFRAME DOVERLAY, 0, STATIC
        FUNCALL ZDApp_SecInit, osal_mem_free
        LOCFRAME ISTACK, 0, STACK
        LOCFRAME PSTACK, 0, STACK
        LOCFRAME XSTACK, 25, STACK
        LOCFRAME IOVERLAY, 0, STATIC
        LOCFRAME DOVERLAY, 0, STATIC
        ARGFRAME ISTACK, 0, STACK
        ARGFRAME PSTACK, 0, STACK
        ARGFRAME XSTACK, 25, STACK
        ARGFRAME IOVERLAY, 0, STATIC
        ARGFRAME DOVERLAY, 0, STATIC
        REQUIRE ?V0
        MOV     A,#-0x9
        LCALL   ?BANKED_ENTER_XDATA
          CFI DPH0 load(1, XDATA, add(CFA_XSP16, literal(-1)))
          CFI DPL0 load(1, XDATA, add(CFA_XSP16, literal(-2)))
          CFI ?BRET_EXT load(1, XDATA, add(CFA_XSP16, literal(-3)))
          CFI ?RET_HIGH load(1, XDATA, add(CFA_XSP16, literal(-4)))
          CFI ?RET_LOW load(1, XDATA, add(CFA_XSP16, literal(-5)))
          CFI R7 load(1, XDATA, add(CFA_XSP16, literal(-6)))
          CFI V0 load(1, XDATA, add(CFA_XSP16, literal(-7)))
          CFI VB load(1, XDATA, add(CFA_XSP16, literal(-8)))
          CFI R6 load(1, XDATA, add(CFA_XSP16, literal(-9)))
          CFI CFA_SP SP+0
          CFI CFA_XSP16 add(XSP16, 9)
        ; Saved register size: 9
        ; Auto size: 16
        MOV     A,#-0x10
        LCALL   ?ALLOC_XSTACK8
          CFI CFA_XSP16 add(XSP16, 25)
        MOV     ?V0,R1
//  359   uint8 zgPreConfigKey[SEC_KEY_LEN];
//  360 
//  361   if ( ZG_SECURE_ENABLED && ZG_BUILD_COORDINATOR_TYPE && ZG_DEVICE_COORDINATOR_TYPE )
//  362   {
//  363     // Set the Trust Center bit
//  364     ZDO_Config_Node_Descriptor.ServerMask |= PRIM_TRUST_CENTER;
//  365   }
//  366 
//  367   // Initialize ZigBee Device Security Manager
//  368   ZDSecMgrInit(state);
        ; Setup parameters for call to function ZDSecMgrInit
        LCALL   `??ZDSecMgrInit::?relay`; Banked call to: ZDSecMgrInit
//  369 
//  370   if ( ZG_SECURE_ENABLED )
//  371   {
//  372     if ( state != ZDO_INITDEV_RESTORED_NETWORK_STATE )
        MOV     A,?V0
        JZ      ??ZDApp_SecInit_0
//  373     {
//  374       nwkFrameCounter = 0;
        MOV     DPTR,#nwkFrameCounter
        CLR     A
        MOVX    @DPTR,A
        INC     DPTR
        MOVX    @DPTR,A
        INC     DPTR
        MOVX    @DPTR,A
        INC     DPTR
        MOVX    @DPTR,A
//  375 
//  376       if( _NIB.nwkKeyLoaded == FALSE )
        MOV     DPTR,#_NIB + 61
        MOVX    A,@DPTR
        JNZ     ??ZDApp_SecInit_0
//  377       {
//  378         if ( ( ZG_BUILD_COORDINATOR_TYPE && ZG_DEVICE_COORDINATOR_TYPE          ) ||
//  379              ( ( zgSecurityMode == ZG_SECURITY_RESIDENTIAL ) && zgPreConfigKeys )    )
        MOV     DPTR,#zgSecurityMode
        MOVX    A,@DPTR
        XRL     A,#0x1
        JNZ     ??ZDApp_SecInit_0
        MOV     DPTR,#zgPreConfigKeys
        MOVX    A,@DPTR
        JZ      ??ZDApp_SecInit_0
//  380         {
//  381             ZDSecMgrReadKeyFromNv(ZCD_NV_PRECFGKEY, zgPreConfigKey);
        ; Setup parameters for call to function ZDSecMgrReadKeyFromNv
        MOV     R4,?XSP + 0
        MOV     R5,?XSP + 1
        MOV     R2,#0x62
        MOV     R3,#0x0
        LCALL   `??ZDSecMgrReadKeyFromNv::?relay`; Banked call to: ZDSecMgrReadKeyFromNv
//  382             SSP_UpdateNwkKey( zgPreConfigKey, 0);
        ; Setup parameters for call to function SSP_UpdateNwkKey
        MOV     R1,#0x0
        MOV     R2,?XSP + 0
        MOV     R3,?XSP + 1
        LCALL   `??SSP_UpdateNwkKey::?relay`; Banked call to: SSP_UpdateNwkKey
//  383             SSP_SwitchNwkKey( 0 );
        ; Setup parameters for call to function SSP_SwitchNwkKey
        MOV     R1,#0x0
        LCALL   `??SSP_SwitchNwkKey::?relay`; Banked call to: SSP_SwitchNwkKey
//  384 
//  385             // clear local copy of key
//  386             osal_memset(zgPreConfigKey, 0x00, SEC_KEY_LEN);
        ; Setup parameters for call to function osal_memset
        MOV     R4,#0x10
        MOV     R5,#0x0
        MOV     R1,#0x0
        MOV     R2,?XSP + 0
        MOV     R3,?XSP + 1
        LCALL   `??osal_memset::?relay`; Banked call to: osal_memset
//  387         }
//  388       }
//  389     }
//  390 
//  391     // clean the new devices list when Security module is initialized
//  392     if ( ZDApp_NewDeviceList != NULL )
??ZDApp_SecInit_0:
        MOV     DPTR,#ZDApp_NewDeviceList
        LCALL   ??Subroutine51_0 & 0xFFFF
??CrossCallReturnLabel_83:
        JZ      ??ZDApp_SecInit_1
//  393     {
//  394       ZDAppNewDevice_t *pNewDeviceNext;
//  395 
//  396       while ( ZDApp_NewDeviceList )
//  397       {
//  398         pNewDeviceNext = (ZDAppNewDevice_t *) ZDApp_NewDeviceList->next;
??ZDApp_SecInit_2:
        MOV     DPTR,#ZDApp_NewDeviceList
        LCALL   ?Subroutine21 & 0xFFFF
??CrossCallReturnLabel_22:
        MOV     R6,A
        INC     DPTR
        MOVX    A,@DPTR
        MOV     R7,A
//  399         osal_mem_free( ZDApp_NewDeviceList );
        ; Setup parameters for call to function osal_mem_free
        MOV     DPTR,#ZDApp_NewDeviceList
        LCALL   ??Subroutine47_0 & 0xFFFF
??CrossCallReturnLabel_70:
        LCALL   `??osal_mem_free::?relay`; Banked call to: osal_mem_free
//  400         ZDApp_NewDeviceList = pNewDeviceNext;
        MOV     A,R6
        MOV     R0,A
        MOV     A,R7
        MOV     R1,A
        MOV     DPTR,#ZDApp_NewDeviceList
        LCALL   ??Subroutine43_0 & 0xFFFF
//  401       }
??CrossCallReturnLabel_58:
        MOV     A,R0
        ORL     A,R1
        JNZ     ??ZDApp_SecInit_2
//  402     }
//  403   }
//  404 }
??ZDApp_SecInit_1:
        MOV     A,#0x10
        LJMP    ??Subroutine45_0 & 0xFFFF
          CFI EndBlock cfiBlock1
//  405 
//  406 /*********************************************************************
//  407  * @fn      ZDApp_event_loop()
//  408  *
//  409  * @brief   Main event loop for Zigbee device objects task. This function
//  410  *          should be called at periodic intervals.
//  411  *
//  412  * @param   task_id - Task ID
//  413  * @param   events  - Bitmap of events
//  414  *
//  415  * @return  none
//  416  */

        RSEG BANKED_CODE:CODE:NOROOT(0)
//  417 UINT16 ZDApp_event_loop( uint8 task_id, UINT16 events )
ZDApp_event_loop:
          CFI Block cfiBlock2 Using cfiCommon0
          CFI Function ZDApp_event_loop
        CODE
//  418 {
        FUNCALL ZDApp_event_loop, ZDApp_ChangeState
        LOCFRAME ISTACK, 0, STACK
        LOCFRAME PSTACK, 0, STACK
        LOCFRAME XSTACK, 14, STACK
        LOCFRAME IOVERLAY, 0, STATIC
        LOCFRAME DOVERLAY, 0, STATIC
        ARGFRAME ISTACK, 0, STACK
        ARGFRAME PSTACK, 0, STACK
        ARGFRAME XSTACK, 14, STACK
        ARGFRAME IOVERLAY, 0, STATIC
        ARGFRAME DOVERLAY, 0, STATIC
        FUNCALL ZDApp_event_loop, ZDO_StartDevice
        LOCFRAME ISTACK, 0, STACK
        LOCFRAME PSTACK, 0, STACK
        LOCFRAME XSTACK, 14, STACK
        LOCFRAME IOVERLAY, 0, STATIC
        LOCFRAME DOVERLAY, 0, STATIC
        ARGFRAME ISTACK, 0, STACK
        ARGFRAME PSTACK, 0, STACK
        ARGFRAME XSTACK, 14, STACK
        ARGFRAME IOVERLAY, 0, STATIC
        ARGFRAME DOVERLAY, 0, STATIC
        FUNCALL ZDApp_event_loop, ZDApp_ProcessOSALMsg
        LOCFRAME ISTACK, 0, STACK
        LOCFRAME PSTACK, 0, STACK
        LOCFRAME XSTACK, 14, STACK
        LOCFRAME IOVERLAY, 0, STATIC
        LOCFRAME DOVERLAY, 0, STATIC
        ARGFRAME ISTACK, 0, STACK
        ARGFRAME PSTACK, 0, STACK
        ARGFRAME XSTACK, 14, STACK
        ARGFRAME IOVERLAY, 0, STATIC
        ARGFRAME DOVERLAY, 0, STATIC
        FUNCALL ZDApp_event_loop, osal_msg_deallocate
        LOCFRAME ISTACK, 0, STACK
        LOCFRAME PSTACK, 0, STACK
        LOCFRAME XSTACK, 14, STACK
        LOCFRAME IOVERLAY, 0, STATIC
        LOCFRAME DOVERLAY, 0, STATIC
        ARGFRAME ISTACK, 0, STACK
        ARGFRAME PSTACK, 0, STACK
        ARGFRAME XSTACK, 14, STACK
        ARGFRAME IOVERLAY, 0, STATIC
        ARGFRAME DOVERLAY, 0, STATIC
        FUNCALL ZDApp_event_loop, osal_msg_receive
        LOCFRAME ISTACK, 0, STACK
        LOCFRAME PSTACK, 0, STACK
        LOCFRAME XSTACK, 14, STACK
        LOCFRAME IOVERLAY, 0, STATIC
        LOCFRAME DOVERLAY, 0, STATIC
        ARGFRAME ISTACK, 0, STACK
        ARGFRAME PSTACK, 0, STACK
        ARGFRAME XSTACK, 14, STACK
        ARGFRAME IOVERLAY, 0, STATIC
        ARGFRAME DOVERLAY, 0, STATIC
        FUNCALL ZDApp_event_loop, ZDApp_ChangeState
        LOCFRAME ISTACK, 0, STACK
        LOCFRAME PSTACK, 0, STACK
        LOCFRAME XSTACK, 14, STACK
        LOCFRAME IOVERLAY, 0, STATIC
        LOCFRAME DOVERLAY, 0, STATIC
        ARGFRAME ISTACK, 0, STACK
        ARGFRAME PSTACK, 0, STACK
        ARGFRAME XSTACK, 14, STACK
        ARGFRAME IOVERLAY, 0, STATIC
        ARGFRAME DOVERLAY, 0, STATIC
        FUNCALL ZDApp_event_loop, ZDApp_StartJoiningCycle
        LOCFRAME ISTACK, 0, STACK
        LOCFRAME PSTACK, 0, STACK
        LOCFRAME XSTACK, 14, STACK
        LOCFRAME IOVERLAY, 0, STATIC
        LOCFRAME DOVERLAY, 0, STATIC
        ARGFRAME ISTACK, 0, STACK
        ARGFRAME PSTACK, 0, STACK
        ARGFRAME XSTACK, 14, STACK
        ARGFRAME IOVERLAY, 0, STATIC
        ARGFRAME DOVERLAY, 0, STATIC
        FUNCALL ZDApp_event_loop, osal_start_timerEx
        LOCFRAME ISTACK, 0, STACK
        LOCFRAME PSTACK, 0, STACK
        LOCFRAME XSTACK, 18, STACK
        LOCFRAME IOVERLAY, 0, STATIC
        LOCFRAME DOVERLAY, 0, STATIC
        ARGFRAME ISTACK, 0, STACK
        ARGFRAME PSTACK, 0, STACK
        ARGFRAME XSTACK, 18, STACK
        ARGFRAME IOVERLAY, 0, STATIC
        ARGFRAME DOVERLAY, 0, STATIC
        FUNCALL ZDApp_event_loop, ZDApp_ChangeState
        LOCFRAME ISTACK, 0, STACK
        LOCFRAME PSTACK, 0, STACK
        LOCFRAME XSTACK, 14, STACK
        LOCFRAME IOVERLAY, 0, STATIC
        LOCFRAME DOVERLAY, 0, STATIC
        ARGFRAME ISTACK, 0, STACK
        ARGFRAME PSTACK, 0, STACK
        ARGFRAME XSTACK, 14, STACK
        ARGFRAME IOVERLAY, 0, STATIC
        ARGFRAME DOVERLAY, 0, STATIC
        FUNCALL ZDApp_event_loop, ZDApp_StopJoiningCycle
        LOCFRAME ISTACK, 0, STACK
        LOCFRAME PSTACK, 0, STACK
        LOCFRAME XSTACK, 14, STACK
        LOCFRAME IOVERLAY, 0, STATIC
        LOCFRAME DOVERLAY, 0, STATIC
        ARGFRAME ISTACK, 0, STACK
        ARGFRAME PSTACK, 0, STACK
        ARGFRAME XSTACK, 14, STACK
        ARGFRAME IOVERLAY, 0, STATIC
        ARGFRAME DOVERLAY, 0, STATIC
        FUNCALL ZDApp_event_loop, osal_start_timerEx
        LOCFRAME ISTACK, 0, STACK
        LOCFRAME PSTACK, 0, STACK
        LOCFRAME XSTACK, 18, STACK
        LOCFRAME IOVERLAY, 0, STATIC
        LOCFRAME DOVERLAY, 0, STATIC
        ARGFRAME ISTACK, 0, STACK
        ARGFRAME PSTACK, 0, STACK
        ARGFRAME XSTACK, 18, STACK
        ARGFRAME IOVERLAY, 0, STATIC
        ARGFRAME DOVERLAY, 0, STATIC
        FUNCALL ZDApp_event_loop, ZDO_UpdateNwkStatus
        LOCFRAME ISTACK, 0, STACK
        LOCFRAME PSTACK, 0, STACK
        LOCFRAME XSTACK, 14, STACK
        LOCFRAME IOVERLAY, 0, STATIC
        LOCFRAME DOVERLAY, 0, STATIC
        ARGFRAME ISTACK, 0, STACK
        ARGFRAME PSTACK, 0, STACK
        ARGFRAME XSTACK, 14, STACK
        ARGFRAME IOVERLAY, 0, STATIC
        ARGFRAME DOVERLAY, 0, STATIC
        FUNCALL ZDApp_event_loop, osal_start_timerEx
        LOCFRAME ISTACK, 0, STACK
        LOCFRAME PSTACK, 0, STACK
        LOCFRAME XSTACK, 18, STACK
        LOCFRAME IOVERLAY, 0, STATIC
        LOCFRAME DOVERLAY, 0, STATIC
        ARGFRAME ISTACK, 0, STACK
        ARGFRAME PSTACK, 0, STACK
        ARGFRAME XSTACK, 18, STACK
        ARGFRAME IOVERLAY, 0, STATIC
        ARGFRAME DOVERLAY, 0, STATIC
        FUNCALL ZDApp_event_loop, zgWriteStartupOptions
        LOCFRAME ISTACK, 0, STACK
        LOCFRAME PSTACK, 0, STACK
        LOCFRAME XSTACK, 14, STACK
        LOCFRAME IOVERLAY, 0, STATIC
        LOCFRAME DOVERLAY, 0, STATIC
        ARGFRAME ISTACK, 0, STACK
        ARGFRAME PSTACK, 0, STACK
        ARGFRAME XSTACK, 14, STACK
        ARGFRAME IOVERLAY, 0, STATIC
        ARGFRAME DOVERLAY, 0, STATIC
        FUNCALL ZDApp_event_loop, Onboard_soft_reset
        LOCFRAME ISTACK, 0, STACK
        LOCFRAME PSTACK, 0, STACK
        LOCFRAME XSTACK, 14, STACK
        LOCFRAME IOVERLAY, 0, STATIC
        LOCFRAME DOVERLAY, 0, STATIC
        ARGFRAME ISTACK, 0, STACK
        ARGFRAME PSTACK, 0, STACK
        ARGFRAME XSTACK, 14, STACK
        ARGFRAME IOVERLAY, 0, STATIC
        ARGFRAME DOVERLAY, 0, STATIC
        FUNCALL ZDApp_event_loop, ZDApp_AgeOutPendingBindEntry
        LOCFRAME ISTACK, 0, STACK
        LOCFRAME PSTACK, 0, STACK
        LOCFRAME XSTACK, 14, STACK
        LOCFRAME IOVERLAY, 0, STATIC
        LOCFRAME DOVERLAY, 0, STATIC
        ARGFRAME ISTACK, 0, STACK
        ARGFRAME PSTACK, 0, STACK
        ARGFRAME XSTACK, 14, STACK
        ARGFRAME IOVERLAY, 0, STATIC
        ARGFRAME DOVERLAY, 0, STATIC
        FUNCALL ZDApp_event_loop, ZDApp_ProcessSecEvent
        LOCFRAME ISTACK, 0, STACK
        LOCFRAME PSTACK, 0, STACK
        LOCFRAME XSTACK, 14, STACK
        LOCFRAME IOVERLAY, 0, STATIC
        LOCFRAME DOVERLAY, 0, STATIC
        ARGFRAME ISTACK, 0, STACK
        ARGFRAME PSTACK, 0, STACK
        ARGFRAME XSTACK, 14, STACK
        ARGFRAME IOVERLAY, 0, STATIC
        ARGFRAME DOVERLAY, 0, STATIC
        REQUIRE ?V0
        REQUIRE ?V1
        REQUIRE ?V2
        REQUIRE ?V4
        REQUIRE ?V5
        MOV     A,#-0xe
        LCALL   ?BANKED_ENTER_XDATA
          CFI DPH0 load(1, XDATA, add(CFA_XSP16, literal(-1)))
          CFI DPL0 load(1, XDATA, add(CFA_XSP16, literal(-2)))
          CFI ?BRET_EXT load(1, XDATA, add(CFA_XSP16, literal(-3)))
          CFI ?RET_HIGH load(1, XDATA, add(CFA_XSP16, literal(-4)))
          CFI ?RET_LOW load(1, XDATA, add(CFA_XSP16, literal(-5)))
          CFI R7 load(1, XDATA, add(CFA_XSP16, literal(-6)))
          CFI V5 load(1, XDATA, add(CFA_XSP16, literal(-7)))
          CFI V4 load(1, XDATA, add(CFA_XSP16, literal(-8)))
          CFI V3 load(1, XDATA, add(CFA_XSP16, literal(-9)))
          CFI V2 load(1, XDATA, add(CFA_XSP16, literal(-10)))
          CFI V1 load(1, XDATA, add(CFA_XSP16, literal(-11)))
          CFI V0 load(1, XDATA, add(CFA_XSP16, literal(-12)))
          CFI VB load(1, XDATA, add(CFA_XSP16, literal(-13)))
          CFI R6 load(1, XDATA, add(CFA_XSP16, literal(-14)))
          CFI CFA_SP SP+0
          CFI CFA_XSP16 add(XSP16, 14)
        ; Saved register size: 14
        ; Auto size: 0
        MOV     ?V2,R1
        MOV     A,R2
        MOV     R6,A
        MOV     A,R3
        MOV     R7,A
//  419   uint8 *msg_ptr;
//  420 
//  421   if ( events & SYS_EVENT_MSG )
        ANL     A,#0x80
        JNZ     ??ZDApp_event_loop_0
//  422   {
//  423     while ( (msg_ptr = osal_msg_receive( ZDAppTaskID )) )
//  424     {
//  425       ZDApp_ProcessOSALMsg( (osal_event_hdr_t *)msg_ptr );
//  426 
//  427       // Release the memory
//  428       osal_msg_deallocate( msg_ptr );
//  429     }
//  430 
//  431     // Return unprocessed events
//  432     return (events ^ SYS_EVENT_MSG);
//  433   }
//  434 
//  435   if ( events & ZDO_NETWORK_INIT )
        MOV     A,R6
        MOV     C,0xE0 /* A   */.0
        JNC     ??ZDApp_event_loop_1
//  436   {
//  437     // Initialize apps and start the network
//  438     ZDApp_ChangeState( DEV_INIT );
        ; Setup parameters for call to function ZDApp_ChangeState
        MOV     R1,#0x1
        LCALL   `??ZDApp_ChangeState::?relay`; Banked call to: ZDApp_ChangeState
//  439 
//  440     ZDO_StartDevice( (uint8)ZDO_Config_Node_Descriptor.LogicalType, devStartMode,
//  441                      DEFAULT_BEACON_ORDER, DEFAULT_SUPERFRAME_ORDER );
        ; Setup parameters for call to function ZDO_StartDevice
        MOV     R4,#0xf
        MOV     R3,#0xf
        MOV     DPTR,#devStartMode
        MOVX    A,@DPTR
        MOV     R2,A
        MOV     DPTR,#ZDO_Config_Node_Descriptor
        MOVX    A,@DPTR
        ANL     A,#0x7
        MOV     R1,A
        LCALL   `??ZDO_StartDevice::?relay`; Banked call to: ZDO_StartDevice
//  442 
//  443     // Return unprocessed events
//  444     return (events ^ ZDO_NETWORK_INIT);
        MOV     A,R6
        XRL     A,#0x1
        LJMP    ??ZDApp_event_loop_2 & 0xFFFF
//  445   }
??ZDApp_event_loop_3:
        ; Setup parameters for call to function ZDApp_ProcessOSALMsg
        LCALL   `??ZDApp_ProcessOSALMsg::?relay`; Banked call to: ZDApp_ProcessOSALMsg
        ; Setup parameters for call to function osal_msg_deallocate
        MOV     R2,?V0
        MOV     R3,?V1
        LCALL   `??osal_msg_deallocate::?relay`; Banked call to: osal_msg_deallocate
??ZDApp_event_loop_0:
        ; Setup parameters for call to function osal_msg_receive
        MOV     DPTR,#ZDAppTaskID
        MOVX    A,@DPTR
        MOV     R1,A
        LCALL   `??osal_msg_receive::?relay`; Banked call to: osal_msg_receive
        MOV     ?V0,R2
        MOV     ?V1,R3
        MOV     A,R2
        ORL     A,?V1
        JNZ     ??ZDApp_event_loop_3
        MOV     A,R6
        MOV     R2,A
        MOV     A,R7
        XRL     A,#0x80
        LJMP    ??ZDApp_event_loop_4 & 0xFFFF
//  446 
//  447   if ( ZSTACK_ROUTER_BUILD )
//  448   {
//  449     if ( events & ZDO_NETWORK_START )
//  450     {
//  451       ZDApp_NetworkStartEvt();
//  452 
//  453       // Return unprocessed events
//  454       return (events ^ ZDO_NETWORK_START);
//  455     }
//  456 
//  457     if ( events & ZDO_ROUTER_START )
//  458     {
//  459       if ( nwkStatus == ZSuccess )
//  460       {
//  461         if ( devState == DEV_END_DEVICE )
//  462         {
//  463           ZDApp_ChangeState( DEV_ROUTER );
//  464         }
//  465 
//  466         osal_pwrmgr_device( PWRMGR_ALWAYS_ON );
//  467 
//  468         if ( zgChildAgingEnable == TRUE )
//  469         {
//  470           // Once the device has changed its state to a ROUTER set the timer to send
//  471           // Parent annce
//  472           ZDApp_SetParentAnnceTimer();
//  473         }
//  474       }
//  475       else
//  476       {
//  477         // remain as end device
//  478       }
//  479       osal_set_event( ZDAppTaskID, ZDO_STATE_CHANGE_EVT );
//  480 
//  481       // Return unprocessed events
//  482       return (events ^ ZDO_ROUTER_START);
//  483     }
//  484 
//  485     if ( events & ZDO_PARENT_ANNCE_EVT )
//  486     {
//  487       ZDApp_SendParentAnnce();
//  488 
//  489       // Return unprocessed events
//  490       return (events ^ ZDO_PARENT_ANNCE_EVT);
//  491     }
//  492   }
//  493 
//  494   if( events & ZDO_REJOIN_BACKOFF )
??ZDApp_event_loop_1:
        MOV     A,R7
        ANL     A,#0x20
        JZ      ??ZDApp_event_loop_5
//  495   {
//  496     if( devState == DEV_NWK_BACKOFF )
        MOV     DPTR,#devState
        MOVX    A,@DPTR
        XRL     A,#0xc
        JNZ     ??ZDApp_event_loop_6
//  497     {
//  498       ZDApp_ChangeState(DEV_NWK_DISC);
        ; Setup parameters for call to function ZDApp_ChangeState
        MOV     R1,#0x2
        LCALL   `??ZDApp_ChangeState::?relay`; Banked call to: ZDApp_ChangeState
//  499       // Restart scan for rejoin
//  500       ZDApp_StartJoiningCycle();
        ; Setup parameters for call to function ZDApp_StartJoiningCycle
        LCALL   `??ZDApp_StartJoiningCycle::?relay`; Banked call to: ZDApp_StartJoiningCycle
//  501       osal_start_timerEx( ZDAppTaskID, ZDO_REJOIN_BACKOFF, zgDefaultRejoinScan );
        ; Setup parameters for call to function osal_start_timerEx
        MOV     DPTR,#zgDefaultRejoinScan
        SJMP    ??ZDApp_event_loop_7
//  502     }
//  503     else
//  504     {
//  505       // Rejoin backoff, silent period
//  506       ZDApp_ChangeState(DEV_NWK_BACKOFF);
??ZDApp_event_loop_6:
        ; Setup parameters for call to function ZDApp_ChangeState
        MOV     R1,#0xc
        LCALL   `??ZDApp_ChangeState::?relay`; Banked call to: ZDApp_ChangeState
//  507       ZDApp_StopJoiningCycle();
        ; Setup parameters for call to function ZDApp_StopJoiningCycle
        LCALL   `??ZDApp_StopJoiningCycle::?relay`; Banked call to: ZDApp_StopJoiningCycle
//  508       osal_start_timerEx( ZDAppTaskID, ZDO_REJOIN_BACKOFF, zgDefaultRejoinBackoff );
        ; Setup parameters for call to function osal_start_timerEx
        MOV     DPTR,#zgDefaultRejoinBackoff
??ZDApp_event_loop_7:
        LCALL   ?PUSH_XSTACK8_X_FOUR
          CFI CFA_XSP16 add(XSP16, 18)
        MOV     R2,#0x0
        MOV     R3,#0x20
        MOV     DPTR,#ZDAppTaskID
        MOVX    A,@DPTR
        MOV     R1,A
        LCALL   `??osal_start_timerEx::?relay`; Banked call to: osal_start_timerEx
        MOV     A,#0x4
        LCALL   ?DEALLOC_XSTACK8
          CFI CFA_XSP16 add(XSP16, 14)
//  509     }
//  510 
//  511     return ( events ^ ZDO_REJOIN_BACKOFF);
        MOV     A,R6
        MOV     R2,A
        MOV     A,R7
        XRL     A,#0x20
        SJMP    ??ZDApp_event_loop_4
//  512   }
//  513 
//  514   if ( events & ZDO_STATE_CHANGE_EVT )
??ZDApp_event_loop_5:
        MOV     A,R6
        ANL     A,#0x10
        JZ      ??ZDApp_event_loop_8
//  515   {
//  516     ZDO_UpdateNwkStatus( devState );
        ; Setup parameters for call to function ZDO_UpdateNwkStatus
        MOV     DPTR,#devState
        MOVX    A,@DPTR
        MOV     R1,A
        LCALL   `??ZDO_UpdateNwkStatus::?relay`; Banked call to: ZDO_UpdateNwkStatus
//  517 
//  518     // At start up, do one MTO route discovery if the device is a concentrator
//  519     if ( zgConcentratorEnable == TRUE )
        MOV     DPTR,#zgConcentratorEnable
        MOVX    A,@DPTR
        XRL     A,#0x1
        JNZ     ??ZDApp_event_loop_9
//  520     {
//  521       // Start next event
//  522       osal_start_timerEx( NWK_TaskID, NWK_MTO_RTG_REQ_EVT, 100 );
        ; Setup parameters for call to function osal_start_timerEx
        MOV     DPTR,#__Constant_64
        LCALL   ?PUSH_XSTACK8_X_FOUR
          CFI CFA_XSP16 add(XSP16, 18)
        MOV     R2,#0x0
        MOV     R3,#0x8
        MOV     DPTR,#NWK_TaskID
        MOVX    A,@DPTR
        MOV     R1,A
        LCALL   `??osal_start_timerEx::?relay`; Banked call to: osal_start_timerEx
        MOV     A,#0x4
        LCALL   ?DEALLOC_XSTACK8
          CFI CFA_XSP16 add(XSP16, 14)
//  523     }
//  524 
//  525     // Return unprocessed events
//  526     return (events ^ ZDO_STATE_CHANGE_EVT);
??ZDApp_event_loop_9:
        MOV     A,R6
        XRL     A,#0x10
??ZDApp_event_loop_2:
        MOV     R2,A
        MOV     A,R7
        SJMP    ??ZDApp_event_loop_4
//  527   }
//  528 
//  529   if ( events & ZDO_COMMAND_CNF )
??ZDApp_event_loop_8:
        MOV     A,R6
        ANL     A,#0x8
        JZ      ??ZDApp_event_loop_10
//  530   {
//  531     // User defined logic
//  532 
//  533     // Return unprocessed events
//  534     return (events ^ ZDO_COMMAND_CNF);
        MOV     A,R6
        XRL     A,#0x8
        MOV     R2,A
        SJMP    ??ZDApp_event_loop_11
//  535   }
//  536 
//  537   if ( events & ZDO_NWK_UPDATE_NV )
??ZDApp_event_loop_10:
        MOV     A,R7
        ANL     A,#0x1
        JZ      ??ZDApp_event_loop_12
//  538   {
//  539     // Save only in valid state
//  540     if ( _NIB.nwkState == NWK_ROUTER || _NIB.nwkState == NWK_ENDDEVICE )
//  541     {
//  542       ZDApp_SaveNetworkStateEvt();
//  543     }
//  544 
//  545     // Return unprocessed events
//  546     return (events ^ ZDO_NWK_UPDATE_NV);
        MOV     A,R7
        XRL     A,#0x1
        SJMP    ??ZDApp_event_loop_4
//  547   }
//  548 
//  549   if ( events & ZDO_DEVICE_RESET )
??ZDApp_event_loop_12:
        MOV     A,R6
        ANL     A,#0x4
        JZ      ??ZDApp_event_loop_13
//  550   {
//  551 #ifdef ZBA_FALLBACK_NWKKEY
//  552     if ( devState == DEV_END_DEVICE_UNAUTH )
//  553     {
//  554       ZDSecMgrFallbackNwkKey();
//  555     }
//  556     else
//  557 #endif
//  558     {
//  559       // Set the NV startup option to force a "new" join.
//  560       zgWriteStartupOptions( ZG_STARTUP_SET, ZCD_STARTOPT_DEFAULT_NETWORK_STATE );
        ; Setup parameters for call to function zgWriteStartupOptions
        MOV     R2,#0x2
        MOV     R1,#-0x1
        LCALL   `??zgWriteStartupOptions::?relay`; Banked call to: zgWriteStartupOptions
//  561 
//  562       // The device has been in the UNAUTH state, so reset
//  563       // Note: there will be no return from this call
//  564       SystemResetSoft();
        ; Setup parameters for call to function Onboard_soft_reset
        LCALL   Onboard_soft_reset & 0xFFFF
//  565     }
//  566   }
//  567 
//  568 #if !defined ( ZDP_BIND_SKIP_VALIDATION )
//  569   if ( events & ZDO_PENDING_BIND_REQ_EVT )
??ZDApp_event_loop_13:
        MOV     A,R7
        ANL     A,#0x10
        JZ      ??ZDApp_event_loop_14
//  570   {
//  571 #if defined ( REFLECTOR )
//  572     ZDApp_AgeOutPendingBindEntry();
        ; Setup parameters for call to function ZDApp_AgeOutPendingBindEntry
        LCALL   `??ZDApp_AgeOutPendingBindEntry::?relay`; Banked call to: ZDApp_AgeOutPendingBindEntry
//  573 #endif
//  574     // Return unprocessed events
//  575     return (events ^ ZDO_PENDING_BIND_REQ_EVT);
        MOV     A,R6
        MOV     R2,A
        MOV     A,R7
        XRL     A,#0x10
??ZDApp_event_loop_4:
        MOV     R3,A
        SJMP    ??ZDApp_event_loop_11
//  576   }
//  577 #endif
//  578 
//  579   if ( ZG_SECURE_ENABLED )
//  580   {
//  581     return ( ZDApp_ProcessSecEvent( task_id, events ) );
??ZDApp_event_loop_14:
        ; Setup parameters for call to function ZDApp_ProcessSecEvent
        MOV     A,R6
        MOV     R2,A
        MOV     A,R7
        MOV     R3,A
        MOV     R1,?V2
        LCALL   `??ZDApp_ProcessSecEvent::?relay`; Banked call to: ZDApp_ProcessSecEvent
//  582   }
??ZDApp_event_loop_11:
        LJMP    ?Subroutine1 & 0xFFFF
//  583   else
//  584   {
//  585     // Discard or make more handlers
//  586     return 0;
//  587   }
//  588 }
          CFI EndBlock cfiBlock2
//  589 
//  590 /*********************************************************************
//  591  * @fn      ZDApp_ProcessSecEvent()
//  592  *
//  593  * @brief   Process incoming security events.
//  594  *
//  595  * @param   task_id - Task ID
//  596  * @param   events  - Bitmap of events
//  597  *
//  598  * @return  none
//  599  */

        RSEG BANKED_CODE:CODE:NOROOT(0)
//  600 UINT16 ZDApp_ProcessSecEvent( uint8 task_id, UINT16 events )
ZDApp_ProcessSecEvent:
          CFI Block cfiBlock3 Using cfiCommon0
          CFI Function ZDApp_ProcessSecEvent
        CODE
//  601 {
        FUNCALL ZDApp_ProcessSecEvent, ZDApp_DeviceAuthEvt
        LOCFRAME ISTACK, 0, STACK
        LOCFRAME PSTACK, 0, STACK
        LOCFRAME XSTACK, 9, STACK
        LOCFRAME IOVERLAY, 0, STATIC
        LOCFRAME DOVERLAY, 0, STATIC
        ARGFRAME ISTACK, 0, STACK
        ARGFRAME PSTACK, 0, STACK
        ARGFRAME XSTACK, 9, STACK
        ARGFRAME IOVERLAY, 0, STATIC
        ARGFRAME DOVERLAY, 0, STATIC
        FUNCALL ZDApp_ProcessSecEvent, ZDApp_SaveNwkKey
        LOCFRAME ISTACK, 0, STACK
        LOCFRAME PSTACK, 0, STACK
        LOCFRAME XSTACK, 9, STACK
        LOCFRAME IOVERLAY, 0, STATIC
        LOCFRAME DOVERLAY, 0, STATIC
        ARGFRAME ISTACK, 0, STACK
        ARGFRAME PSTACK, 0, STACK
        ARGFRAME XSTACK, 9, STACK
        ARGFRAME IOVERLAY, 0, STATIC
        ARGFRAME DOVERLAY, 0, STATIC
        FUNCALL ZDApp_ProcessSecEvent, ZDSecMgrSaveTCLinkKey
        LOCFRAME ISTACK, 0, STACK
        LOCFRAME PSTACK, 0, STACK
        LOCFRAME XSTACK, 9, STACK
        LOCFRAME IOVERLAY, 0, STATIC
        LOCFRAME DOVERLAY, 0, STATIC
        ARGFRAME ISTACK, 0, STACK
        ARGFRAME PSTACK, 0, STACK
        ARGFRAME XSTACK, 9, STACK
        ARGFRAME IOVERLAY, 0, STATIC
        ARGFRAME DOVERLAY, 0, STATIC
        MOV     A,#-0x9
        LCALL   ?BANKED_ENTER_XDATA
          CFI DPH0 load(1, XDATA, add(CFA_XSP16, literal(-1)))
          CFI DPL0 load(1, XDATA, add(CFA_XSP16, literal(-2)))
          CFI ?BRET_EXT load(1, XDATA, add(CFA_XSP16, literal(-3)))
          CFI ?RET_HIGH load(1, XDATA, add(CFA_XSP16, literal(-4)))
          CFI ?RET_LOW load(1, XDATA, add(CFA_XSP16, literal(-5)))
          CFI R7 load(1, XDATA, add(CFA_XSP16, literal(-6)))
          CFI V0 load(1, XDATA, add(CFA_XSP16, literal(-7)))
          CFI VB load(1, XDATA, add(CFA_XSP16, literal(-8)))
          CFI R6 load(1, XDATA, add(CFA_XSP16, literal(-9)))
          CFI CFA_SP SP+0
          CFI CFA_XSP16 add(XSP16, 9)
        ; Saved register size: 9
        ; Auto size: 0
        MOV     A,R2
        MOV     R6,A
        MOV     A,R3
        MOV     R7,A
//  602   (void)task_id;  // Intentionally unreferenced parameter
//  603 
//  604   if ( ZSTACK_ROUTER_BUILD )
//  605   {
//  606     if ( events & ZDO_NEW_DEVICE )
//  607     {
//  608       // process the new device event
//  609       if ( ZDApp_NewDeviceList )
//  610       {
//  611         ZDAppNewDevice_t *pNewDevice;
//  612         uint16 timeDelta;
//  613 
//  614         (void) ZDSecMgrNewDeviceEvent( ZDApp_NewDeviceList->shortAddr );
//  615 
//  616         pNewDevice = (ZDAppNewDevice_t *) ZDApp_NewDeviceList->next;
//  617         osal_mem_free( ZDApp_NewDeviceList );
//  618         ZDApp_NewDeviceList = pNewDevice;
//  619 
//  620         if ( pNewDevice )
//  621         {
//  622           timeDelta = pNewDevice->timeDelta;
//  623           pNewDevice = pNewDevice->next;
//  624 
//  625           while ( pNewDevice )
//  626           {
//  627             pNewDevice->timeDelta -= timeDelta;
//  628             pNewDevice = pNewDevice->next;
//  629           }
//  630 
//  631           osal_start_timerEx( ZDAppTaskID, ZDO_NEW_DEVICE, timeDelta );
//  632         }
//  633       }
//  634 
//  635       // Return unprocessed events
//  636       return (events ^ ZDO_NEW_DEVICE);
//  637     }
//  638   }
//  639 
//  640   if ( events & ZDO_DEVICE_AUTH )
        MOV     A,R6
        ANL     A,#0x80
        JZ      ??ZDApp_ProcessSecEvent_0
//  641   {
//  642     ZDApp_DeviceAuthEvt();
        ; Setup parameters for call to function ZDApp_DeviceAuthEvt
        LCALL   `??ZDApp_DeviceAuthEvt::?relay`; Banked call to: ZDApp_DeviceAuthEvt
//  643 
//  644     // Return unprocessed events
//  645     return (events ^ ZDO_DEVICE_AUTH);
        MOV     A,R6
        XRL     A,#0x80
        MOV     R2,A
        MOV     A,R7
        SJMP    ??ZDApp_ProcessSecEvent_1
//  646   }
//  647 
//  648   if ( events & ZDO_FRAMECOUNTER_CHANGE )
??ZDApp_ProcessSecEvent_0:
        MOV     A,R7
        ANL     A,#0x2
        JZ      ??ZDApp_ProcessSecEvent_2
//  649   {
//  650     ZDApp_SaveNwkKey();
        ; Setup parameters for call to function ZDApp_SaveNwkKey
        LCALL   `??ZDApp_SaveNwkKey::?relay`; Banked call to: ZDApp_SaveNwkKey
//  651 
//  652     // Return unprocessed events
//  653     return (events ^ ZDO_FRAMECOUNTER_CHANGE);
        MOV     A,R6
        MOV     R2,A
        MOV     A,R7
        XRL     A,#0x2
        SJMP    ??ZDApp_ProcessSecEvent_1
//  654   }
//  655 
//  656   if ( events & ZDO_APS_FRAMECOUNTER_CHANGE )
??ZDApp_ProcessSecEvent_2:
        MOV     A,R7
        ANL     A,#0x8
        JZ      ??ZDApp_ProcessSecEvent_3
//  657   {
//  658 #if defined (NV_RESTORE)
//  659     ZDSecMgrSaveApsLinkKey();
//  660 #endif // (NV_RESTORE)
//  661 
//  662     // Return unprocessed events
//  663     return (events ^ ZDO_APS_FRAMECOUNTER_CHANGE);
        MOV     A,R7
        XRL     A,#0x8
        SJMP    ??ZDApp_ProcessSecEvent_1
//  664   }
//  665 
//  666   if ( events & ZDO_TCLK_FRAMECOUNTER_CHANGE )
??ZDApp_ProcessSecEvent_3:
        MOV     A,R7
        ANL     A,#0x4
        JZ      ??ZDApp_ProcessSecEvent_4
//  667   {
//  668     ZDSecMgrSaveTCLinkKey();
        ; Setup parameters for call to function ZDSecMgrSaveTCLinkKey
        LCALL   `??ZDSecMgrSaveTCLinkKey::?relay`; Banked call to: ZDSecMgrSaveTCLinkKey
//  669 
//  670     // Return unprocessed events
//  671     return (events ^ ZDO_TCLK_FRAMECOUNTER_CHANGE);
        MOV     A,R6
        MOV     R2,A
        MOV     A,R7
        XRL     A,#0x4
??ZDApp_ProcessSecEvent_1:
        MOV     R3,A
        SJMP    ??ZDApp_ProcessSecEvent_5
//  672   }
//  673 
//  674   // Discard or make more handlers
//  675   return 0;
??ZDApp_ProcessSecEvent_4:
        MOV     R2,#0x0
        MOV     R3,#0x0
??ZDApp_ProcessSecEvent_5:
        LJMP    ??Subroutine46_0 & 0xFFFF
//  676 }
          CFI EndBlock cfiBlock3
//  677 
//  678 /*********************************************************************
//  679  * Application Functions
//  680  */
//  681 
//  682 /*********************************************************************
//  683  * @fn      ZDOInitDevice
//  684  *
//  685  * @brief   Start the device in the network.  This function will read
//  686  *   ZCD_NV_STARTUP_OPTION (NV item) to determine whether or not to
//  687  *   restore the network state of the device.
//  688  *
//  689  * @param   startDelay - timeDelay to start device (in milliseconds).
//  690  *                       There is a jitter added to this delay:
//  691  *                       ((NWK_START_DELAY + startDelay)
//  692  *                       + (osal_rand() & EXTENDED_JOINING_RANDOM_MASK))
//  693  *                       When startDelay is set to ZDO_INIT_HOLD_NWK_START
//  694  *                       this function will hold the network init. Application
//  695  *                       can start the device.
//  696  *
//  697  * NOTE:    If the application would like to force a "new" join, the
//  698  *          application should set the ZCD_STARTOPT_DEFAULT_NETWORK_STATE
//  699  *          bit in the ZCD_NV_STARTUP_OPTION NV item before calling
//  700  *          this function. "new" join means to not restore the network
//  701  *          state of the device. Use zgWriteStartupOptions() to set these
//  702  *          options.
//  703  *
//  704  * @return
//  705  *    ZDO_INITDEV_RESTORED_NETWORK_STATE  - The device's network state was
//  706  *          restored.
//  707  *    ZDO_INITDEV_NEW_NETWORK_STATE - The network state was initialized.
//  708  *          This could mean that ZCD_NV_STARTUP_OPTION said to not restore, or
//  709  *          it could mean that there was no network state to restore.
//  710  */

        RSEG BANKED_CODE:CODE:NOROOT(0)
//  711 uint8 ZDOInitDevice( uint16 startDelay )
ZDOInitDevice:
          CFI Block cfiBlock4 Using cfiCommon0
          CFI Function ZDOInitDevice
        CODE
//  712 {
        FUNCALL ZDOInitDevice, zgInitItems
        LOCFRAME ISTACK, 0, STACK
        LOCFRAME PSTACK, 0, STACK
        LOCFRAME XSTACK, 12, STACK
        LOCFRAME IOVERLAY, 0, STATIC
        LOCFRAME DOVERLAY, 0, STATIC
        ARGFRAME ISTACK, 0, STACK
        ARGFRAME PSTACK, 0, STACK
        ARGFRAME XSTACK, 12, STACK
        ARGFRAME IOVERLAY, 0, STATIC
        ARGFRAME DOVERLAY, 0, STATIC
        FUNCALL ZDOInitDevice, ZDConfig_InitDescriptors
        LOCFRAME ISTACK, 0, STACK
        LOCFRAME PSTACK, 0, STACK
        LOCFRAME XSTACK, 12, STACK
        LOCFRAME IOVERLAY, 0, STATIC
        LOCFRAME DOVERLAY, 0, STATIC
        ARGFRAME ISTACK, 0, STACK
        ARGFRAME PSTACK, 0, STACK
        ARGFRAME XSTACK, 12, STACK
        ARGFRAME IOVERLAY, 0, STATIC
        ARGFRAME DOVERLAY, 0, STATIC
        FUNCALL ZDOInitDevice, ZDAppDetermineDeviceType
        LOCFRAME ISTACK, 0, STACK
        LOCFRAME PSTACK, 0, STACK
        LOCFRAME XSTACK, 12, STACK
        LOCFRAME IOVERLAY, 0, STATIC
        LOCFRAME DOVERLAY, 0, STATIC
        ARGFRAME ISTACK, 0, STACK
        ARGFRAME PSTACK, 0, STACK
        ARGFRAME XSTACK, 12, STACK
        ARGFRAME IOVERLAY, 0, STATIC
        ARGFRAME DOVERLAY, 0, STATIC
        FUNCALL ZDOInitDevice, osal_rand
        LOCFRAME ISTACK, 0, STACK
        LOCFRAME PSTACK, 0, STACK
        LOCFRAME XSTACK, 12, STACK
        LOCFRAME IOVERLAY, 0, STATIC
        LOCFRAME DOVERLAY, 0, STATIC
        ARGFRAME ISTACK, 0, STACK
        ARGFRAME PSTACK, 0, STACK
        ARGFRAME XSTACK, 12, STACK
        ARGFRAME IOVERLAY, 0, STATIC
        ARGFRAME DOVERLAY, 0, STATIC
        FUNCALL ZDOInitDevice, ZDApp_SecInit
        LOCFRAME ISTACK, 0, STACK
        LOCFRAME PSTACK, 0, STACK
        LOCFRAME XSTACK, 12, STACK
        LOCFRAME IOVERLAY, 0, STATIC
        LOCFRAME DOVERLAY, 0, STATIC
        ARGFRAME ISTACK, 0, STACK
        ARGFRAME PSTACK, 0, STACK
        ARGFRAME XSTACK, 12, STACK
        ARGFRAME IOVERLAY, 0, STATIC
        ARGFRAME DOVERLAY, 0, STATIC
        FUNCALL ZDOInitDevice, ZDApp_LeaveCtrlInit
        LOCFRAME ISTACK, 0, STACK
        LOCFRAME PSTACK, 0, STACK
        LOCFRAME XSTACK, 12, STACK
        LOCFRAME IOVERLAY, 0, STATIC
        LOCFRAME DOVERLAY, 0, STATIC
        ARGFRAME ISTACK, 0, STACK
        ARGFRAME PSTACK, 0, STACK
        ARGFRAME XSTACK, 12, STACK
        ARGFRAME IOVERLAY, 0, STATIC
        ARGFRAME DOVERLAY, 0, STATIC
        FUNCALL ZDOInitDevice, ZDApp_NetworkInit
        LOCFRAME ISTACK, 0, STACK
        LOCFRAME PSTACK, 0, STACK
        LOCFRAME XSTACK, 12, STACK
        LOCFRAME IOVERLAY, 0, STATIC
        LOCFRAME DOVERLAY, 0, STATIC
        ARGFRAME ISTACK, 0, STACK
        ARGFRAME PSTACK, 0, STACK
        ARGFRAME XSTACK, 12, STACK
        ARGFRAME IOVERLAY, 0, STATIC
        ARGFRAME DOVERLAY, 0, STATIC
        FUNCALL ZDOInitDevice, NLME_SetBroadcastFilter
        LOCFRAME ISTACK, 0, STACK
        LOCFRAME PSTACK, 0, STACK
        LOCFRAME XSTACK, 12, STACK
        LOCFRAME IOVERLAY, 0, STATIC
        LOCFRAME DOVERLAY, 0, STATIC
        ARGFRAME ISTACK, 0, STACK
        ARGFRAME PSTACK, 0, STACK
        ARGFRAME XSTACK, 12, STACK
        ARGFRAME IOVERLAY, 0, STATIC
        ARGFRAME DOVERLAY, 0, STATIC
        REQUIRE ?V0
        REQUIRE ?V1
        REQUIRE ?V2
        REQUIRE ?V3
        MOV     A,#-0xc
        LCALL   ?BANKED_ENTER_XDATA
          CFI DPH0 load(1, XDATA, add(CFA_XSP16, literal(-1)))
          CFI DPL0 load(1, XDATA, add(CFA_XSP16, literal(-2)))
          CFI ?BRET_EXT load(1, XDATA, add(CFA_XSP16, literal(-3)))
          CFI ?RET_HIGH load(1, XDATA, add(CFA_XSP16, literal(-4)))
          CFI ?RET_LOW load(1, XDATA, add(CFA_XSP16, literal(-5)))
          CFI R7 load(1, XDATA, add(CFA_XSP16, literal(-6)))
          CFI V3 load(1, XDATA, add(CFA_XSP16, literal(-7)))
          CFI V2 load(1, XDATA, add(CFA_XSP16, literal(-8)))
          CFI V1 load(1, XDATA, add(CFA_XSP16, literal(-9)))
          CFI V0 load(1, XDATA, add(CFA_XSP16, literal(-10)))
          CFI VB load(1, XDATA, add(CFA_XSP16, literal(-11)))
          CFI R6 load(1, XDATA, add(CFA_XSP16, literal(-12)))
          CFI CFA_SP SP+0
          CFI CFA_XSP16 add(XSP16, 12)
        ; Saved register size: 12
        ; Auto size: 0
        MOV     ?V0,R2
        MOV     ?V1,R3
//  713   uint8 networkStateNV = ZDO_INITDEV_NEW_NETWORK_STATE;
//  714   uint16 extendedDelay = 0;
//  715 
//  716   if ( devState == DEV_HOLD )
        MOV     DPTR,#devState
        MOVX    A,@DPTR
        JNZ     ??ZDOInitDevice_0
//  717   {
//  718     // Initialize the RAM items table, in case an NV item has been updated.
//  719     zgInitItems( FALSE );
        ; Setup parameters for call to function zgInitItems
        MOV     R1,#0x0
        LCALL   `??zgInitItems::?relay`; Banked call to: zgInitItems
//  720   }
//  721 
//  722   ZDConfig_InitDescriptors();
??ZDOInitDevice_0:
        ; Setup parameters for call to function ZDConfig_InitDescriptors
        LCALL   `??ZDConfig_InitDescriptors::?relay`; Banked call to: ZDConfig_InitDescriptors
//  723   //devtag.071807.todo - fix this temporary solution
//  724   _NIB.CapabilityFlags = ZDO_Config_Node_Descriptor.CapabilityFlags;
        MOV     DPTR,#ZDO_Config_Node_Descriptor + 2
        MOVX    A,@DPTR
        MOV     DPTR,#_NIB + 14
        MOVX    @DPTR,A
//  725 
//  726 #if defined ( NV_RESTORE )
//  727   // Hold down the SW_BYPASS_NV key (defined in OnBoard.h)
//  728   // while booting to skip past NV Restore.
//  729   if ( zdappHoldKeys == SW_BYPASS_NV )
//  730   {
//  731     zdappHoldKeys = 0;   // Only once
//  732     networkStateNV = ZDO_INITDEV_NEW_NETWORK_STATE;
//  733   }
//  734   else
//  735   {
//  736     // Determine if NV should be restored
//  737     networkStateNV = ZDApp_ReadNetworkRestoreState();
//  738   }
//  739 
//  740   if ( networkStateNV == ZDO_INITDEV_RESTORED_NETWORK_STATE )
//  741   {
//  742     networkStateNV = ZDApp_RestoreNetworkState();
//  743     runtimeChannel = (uint32) (1L << _NIB.nwkLogicalChannel);
//  744   }
//  745   else
//  746   {
//  747     // Wipe out the network state in NV
//  748     NLME_InitNV();
//  749     NLME_SetDefaultNV();
//  750     // clear NWK key values
//  751     ZDSecMgrClearNVKeyValues();
//  752   }
//  753 #endif
//  754 
//  755   if ( networkStateNV == ZDO_INITDEV_NEW_NETWORK_STATE )
//  756   {
//  757     ZDAppDetermineDeviceType();
        ; Setup parameters for call to function ZDAppDetermineDeviceType
        LCALL   `??ZDAppDetermineDeviceType::?relay`; Banked call to: ZDAppDetermineDeviceType
//  758 
//  759     // Only delay if joining network - not restoring network state
//  760     extendedDelay = (uint16)((NWK_START_DELAY + startDelay)
//  761               + (osal_rand() & EXTENDED_JOINING_RANDOM_MASK));
        ; Setup parameters for call to function osal_rand
        LCALL   `??osal_rand::?relay`; Banked call to: osal_rand
        MOV     A,R2
        ANL     A,#0x7f
        MOV     R0,A
        MOV     A,?V0
        ADD     A,R0
        MOV     R0,A
        CLR     A
        ADDC    A,?V1
        MOV     R1,A
        MOV     A,R0
        ADD     A,#0x64
        MOV     R6,A
        CLR     A
        ADDC    A,R1
        MOV     R7,A
//  762 
//  763     runtimeChannel = zgDefaultChannelList;
        MOV     DPTR,#zgDefaultChannelList
        LCALL   ?XLOAD_R0123
        MOV     DPTR,#runtimeChannel
        LCALL   ?XSTORE_R0123
//  764   }
//  765 
//  766   // Initialize the security for type of device
//  767   ZDApp_SecInit( networkStateNV );
        ; Setup parameters for call to function ZDApp_SecInit
        MOV     R1,#0x1
        LCALL   `??ZDApp_SecInit::?relay`; Banked call to: ZDApp_SecInit
//  768 
//  769   if( ZDO_INIT_HOLD_NWK_START != startDelay )
        MOV     A,#-0x1
        XRL     A,?V0
        JNZ     ??ZDOInitDevice_1
        MOV     A,#-0x1
        XRL     A,?V1
??ZDOInitDevice_1:
        JZ      ??ZDOInitDevice_2
//  770   {
//  771     devState = DEV_INIT;    // Remove the Hold state
        MOV     DPTR,#devState
        MOV     A,#0x1
        MOVX    @DPTR,A
//  772 
//  773     // Initialize leave control logic
//  774     ZDApp_LeaveCtrlInit();
        ; Setup parameters for call to function ZDApp_LeaveCtrlInit
        LCALL   `??ZDApp_LeaveCtrlInit::?relay`; Banked call to: ZDApp_LeaveCtrlInit
//  775 
//  776     // Trigger the network start
//  777     ZDApp_NetworkInit( extendedDelay );
        ; Setup parameters for call to function ZDApp_NetworkInit
        MOV     A,R6
        MOV     R2,A
        MOV     A,R7
        MOV     R3,A
        LCALL   `??ZDApp_NetworkInit::?relay`; Banked call to: ZDApp_NetworkInit
//  778   }
//  779 
//  780   // set broadcast address mask to support broadcast filtering
//  781   NLME_SetBroadcastFilter( ZDO_Config_Node_Descriptor.CapabilityFlags );
??ZDOInitDevice_2:
        ; Setup parameters for call to function NLME_SetBroadcastFilter
        MOV     DPTR,#ZDO_Config_Node_Descriptor + 2
        MOVX    A,@DPTR
        MOV     R1,A
        LCALL   `??NLME_SetBroadcastFilter::?relay`; Banked call to: NLME_SetBroadcastFilter
//  782 
//  783   return ( networkStateNV );
        MOV     R1,#0x1
        LJMP    ??Subroutine54_0 & 0xFFFF
//  784 }
          CFI EndBlock cfiBlock4
//  785 
//  786 /*********************************************************************
//  787  * @fn      ZDApp_ReadNetworkRestoreState
//  788  *
//  789  * @brief   Read the ZCD_NV_STARTUP_OPTION NV Item to state whether
//  790  *          or not to restore the network state.
//  791  *          If the read value has the ZCD_STARTOPT_DEFAULT_NETWORK_STATE
//  792  *          bit set return the ZDO_INITDEV_NEW_NETWORK_STATE.
//  793  *
//  794  * @param   none
//  795  *
//  796  * @return  ZDO_INITDEV_NEW_NETWORK_STATE
//  797  *          or ZDO_INITDEV_RESTORED_NETWORK_STATE based on whether or
//  798  *          not ZCD_STARTOPT_DEFAULT_NETWORK_STATE bit is set in
//  799  *          ZCD_NV_STARTUP_OPTION
//  800  */

        RSEG BANKED_CODE:CODE:NOROOT(0)
//  801 uint8 ZDApp_ReadNetworkRestoreState( void )
ZDApp_ReadNetworkRestoreState:
          CFI Block cfiBlock5 Using cfiCommon0
          CFI Function ZDApp_ReadNetworkRestoreState
        CODE
//  802 {
        FUNCALL ZDApp_ReadNetworkRestoreState, zgReadStartupOptions
        LOCFRAME ISTACK, 0, STACK
        LOCFRAME PSTACK, 0, STACK
        LOCFRAME XSTACK, 9, STACK
        LOCFRAME IOVERLAY, 0, STATIC
        LOCFRAME DOVERLAY, 0, STATIC
        ARGFRAME ISTACK, 0, STACK
        ARGFRAME PSTACK, 0, STACK
        ARGFRAME XSTACK, 9, STACK
        ARGFRAME IOVERLAY, 0, STATIC
        ARGFRAME DOVERLAY, 0, STATIC
        MOV     A,#-0x9
        LCALL   ?BANKED_ENTER_XDATA
          CFI DPH0 load(1, XDATA, add(CFA_XSP16, literal(-1)))
          CFI DPL0 load(1, XDATA, add(CFA_XSP16, literal(-2)))
          CFI ?BRET_EXT load(1, XDATA, add(CFA_XSP16, literal(-3)))
          CFI ?RET_HIGH load(1, XDATA, add(CFA_XSP16, literal(-4)))
          CFI ?RET_LOW load(1, XDATA, add(CFA_XSP16, literal(-5)))
          CFI R7 load(1, XDATA, add(CFA_XSP16, literal(-6)))
          CFI V0 load(1, XDATA, add(CFA_XSP16, literal(-7)))
          CFI VB load(1, XDATA, add(CFA_XSP16, literal(-8)))
          CFI R6 load(1, XDATA, add(CFA_XSP16, literal(-9)))
          CFI CFA_SP SP+0
          CFI CFA_XSP16 add(XSP16, 9)
        ; Saved register size: 9
        ; Auto size: 0
//  803   uint8 networkStateNV = ZDO_INITDEV_RESTORED_NETWORK_STATE;
        MOV     R6,#0x0
//  804 
//  805   // Look for the New Network State option.
//  806   if ( zgReadStartupOptions() & ZCD_STARTOPT_DEFAULT_NETWORK_STATE )
        ; Setup parameters for call to function zgReadStartupOptions
        LCALL   `??zgReadStartupOptions::?relay`; Banked call to: zgReadStartupOptions
        MOV     A,R1
        MOV     R0,A
        MOV     C,0xE0 /* A   */.1
        JNC     ??ZDApp_ReadNetworkRestoreState_0
//  807   {
//  808     networkStateNV = ZDO_INITDEV_NEW_NETWORK_STATE;
        MOV     R6,#0x1
//  809   }
//  810 
//  811   return ( networkStateNV );
??ZDApp_ReadNetworkRestoreState_0:
        MOV     A,R6
        MOV     R1,A
        LJMP    ??Subroutine46_0 & 0xFFFF
//  812 }
          CFI EndBlock cfiBlock5
//  813 
//  814 /*********************************************************************
//  815  * @fn      ZDAppDetermineDeviceType()
//  816  *
//  817  * @brief   Determines the type of device to start.
//  818  *
//  819  *          Looks at zgDeviceLogicalType and determines what type of
//  820  *          device to start.  The types are:
//  821  *            ZG_DEVICETYPE_COORDINATOR
//  822  *            ZG_DEVICETYPE_ROUTER
//  823  *            ZG_DEVICETYPE_ENDDEVICE
//  824  *
//  825  * @param   none
//  826  *
//  827  * @return  none
//  828  */

        RSEG BANKED_CODE:CODE:NOROOT(0)
//  829 void ZDAppDetermineDeviceType( void )
ZDAppDetermineDeviceType:
          CFI Block cfiBlock6 Using cfiCommon0
          CFI Function ZDAppDetermineDeviceType
        CODE
//  830 {
        FUNCALL ZDAppDetermineDeviceType, nwk_ExtPANIDValid
        LOCFRAME ISTACK, 2, STACK
        LOCFRAME PSTACK, 0, STACK
        LOCFRAME XSTACK, 0, STACK
        LOCFRAME IOVERLAY, 0, STATIC
        LOCFRAME DOVERLAY, 0, STATIC
        ARGFRAME ISTACK, 2, STACK
        ARGFRAME PSTACK, 0, STACK
        ARGFRAME XSTACK, 0, STACK
        ARGFRAME IOVERLAY, 0, STATIC
        ARGFRAME DOVERLAY, 0, STATIC
        PUSH    DPL
          CFI DPL0 Frame(CFA_SP, 4)
          CFI CFA_SP SP+-4
        PUSH    DPH
          CFI DPH0 Frame(CFA_SP, 5)
          CFI CFA_SP SP+-5
        ; Saved register size: 2
        ; Auto size: 0
//  831   if ( zgDeviceLogicalType == ZG_DEVICETYPE_COORDINATOR )
        MOV     DPTR,#zgDeviceLogicalType
        MOVX    A,@DPTR
        JNZ     ??ZDAppDetermineDeviceType_0
//  832   {
//  833     devStartMode = MODE_HARD;     // Start as a coordinator
        MOV     DPTR,#devStartMode
        MOV     A,#0x2
        MOVX    @DPTR,A
//  834     ZDO_Config_Node_Descriptor.LogicalType = NODETYPE_COORDINATOR;
        MOV     DPTR,#ZDO_Config_Node_Descriptor
        MOVX    A,@DPTR
        ANL     A,#0xf8
        SJMP    ??ZDAppDetermineDeviceType_1
//  835   }
//  836   else
//  837   {
//  838     if ( zgDeviceLogicalType == ZG_DEVICETYPE_ROUTER  )
??ZDAppDetermineDeviceType_0:
        XRL     A,#0x1
        JNZ     ??ZDAppDetermineDeviceType_2
//  839       ZDO_Config_Node_Descriptor.LogicalType = NODETYPE_ROUTER;
        MOV     DPTR,#ZDO_Config_Node_Descriptor
        MOVX    A,@DPTR
        ANL     A,#0xf8
        MOVX    @DPTR,A
        ORL     A,#0x1
        SJMP    ??ZDAppDetermineDeviceType_3
//  840     else if ( zgDeviceLogicalType == ZG_DEVICETYPE_ENDDEVICE )
??ZDAppDetermineDeviceType_2:
        MOVX    A,@DPTR
        XRL     A,#0x2
        JNZ     ??ZDAppDetermineDeviceType_4
//  841       ZDO_Config_Node_Descriptor.LogicalType = NODETYPE_DEVICE;
        MOV     DPTR,#ZDO_Config_Node_Descriptor
        MOVX    A,@DPTR
        ANL     A,#0xf8
        MOVX    @DPTR,A
        ORL     A,#0x2
??ZDAppDetermineDeviceType_3:
        MOVX    @DPTR,A
//  842 
//  843     // If AIB_apsUseExtendedPANID is set to a non-zero value by commissioning
//  844     // The device shall do rejoin the network. Otherwise, do normal join
//  845     if ( nwk_ExtPANIDValid( AIB_apsUseExtendedPANID ) == false )
??ZDAppDetermineDeviceType_4:
        ; Setup parameters for call to function nwk_ExtPANIDValid
        MOV     R2,#AIB_apsUseExtendedPANID & 0xff
        MOV     R3,#(AIB_apsUseExtendedPANID >> 8) & 0xff
        LCALL   `??nwk_ExtPANIDValid::?relay`; Banked call to: nwk_ExtPANIDValid
        MOV     A,R1
        MOV     DPTR,#devStartMode
        JNZ     ??ZDAppDetermineDeviceType_5
//  846     {
//  847       devStartMode = MODE_JOIN;     // Assume joining
        CLR     A
        SJMP    ??ZDAppDetermineDeviceType_1
//  848     }
//  849     else
//  850     {
//  851       devStartMode = MODE_REJOIN;
??ZDAppDetermineDeviceType_5:
        MOV     A,#0x3
        MOVX    @DPTR,A
//  852       prevDevState = DEV_NWK_SEC_REJOIN_CURR_CHANNEL;
        MOV     DPTR,#prevDevState
        INC     A
??ZDAppDetermineDeviceType_1:
        MOVX    @DPTR,A
//  853     }
//  854   }
//  855 }
        LJMP    ??Subroutine40_0 & 0xFFFF
          CFI EndBlock cfiBlock6
//  856 
//  857 /*********************************************************************
//  858  * @fn      ZDApp_NetworkStartEvt()
//  859  *
//  860  * @brief   Process the Network Start Event
//  861  *
//  862  * @param   none
//  863  *
//  864  * @return  none
//  865  */

        RSEG BANKED_CODE:CODE:NOROOT(0)
//  866 void ZDApp_NetworkStartEvt( void )
ZDApp_NetworkStartEvt:
          CFI Block cfiBlock7 Using cfiCommon0
          CFI Function ZDApp_NetworkStartEvt
        CODE
//  867 {
        FUNCALL ZDApp_NetworkStartEvt, ZDApp_ChangeState
        LOCFRAME ISTACK, 2, STACK
        LOCFRAME PSTACK, 0, STACK
        LOCFRAME XSTACK, 0, STACK
        LOCFRAME IOVERLAY, 0, STATIC
        LOCFRAME DOVERLAY, 0, STATIC
        ARGFRAME ISTACK, 2, STACK
        ARGFRAME PSTACK, 0, STACK
        ARGFRAME XSTACK, 0, STACK
        ARGFRAME IOVERLAY, 0, STATIC
        ARGFRAME DOVERLAY, 0, STATIC
        FUNCALL ZDApp_NetworkStartEvt, ZDApp_SetParentAnnceTimer
        LOCFRAME ISTACK, 2, STACK
        LOCFRAME PSTACK, 0, STACK
        LOCFRAME XSTACK, 0, STACK
        LOCFRAME IOVERLAY, 0, STATIC
        LOCFRAME DOVERLAY, 0, STATIC
        ARGFRAME ISTACK, 2, STACK
        ARGFRAME PSTACK, 0, STACK
        ARGFRAME XSTACK, 0, STACK
        ARGFRAME IOVERLAY, 0, STATIC
        ARGFRAME DOVERLAY, 0, STATIC
        FUNCALL ZDApp_NetworkStartEvt, osal_set_event
        LOCFRAME ISTACK, 2, STACK
        LOCFRAME PSTACK, 0, STACK
        LOCFRAME XSTACK, 0, STACK
        LOCFRAME IOVERLAY, 0, STATIC
        LOCFRAME DOVERLAY, 0, STATIC
        ARGFRAME ISTACK, 2, STACK
        ARGFRAME PSTACK, 0, STACK
        ARGFRAME XSTACK, 0, STACK
        ARGFRAME IOVERLAY, 0, STATIC
        ARGFRAME DOVERLAY, 0, STATIC
        FUNCALL ZDApp_NetworkStartEvt, osal_pwrmgr_device
        LOCFRAME ISTACK, 2, STACK
        LOCFRAME PSTACK, 0, STACK
        LOCFRAME XSTACK, 0, STACK
        LOCFRAME IOVERLAY, 0, STATIC
        LOCFRAME DOVERLAY, 0, STATIC
        ARGFRAME ISTACK, 2, STACK
        ARGFRAME PSTACK, 0, STACK
        ARGFRAME XSTACK, 0, STACK
        ARGFRAME IOVERLAY, 0, STATIC
        ARGFRAME DOVERLAY, 0, STATIC
        FUNCALL ZDApp_NetworkStartEvt, NLME_GetEnergyThreshold
        LOCFRAME ISTACK, 2, STACK
        LOCFRAME PSTACK, 0, STACK
        LOCFRAME XSTACK, 0, STACK
        LOCFRAME IOVERLAY, 0, STATIC
        LOCFRAME DOVERLAY, 0, STATIC
        ARGFRAME ISTACK, 2, STACK
        ARGFRAME PSTACK, 0, STACK
        ARGFRAME XSTACK, 0, STACK
        ARGFRAME IOVERLAY, 0, STATIC
        ARGFRAME DOVERLAY, 0, STATIC
        FUNCALL ZDApp_NetworkStartEvt, NLME_GetEnergyThreshold
        LOCFRAME ISTACK, 2, STACK
        LOCFRAME PSTACK, 0, STACK
        LOCFRAME XSTACK, 0, STACK
        LOCFRAME IOVERLAY, 0, STATIC
        LOCFRAME DOVERLAY, 0, STATIC
        ARGFRAME ISTACK, 2, STACK
        ARGFRAME PSTACK, 0, STACK
        ARGFRAME XSTACK, 0, STACK
        ARGFRAME IOVERLAY, 0, STATIC
        ARGFRAME DOVERLAY, 0, STATIC
        FUNCALL ZDApp_NetworkStartEvt, NLME_SetEnergyThreshold
        LOCFRAME ISTACK, 2, STACK
        LOCFRAME PSTACK, 0, STACK
        LOCFRAME XSTACK, 0, STACK
        LOCFRAME IOVERLAY, 0, STATIC
        LOCFRAME DOVERLAY, 0, STATIC
        ARGFRAME ISTACK, 2, STACK
        ARGFRAME PSTACK, 0, STACK
        ARGFRAME XSTACK, 0, STACK
        ARGFRAME IOVERLAY, 0, STATIC
        ARGFRAME DOVERLAY, 0, STATIC
        FUNCALL ZDApp_NetworkStartEvt, osal_set_event
        LOCFRAME ISTACK, 2, STACK
        LOCFRAME PSTACK, 0, STACK
        LOCFRAME XSTACK, 0, STACK
        LOCFRAME IOVERLAY, 0, STATIC
        LOCFRAME DOVERLAY, 0, STATIC
        ARGFRAME ISTACK, 2, STACK
        ARGFRAME PSTACK, 0, STACK
        ARGFRAME XSTACK, 0, STACK
        ARGFRAME IOVERLAY, 0, STATIC
        ARGFRAME DOVERLAY, 0, STATIC
        FUNCALL ZDApp_NetworkStartEvt, ZDApp_ChangeState
        LOCFRAME ISTACK, 2, STACK
        LOCFRAME PSTACK, 0, STACK
        LOCFRAME XSTACK, 0, STACK
        LOCFRAME IOVERLAY, 0, STATIC
        LOCFRAME DOVERLAY, 0, STATIC
        ARGFRAME ISTACK, 2, STACK
        ARGFRAME PSTACK, 0, STACK
        ARGFRAME XSTACK, 0, STACK
        ARGFRAME IOVERLAY, 0, STATIC
        ARGFRAME DOVERLAY, 0, STATIC
        PUSH    DPL
          CFI DPL0 Frame(CFA_SP, 4)
          CFI CFA_SP SP+-4
        PUSH    DPH
          CFI DPH0 Frame(CFA_SP, 5)
          CFI CFA_SP SP+-5
        ; Saved register size: 2
        ; Auto size: 0
//  868   if ( nwkStatus == ZSuccess )
        MOV     DPTR,#nwkStatus
        MOVX    A,@DPTR
        JNZ     ??ZDApp_NetworkStartEvt_0
//  869   {
//  870     // Successfully started a ZigBee network
//  871     if ( devState == DEV_COORD_STARTING )
        MOV     DPTR,#devState
        MOVX    A,@DPTR
        XRL     A,#0x8
        JNZ     ??ZDApp_NetworkStartEvt_1
//  872     {
//  873       //save NIB to NV before child joins if NV_RESTORE is defined
//  874       ZDApp_NwkWriteNVRequest();
//  875       ZDApp_ChangeState( DEV_ZB_COORD );
        ; Setup parameters for call to function ZDApp_ChangeState
        MOV     R1,#0x9
        LCALL   `??ZDApp_ChangeState::?relay`; Banked call to: ZDApp_ChangeState
//  876 
//  877       if ( zgChildAgingEnable == TRUE )
        MOV     DPTR,#zgChildAgingEnable
        MOVX    A,@DPTR
        XRL     A,#0x1
        JNZ     ??ZDApp_NetworkStartEvt_2
//  878       {
//  879         // Once the device has changed its state to a COORDINATOR set the timer to send
//  880         // Parent annce
//  881         ZDApp_SetParentAnnceTimer();
        ; Setup parameters for call to function ZDApp_SetParentAnnceTimer
        LCALL   `??ZDApp_SetParentAnnceTimer::?relay`; Banked call to: ZDApp_SetParentAnnceTimer
        SJMP    ??ZDApp_NetworkStartEvt_2
//  882       }
//  883     }
//  884     else
//  885     {
//  886       osal_set_event( ZDAppTaskID, ZDO_STATE_CHANGE_EVT );
??ZDApp_NetworkStartEvt_1:
        ; Setup parameters for call to function osal_set_event
        MOV     R2,#0x10
        MOV     R3,#0x0
        MOV     DPTR,#ZDAppTaskID
        MOVX    A,@DPTR
        MOV     R1,A
        LCALL   `??osal_set_event::?relay`; Banked call to: osal_set_event
//  887     }
//  888 
//  889     osal_pwrmgr_device( PWRMGR_ALWAYS_ON );
??ZDApp_NetworkStartEvt_2:
        ; Setup parameters for call to function osal_pwrmgr_device
        MOV     R1,#0x0
        LCALL   `??osal_pwrmgr_device::?relay`; Banked call to: osal_pwrmgr_device
        SJMP    ??ZDApp_NetworkStartEvt_3
//  890   }
//  891   else
//  892   {
//  893     // Try again with a higher energy threshold
//  894     if ( ( NLME_GetEnergyThreshold() + ENERGY_SCAN_INCREMENT ) < 0xff )
??ZDApp_NetworkStartEvt_0:
        ; Setup parameters for call to function NLME_GetEnergyThreshold
        LCALL   `??NLME_GetEnergyThreshold::?relay`; Banked call to: NLME_GetEnergyThreshold
        MOV     A,R1
        MOV     R1,#0x0
        ADD     A,#0x10
        JNC     ??ZDApp_NetworkStartEvt_4
        INC     R1
??ZDApp_NetworkStartEvt_4:
        CLR     C
        SUBB    A,#-0x1
        MOV     A,R1
        SUBB    A,#0x0
        MOV     C,0xD0 /* PSW */.2
        XRL     A,PSW
        RLC     A
        JNC     ??ZDApp_NetworkStartEvt_5
//  895     {
//  896       NLME_SetEnergyThreshold( (uint8)(NLME_GetEnergyThreshold() + ENERGY_SCAN_INCREMENT) );
        ; Setup parameters for call to function NLME_GetEnergyThreshold
        LCALL   `??NLME_GetEnergyThreshold::?relay`; Banked call to: NLME_GetEnergyThreshold
        MOV     A,R1
        MOV     R0,A
        ; Setup parameters for call to function NLME_SetEnergyThreshold
        MOV     A,#0x10
        ADD     A,R1
        MOV     R1,A
        LCALL   `??NLME_SetEnergyThreshold::?relay`; Banked call to: NLME_SetEnergyThreshold
//  897       osal_set_event( ZDAppTaskID, ZDO_NETWORK_INIT );
        ; Setup parameters for call to function osal_set_event
        MOV     R2,#0x1
        MOV     R3,#0x0
        MOV     DPTR,#ZDAppTaskID
        MOVX    A,@DPTR
        MOV     R1,A
        LCALL   `??osal_set_event::?relay`; Banked call to: osal_set_event
        SJMP    ??ZDApp_NetworkStartEvt_3
//  898     }
//  899     else
//  900     {
//  901       // Failed to start network. Enter a dormant state (until user intervenes)
//  902       ZDApp_ChangeState( DEV_INIT );
??ZDApp_NetworkStartEvt_5:
        ; Setup parameters for call to function ZDApp_ChangeState
        MOV     R1,#0x1
        LCALL   `??ZDApp_ChangeState::?relay`; Banked call to: ZDApp_ChangeState
//  903     }
//  904   }
//  905 }
??ZDApp_NetworkStartEvt_3:
        LJMP    ??Subroutine40_0 & 0xFFFF
          CFI EndBlock cfiBlock7
//  906 
//  907 /*********************************************************************
//  908  * @fn      ZDApp_DeviceAuthEvt()
//  909  *
//  910  * @brief   Process the Device Authentic Event
//  911  *
//  912  * @param   none
//  913  *
//  914  * @return  none
//  915  */

        RSEG BANKED_CODE:CODE:NOROOT(0)
//  916 void ZDApp_DeviceAuthEvt( void )
ZDApp_DeviceAuthEvt:
          CFI Block cfiBlock8 Using cfiCommon0
          CFI Function ZDApp_DeviceAuthEvt
        CODE
//  917 {
        FUNCALL ZDApp_DeviceAuthEvt, ZDApp_ResetTimerCancel
        LOCFRAME ISTACK, 2, STACK
        LOCFRAME PSTACK, 0, STACK
        LOCFRAME XSTACK, 0, STACK
        LOCFRAME IOVERLAY, 0, STATIC
        LOCFRAME DOVERLAY, 0, STATIC
        ARGFRAME ISTACK, 2, STACK
        ARGFRAME PSTACK, 0, STACK
        ARGFRAME XSTACK, 0, STACK
        ARGFRAME IOVERLAY, 0, STATIC
        ARGFRAME DOVERLAY, 0, STATIC
        FUNCALL ZDApp_DeviceAuthEvt, ZDApp_ChangeState
        LOCFRAME ISTACK, 2, STACK
        LOCFRAME PSTACK, 0, STACK
        LOCFRAME XSTACK, 0, STACK
        LOCFRAME IOVERLAY, 0, STATIC
        LOCFRAME DOVERLAY, 0, STATIC
        ARGFRAME ISTACK, 2, STACK
        ARGFRAME PSTACK, 0, STACK
        ARGFRAME XSTACK, 0, STACK
        ARGFRAME IOVERLAY, 0, STATIC
        ARGFRAME DOVERLAY, 0, STATIC
        FUNCALL ZDApp_DeviceAuthEvt, osal_pwrmgr_device
        LOCFRAME ISTACK, 2, STACK
        LOCFRAME PSTACK, 0, STACK
        LOCFRAME XSTACK, 0, STACK
        LOCFRAME IOVERLAY, 0, STATIC
        LOCFRAME DOVERLAY, 0, STATIC
        ARGFRAME ISTACK, 2, STACK
        ARGFRAME PSTACK, 0, STACK
        ARGFRAME XSTACK, 0, STACK
        ARGFRAME IOVERLAY, 0, STATIC
        ARGFRAME DOVERLAY, 0, STATIC
        FUNCALL ZDApp_DeviceAuthEvt, ZDApp_SaveNwkKey
        LOCFRAME ISTACK, 2, STACK
        LOCFRAME PSTACK, 0, STACK
        LOCFRAME XSTACK, 0, STACK
        LOCFRAME IOVERLAY, 0, STATIC
        LOCFRAME DOVERLAY, 0, STATIC
        ARGFRAME ISTACK, 2, STACK
        ARGFRAME PSTACK, 0, STACK
        ARGFRAME XSTACK, 0, STACK
        ARGFRAME IOVERLAY, 0, STATIC
        ARGFRAME DOVERLAY, 0, STATIC
        FUNCALL ZDApp_DeviceAuthEvt, ZDApp_AnnounceNewAddress
        LOCFRAME ISTACK, 2, STACK
        LOCFRAME PSTACK, 0, STACK
        LOCFRAME XSTACK, 0, STACK
        LOCFRAME IOVERLAY, 0, STATIC
        LOCFRAME DOVERLAY, 0, STATIC
        ARGFRAME ISTACK, 2, STACK
        ARGFRAME PSTACK, 0, STACK
        ARGFRAME XSTACK, 0, STACK
        ARGFRAME IOVERLAY, 0, STATIC
        ARGFRAME DOVERLAY, 0, STATIC
        FUNCALL ZDApp_DeviceAuthEvt, NLME_SetPollRate
        LOCFRAME ISTACK, 2, STACK
        LOCFRAME PSTACK, 0, STACK
        LOCFRAME XSTACK, 0, STACK
        LOCFRAME IOVERLAY, 0, STATIC
        LOCFRAME DOVERLAY, 0, STATIC
        ARGFRAME ISTACK, 2, STACK
        ARGFRAME PSTACK, 0, STACK
        ARGFRAME XSTACK, 0, STACK
        ARGFRAME IOVERLAY, 0, STATIC
        ARGFRAME DOVERLAY, 0, STATIC
        PUSH    DPL
          CFI DPL0 Frame(CFA_SP, 4)
          CFI CFA_SP SP+-4
        PUSH    DPH
          CFI DPH0 Frame(CFA_SP, 5)
          CFI CFA_SP SP+-5
        ; Saved register size: 2
        ; Auto size: 0
//  918   // received authentication from trust center
//  919   if ( devState == DEV_END_DEVICE_UNAUTH )
        MOV     DPTR,#devState
        MOVX    A,@DPTR
        XRL     A,#0x5
        JNZ     ??ZDApp_DeviceAuthEvt_0
//  920   {
//  921     // Stop the reset timer so it doesn't reset
//  922     ZDApp_ResetTimerCancel();
        ; Setup parameters for call to function ZDApp_ResetTimerCancel
        LCALL   `??ZDApp_ResetTimerCancel::?relay`; Banked call to: ZDApp_ResetTimerCancel
//  923 
//  924     ZDApp_ChangeState( DEV_END_DEVICE );
        ; Setup parameters for call to function ZDApp_ChangeState
        MOV     R1,#0x6
        LCALL   `??ZDApp_ChangeState::?relay`; Banked call to: ZDApp_ChangeState
//  925 
//  926     // Set the Power Manager Device
//  927 #if defined ( POWER_SAVING )
//  928     osal_pwrmgr_device( PWRMGR_BATTERY );
        ; Setup parameters for call to function osal_pwrmgr_device
        MOV     R1,#0x1
        LCALL   `??osal_pwrmgr_device::?relay`; Banked call to: osal_pwrmgr_device
//  929 #endif
//  930 
//  931     if ( ZSTACK_ROUTER_BUILD )
//  932     {
//  933       if ( ZDO_Config_Node_Descriptor.LogicalType != NODETYPE_DEVICE )
//  934       {
//  935         // NOTE: first two parameters are not used, see NLMEDE.h for details
//  936         NLME_StartRouterRequest( 0, 0, false );
//  937       }
//  938     }
//  939 
//  940     // Notify to save info into NV
//  941     ZDApp_NVUpdate();
//  942 
//  943     // Save off the security
//  944     ZDApp_SaveNwkKey();
        ; Setup parameters for call to function ZDApp_SaveNwkKey
        LCALL   `??ZDApp_SaveNwkKey::?relay`; Banked call to: ZDApp_SaveNwkKey
//  945 
//  946     ZDApp_AnnounceNewAddress();
        ; Setup parameters for call to function ZDApp_AnnounceNewAddress
        LCALL   `??ZDApp_AnnounceNewAddress::?relay`; Banked call to: ZDApp_AnnounceNewAddress
//  947 
//  948     if ( ( (ZDO_Config_Node_Descriptor.CapabilityFlags & CAPINFO_RCVR_ON_IDLE) == 0 )
//  949         || ( (ZDO_Config_Node_Descriptor.CapabilityFlags & CAPINFO_RCVR_ON_IDLE)
//  950           && (zgChildAgingEnable == TRUE) ) )
        MOV     DPTR,#ZDO_Config_Node_Descriptor + 2
        MOVX    A,@DPTR
        MOV     C,0xE0 /* A   */.3
        JNC     ??ZDApp_DeviceAuthEvt_1
        MOV     DPTR,#zgChildAgingEnable
        MOVX    A,@DPTR
        XRL     A,#0x1
        JNZ     ??ZDApp_DeviceAuthEvt_0
//  951     {
//  952       NLME_SetPollRate( ZDApp_SavedPollRate );
??ZDApp_DeviceAuthEvt_1:
        ; Setup parameters for call to function NLME_SetPollRate
        MOV     DPTR,#ZDApp_SavedPollRate
        LCALL   ?XLOAD_R2345
        LCALL   `??NLME_SetPollRate::?relay`; Banked call to: NLME_SetPollRate
//  953     }
//  954   }
//  955   else
//  956   {
//  957     ZDApp_NVUpdate();
//  958   }
//  959 }
??ZDApp_DeviceAuthEvt_0:
        LJMP    ??Subroutine40_0 & 0xFFFF
          CFI EndBlock cfiBlock8
//  960 
//  961 /*********************************************************************
//  962  * @fn      ZDApp_SaveNetworkStateEvt()
//  963  *
//  964  * @brief   Process the Save the Network State Event
//  965  *
//  966  * @param   none
//  967  *
//  968  * @return  none
//  969  */

        RSEG BANKED_CODE:CODE:NOROOT(0)
//  970 void ZDApp_SaveNetworkStateEvt( void )
ZDApp_SaveNetworkStateEvt:
          CFI Block cfiBlock9 Using cfiCommon0
          CFI Function ZDApp_SaveNetworkStateEvt
        CODE
//  971 {
        ; Saved register size: 0
        ; Auto size: 0
//  972 #if defined ( NV_RESTORE )
//  973  #if defined ( NV_TURN_OFF_RADIO )
//  974   // Turn off the radio's receiver during an NV update
//  975   uint8 RxOnIdle;
//  976   uint8 x = false;
//  977   ZMacGetReq( ZMacRxOnIdle, &RxOnIdle );
//  978   ZMacSetReq( ZMacRxOnIdle, &x );
//  979  #endif
//  980 
//  981   // Update the Network State in NV
//  982   NLME_UpdateNV( NWK_NV_NIB_ENABLE        |
//  983                  NWK_NV_DEVICELIST_ENABLE |
//  984                  NWK_NV_BINDING_ENABLE    |
//  985                  NWK_NV_ADDRMGR_ENABLE );
//  986 
//  987   // Reset the NV startup option to resume from NV by
//  988   // clearing the "New" join option.
//  989   zgWriteStartupOptions( FALSE, ZCD_STARTOPT_DEFAULT_NETWORK_STATE );
//  990 
//  991  #if defined ( NV_TURN_OFF_RADIO )
//  992   ZMacSetReq( ZMacRxOnIdle, &RxOnIdle );
//  993  #endif
//  994 #endif // NV_RESTORE
//  995 }
        LJMP    ?BRET
          CFI EndBlock cfiBlock9
//  996 
//  997 #if defined ( NV_RESTORE )
//  998 /*********************************************************************
//  999  * @fn      ZDApp_RestoreNetworkState()
// 1000  *
// 1001  * @brief   This function will restore the network state of the
// 1002  *          device if the network state is stored in NV.
// 1003  *
// 1004  * @param   none
// 1005  *
// 1006  * @return
// 1007  *    ZDO_INITDEV_RESTORED_NETWORK_STATE  - The device's network state was
// 1008  *          restored.
// 1009  *    ZDO_INITDEV_NEW_NETWORK_STATE - The network state was not used.
// 1010  *          This could mean that zgStartupOption said to not restore, or
// 1011  *          it could mean that there was no network state to restore.
// 1012  *
// 1013  */
// 1014 uint8 ZDApp_RestoreNetworkState( void )
// 1015 {
// 1016   uint8 nvStat;
// 1017 
// 1018   // Initialize NWK NV items
// 1019   nvStat = NLME_InitNV();
// 1020 
// 1021   if ( nvStat != NV_OPER_FAILED )
// 1022   {
// 1023     if ( NLME_RestoreFromNV() )
// 1024     {
// 1025       // Are we a coordinator
// 1026       ZDAppNwkAddr.addr.shortAddr = NLME_GetShortAddr();
// 1027       if ( ZDAppNwkAddr.addr.shortAddr == 0 )
// 1028         ZDO_Config_Node_Descriptor.LogicalType = NODETYPE_COORDINATOR;
// 1029       devStartMode = MODE_RESUME;
// 1030       osal_cpyExtAddr( ZDO_UseExtendedPANID, _NIB.extendedPANID );
// 1031     }
// 1032     else
// 1033       nvStat = NV_ITEM_UNINIT;
// 1034 
// 1035     if ( ZG_SECURE_ENABLED )
// 1036     {
// 1037       nwkFrameCounterChanges = 0;
// 1038 
// 1039       if ( ZG_BUILD_COORDINATOR_TYPE && ZG_DEVICE_COORDINATOR_TYPE )
// 1040       {
// 1041         ZDApp_RestoreNwkKey( TRUE );
// 1042       }
// 1043     }
// 1044 
// 1045     // The default for RxOnWhenIdle is true for Routers and false for end devices
// 1046     // [setup in the NLME_RestoreFromNV()].  Change it here if you want something
// 1047     // other than default.
// 1048   }
// 1049 
// 1050   if ( nvStat == ZSUCCESS )
// 1051     return ( ZDO_INITDEV_RESTORED_NETWORK_STATE );
// 1052   else
// 1053     return ( ZDO_INITDEV_NEW_NETWORK_STATE );
// 1054 }
// 1055 #endif // NV_RESTORE
// 1056 
// 1057 /*********************************************************************
// 1058  * @fn      ZDApp_InitUserDesc()
// 1059  *
// 1060  * @brief   Initialize the User Descriptor, the descriptor is read from NV
// 1061  *          when needed.  If you want to initialize the User descriptor to
// 1062  *          something other than all zero, do it here.
// 1063  *
// 1064  * @param   none
// 1065  *
// 1066  * @return  none
// 1067  */

        RSEG BANKED_CODE:CODE:NOROOT(0)
// 1068 void ZDApp_InitUserDesc( void )
ZDApp_InitUserDesc:
          CFI Block cfiBlock10 Using cfiCommon0
          CFI Function ZDApp_InitUserDesc
        CODE
// 1069 {
        FUNCALL ZDApp_InitUserDesc, osal_memset
        LOCFRAME ISTACK, 0, STACK
        LOCFRAME PSTACK, 0, STACK
        LOCFRAME XSTACK, 27, STACK
        LOCFRAME IOVERLAY, 0, STATIC
        LOCFRAME DOVERLAY, 0, STATIC
        ARGFRAME ISTACK, 0, STACK
        ARGFRAME PSTACK, 0, STACK
        ARGFRAME XSTACK, 27, STACK
        ARGFRAME IOVERLAY, 0, STATIC
        ARGFRAME DOVERLAY, 0, STATIC
        FUNCALL ZDApp_InitUserDesc, osal_nv_item_init
        LOCFRAME ISTACK, 0, STACK
        LOCFRAME PSTACK, 0, STACK
        LOCFRAME XSTACK, 29, STACK
        LOCFRAME IOVERLAY, 0, STATIC
        LOCFRAME DOVERLAY, 0, STATIC
        ARGFRAME ISTACK, 0, STACK
        ARGFRAME PSTACK, 0, STACK
        ARGFRAME XSTACK, 29, STACK
        ARGFRAME IOVERLAY, 0, STATIC
        ARGFRAME DOVERLAY, 0, STATIC
        FUNCALL ZDApp_InitUserDesc, osal_nv_read
        LOCFRAME ISTACK, 0, STACK
        LOCFRAME PSTACK, 0, STACK
        LOCFRAME XSTACK, 31, STACK
        LOCFRAME IOVERLAY, 0, STATIC
        LOCFRAME DOVERLAY, 0, STATIC
        ARGFRAME ISTACK, 0, STACK
        ARGFRAME PSTACK, 0, STACK
        ARGFRAME XSTACK, 31, STACK
        ARGFRAME IOVERLAY, 0, STATIC
        ARGFRAME DOVERLAY, 0, STATIC
        REQUIRE ?V0
        REQUIRE ?V1
        MOV     A,#-0xa
        LCALL   ?BANKED_ENTER_XDATA
          CFI DPH0 load(1, XDATA, add(CFA_XSP16, literal(-1)))
          CFI DPL0 load(1, XDATA, add(CFA_XSP16, literal(-2)))
          CFI ?BRET_EXT load(1, XDATA, add(CFA_XSP16, literal(-3)))
          CFI ?RET_HIGH load(1, XDATA, add(CFA_XSP16, literal(-4)))
          CFI ?RET_LOW load(1, XDATA, add(CFA_XSP16, literal(-5)))
          CFI R7 load(1, XDATA, add(CFA_XSP16, literal(-6)))
          CFI V1 load(1, XDATA, add(CFA_XSP16, literal(-7)))
          CFI V0 load(1, XDATA, add(CFA_XSP16, literal(-8)))
          CFI VB load(1, XDATA, add(CFA_XSP16, literal(-9)))
          CFI R6 load(1, XDATA, add(CFA_XSP16, literal(-10)))
          CFI CFA_SP SP+0
          CFI CFA_XSP16 add(XSP16, 10)
        ; Saved register size: 10
        ; Auto size: 17
        MOV     A,#-0x11
        LCALL   ?ALLOC_XSTACK8
          CFI CFA_XSP16 add(XSP16, 27)
// 1070   UserDescriptorFormat_t ZDO_DefaultUserDescriptor;
// 1071 
// 1072   // Initialize the User Descriptor, the descriptor is read from NV
// 1073   // when needed.  If you want to initialize the User descriptor to something
// 1074   // other than all zero, do it here.
// 1075   osal_memset( &ZDO_DefaultUserDescriptor, 0, sizeof( UserDescriptorFormat_t ) );
        ; Setup parameters for call to function osal_memset
        MOV     R4,#0x11
        MOV     R5,#0x0
        MOV     R1,#0x0
        MOV     R2,?XSP + 0
        MOV     R3,?XSP + 1
        LCALL   `??osal_memset::?relay`; Banked call to: osal_memset
// 1076   if ( ZSUCCESS == osal_nv_item_init( ZCD_NV_USERDESC,
// 1077          sizeof(UserDescriptorFormat_t), (void*)&ZDO_DefaultUserDescriptor ) )
        ; Setup parameters for call to function osal_nv_item_init
        MOV     R0,?XSP + 0
        MOV     R1,?XSP + 1
        MOV     ?V0,R0
        MOV     ?V1,R1
        MOV     R0,#?V0
        LCALL   ?PUSH_XSTACK_I_TWO
          CFI CFA_XSP16 add(XSP16, 29)
        MOV     R4,#0x11
        MOV     R5,#0x0
        MOV     R2,#-0x7f
        MOV     R3,#0x0
        LCALL   `??osal_nv_item_init::?relay`; Banked call to: osal_nv_item_init
        MOV     A,#0x2
        LCALL   ?DEALLOC_XSTACK8
          CFI CFA_XSP16 add(XSP16, 27)
        MOV     A,R1
        JNZ     ??ZDApp_InitUserDesc_0
// 1078   {
// 1079     if ( ZSUCCESS == osal_nv_read( ZCD_NV_USERDESC, 0,
// 1080          sizeof(UserDescriptorFormat_t), (void*)&ZDO_DefaultUserDescriptor ) )
        ; Setup parameters for call to function osal_nv_read
        MOV     R0,#?V0
        LCALL   ?PUSH_XSTACK_I_TWO
          CFI CFA_XSP16 add(XSP16, 29)
        MOV     ?V0,#0x11
        MOV     ?V1,#0x0
        MOV     R0,#?V0
        LCALL   ?PUSH_XSTACK_I_TWO
          CFI CFA_XSP16 add(XSP16, 31)
        MOV     R4,#0x0
        MOV     R5,#0x0
        MOV     R2,#-0x7f
        MOV     R3,#0x0
        LCALL   `??osal_nv_read::?relay`; Banked call to: osal_nv_read
        MOV     A,#0x4
        LCALL   ?DEALLOC_XSTACK8
          CFI CFA_XSP16 add(XSP16, 27)
        MOV     A,R1
        JNZ     ??ZDApp_InitUserDesc_0
// 1081     {
// 1082       if ( ZDO_DefaultUserDescriptor.len != 0 )
        MOV     DPL,?XSP + 0
        MOV     DPH,?XSP + 1
        MOVX    A,@DPTR
        JZ      ??ZDApp_InitUserDesc_0
// 1083       {
// 1084         ZDO_Config_Node_Descriptor.UserDescAvail = TRUE;
        MOV     DPTR,#ZDO_Config_Node_Descriptor
        MOVX    A,@DPTR
        SETB    0xE0 /* A   */.4
        MOVX    @DPTR,A
// 1085       }
// 1086     }
// 1087   }
// 1088 }
??ZDApp_InitUserDesc_0:
        MOV     A,#0x11
        LJMP    ??Subroutine49_0 & 0xFFFF
          CFI EndBlock cfiBlock10
// 1089 
// 1090 /*********************************************************************
// 1091  * @fn      ZDAppCheckForHoldKey()
// 1092  *
// 1093  * @brief   Check for key to set the device into Hold Auto Start
// 1094  *
// 1095  * @param   none
// 1096  *
// 1097  * @return  none
// 1098  */

        RSEG BANKED_CODE:CODE:NOROOT(0)
// 1099 void ZDAppCheckForHoldKey( void )
ZDAppCheckForHoldKey:
          CFI Block cfiBlock11 Using cfiCommon0
          CFI Function ZDAppCheckForHoldKey
        CODE
// 1100 {
        FUNCALL ZDAppCheckForHoldKey, HalKeyRead
        LOCFRAME ISTACK, 2, STACK
        LOCFRAME PSTACK, 0, STACK
        LOCFRAME XSTACK, 0, STACK
        LOCFRAME IOVERLAY, 0, STATIC
        LOCFRAME DOVERLAY, 0, STATIC
        ARGFRAME ISTACK, 2, STACK
        ARGFRAME PSTACK, 0, STACK
        ARGFRAME XSTACK, 0, STACK
        ARGFRAME IOVERLAY, 0, STATIC
        ARGFRAME DOVERLAY, 0, STATIC
        PUSH    DPL
          CFI DPL0 Frame(CFA_SP, 4)
          CFI CFA_SP SP+-4
        PUSH    DPH
          CFI DPH0 Frame(CFA_SP, 5)
          CFI CFA_SP SP+-5
        ; Saved register size: 2
        ; Auto size: 0
// 1101 #if (defined HAL_KEY) && (HAL_KEY == TRUE)
// 1102 
// 1103   // Get Keypad directly to see if a HOLD is needed
// 1104   zdappHoldKeys = HalKeyRead();
        ; Setup parameters for call to function HalKeyRead
        LCALL   `??HalKeyRead::?relay`; Banked call to: HalKeyRead
        MOV     A,R1
        MOV     DPTR,#zdappHoldKeys
        MOVX    @DPTR,A
// 1105 
// 1106   // Hold down the SW_BYPASS_START key (see OnBoard.h)
// 1107   // while booting to avoid starting up the device.
// 1108   if ( zdappHoldKeys == SW_BYPASS_START )
        XRL     A,#0x1
        JNZ     ??ZDAppCheckForHoldKey_0
// 1109   {
// 1110     // Change the device state to HOLD on start up
// 1111     devState = DEV_HOLD;
        MOV     DPTR,#devState
        CLR     A
        MOVX    @DPTR,A
// 1112   }
// 1113 #endif // HAL_KEY
// 1114 }
??ZDAppCheckForHoldKey_0:
        LJMP    ??Subroutine40_0 & 0xFFFF
          CFI EndBlock cfiBlock11
// 1115 
// 1116 /*********************************************************************
// 1117  * @fn      ZDApp_ProcessOSALMsg()
// 1118  *
// 1119  * @brief   Process the incoming task message.
// 1120  *
// 1121  * @param   msgPtr - message to process
// 1122  *
// 1123  * @return  none
// 1124  */

        RSEG BANKED_CODE:CODE:NOROOT(0)
// 1125 void ZDApp_ProcessOSALMsg( osal_event_hdr_t *msgPtr )
ZDApp_ProcessOSALMsg:
          CFI Block cfiBlock12 Using cfiCommon0
          CFI Function ZDApp_ProcessOSALMsg
        CODE
// 1126 {
        FUNCALL ZDApp_ProcessOSALMsg, ZDP_IncomingData
        LOCFRAME ISTACK, 0, STACK
        LOCFRAME PSTACK, 0, STACK
        LOCFRAME XSTACK, 15, STACK
        LOCFRAME IOVERLAY, 0, STATIC
        LOCFRAME DOVERLAY, 0, STATIC
        ARGFRAME ISTACK, 0, STACK
        ARGFRAME PSTACK, 0, STACK
        ARGFRAME XSTACK, 15, STACK
        ARGFRAME IOVERLAY, 0, STATIC
        ARGFRAME DOVERLAY, 0, STATIC
        FUNCALL ZDApp_ProcessOSALMsg, ZDApp_ProcessMsgCBs
        LOCFRAME ISTACK, 0, STACK
        LOCFRAME PSTACK, 0, STACK
        LOCFRAME XSTACK, 15, STACK
        LOCFRAME IOVERLAY, 0, STATIC
        LOCFRAME DOVERLAY, 0, STATIC
        ARGFRAME ISTACK, 0, STACK
        ARGFRAME PSTACK, 0, STACK
        ARGFRAME XSTACK, 15, STACK
        ARGFRAME IOVERLAY, 0, STATIC
        ARGFRAME DOVERLAY, 0, STATIC
        FUNCALL ZDApp_ProcessOSALMsg, ZDApp_NwkDescListProcessing
        LOCFRAME ISTACK, 0, STACK
        LOCFRAME PSTACK, 0, STACK
        LOCFRAME XSTACK, 15, STACK
        LOCFRAME IOVERLAY, 0, STATIC
        LOCFRAME DOVERLAY, 0, STATIC
        ARGFRAME ISTACK, 0, STACK
        ARGFRAME PSTACK, 0, STACK
        ARGFRAME XSTACK, 15, STACK
        ARGFRAME IOVERLAY, 0, STATIC
        ARGFRAME DOVERLAY, 0, STATIC
        FUNCALL ZDApp_ProcessOSALMsg, ZDApp_ChangeState
        LOCFRAME ISTACK, 0, STACK
        LOCFRAME PSTACK, 0, STACK
        LOCFRAME XSTACK, 15, STACK
        LOCFRAME IOVERLAY, 0, STATIC
        LOCFRAME DOVERLAY, 0, STATIC
        ARGFRAME ISTACK, 0, STACK
        ARGFRAME PSTACK, 0, STACK
        ARGFRAME XSTACK, 15, STACK
        ARGFRAME IOVERLAY, 0, STATIC
        ARGFRAME DOVERLAY, 0, STATIC
        FUNCALL ZDApp_ProcessOSALMsg, ZDApp_NodeProfileSync
        LOCFRAME ISTACK, 0, STACK
        LOCFRAME PSTACK, 0, STACK
        LOCFRAME XSTACK, 15, STACK
        LOCFRAME IOVERLAY, 0, STATIC
        LOCFRAME DOVERLAY, 0, STATIC
        ARGFRAME ISTACK, 0, STACK
        ARGFRAME PSTACK, 0, STACK
        ARGFRAME XSTACK, 15, STACK
        ARGFRAME IOVERLAY, 0, STATIC
        ARGFRAME DOVERLAY, 0, STATIC
        FUNCALL ZDApp_ProcessOSALMsg, NLME_JoinRequest
        LOCFRAME ISTACK, 0, STACK
        LOCFRAME PSTACK, 0, STACK
        LOCFRAME XSTACK, 19, STACK
        LOCFRAME IOVERLAY, 0, STATIC
        LOCFRAME DOVERLAY, 0, STATIC
        ARGFRAME ISTACK, 0, STACK
        ARGFRAME PSTACK, 0, STACK
        ARGFRAME XSTACK, 19, STACK
        ARGFRAME IOVERLAY, 0, STATIC
        ARGFRAME DOVERLAY, 0, STATIC
        FUNCALL ZDApp_ProcessOSALMsg, osal_rand
        LOCFRAME ISTACK, 0, STACK
        LOCFRAME PSTACK, 0, STACK
        LOCFRAME XSTACK, 15, STACK
        LOCFRAME IOVERLAY, 0, STATIC
        LOCFRAME DOVERLAY, 0, STATIC
        ARGFRAME ISTACK, 0, STACK
        ARGFRAME PSTACK, 0, STACK
        ARGFRAME XSTACK, 15, STACK
        ARGFRAME IOVERLAY, 0, STATIC
        ARGFRAME DOVERLAY, 0, STATIC
        FUNCALL ZDApp_ProcessOSALMsg, ZDApp_NetworkInit
        LOCFRAME ISTACK, 0, STACK
        LOCFRAME PSTACK, 0, STACK
        LOCFRAME XSTACK, 15, STACK
        LOCFRAME IOVERLAY, 0, STATIC
        LOCFRAME DOVERLAY, 0, STATIC
        ARGFRAME ISTACK, 0, STACK
        ARGFRAME PSTACK, 0, STACK
        ARGFRAME XSTACK, 15, STACK
        ARGFRAME IOVERLAY, 0, STATIC
        ARGFRAME DOVERLAY, 0, STATIC
        FUNCALL ZDApp_ProcessOSALMsg, ZDApp_RestoreNwkKey
        LOCFRAME ISTACK, 0, STACK
        LOCFRAME PSTACK, 0, STACK
        LOCFRAME XSTACK, 15, STACK
        LOCFRAME IOVERLAY, 0, STATIC
        LOCFRAME DOVERLAY, 0, STATIC
        ARGFRAME ISTACK, 0, STACK
        ARGFRAME PSTACK, 0, STACK
        ARGFRAME XSTACK, 15, STACK
        ARGFRAME IOVERLAY, 0, STATIC
        ARGFRAME DOVERLAY, 0, STATIC
        FUNCALL ZDApp_ProcessOSALMsg, ZDApp_ChangeState
        LOCFRAME ISTACK, 0, STACK
        LOCFRAME PSTACK, 0, STACK
        LOCFRAME XSTACK, 15, STACK
        LOCFRAME IOVERLAY, 0, STATIC
        LOCFRAME DOVERLAY, 0, STATIC
        ARGFRAME ISTACK, 0, STACK
        ARGFRAME PSTACK, 0, STACK
        ARGFRAME XSTACK, 15, STACK
        ARGFRAME IOVERLAY, 0, STATIC
        ARGFRAME DOVERLAY, 0, STATIC
        FUNCALL ZDApp_ProcessOSALMsg, ZDApp_ChangeState
        LOCFRAME ISTACK, 0, STACK
        LOCFRAME PSTACK, 0, STACK
        LOCFRAME XSTACK, 15, STACK
        LOCFRAME IOVERLAY, 0, STATIC
        LOCFRAME DOVERLAY, 0, STATIC
        ARGFRAME ISTACK, 0, STACK
        ARGFRAME PSTACK, 0, STACK
        ARGFRAME XSTACK, 15, STACK
        ARGFRAME IOVERLAY, 0, STATIC
        ARGFRAME DOVERLAY, 0, STATIC
        FUNCALL ZDApp_ProcessOSALMsg, ZDApp_ChangeState
        LOCFRAME ISTACK, 0, STACK
        LOCFRAME PSTACK, 0, STACK
        LOCFRAME XSTACK, 15, STACK
        LOCFRAME IOVERLAY, 0, STATIC
        LOCFRAME DOVERLAY, 0, STATIC
        ARGFRAME ISTACK, 0, STACK
        ARGFRAME PSTACK, 0, STACK
        ARGFRAME XSTACK, 15, STACK
        ARGFRAME IOVERLAY, 0, STATIC
        ARGFRAME DOVERLAY, 0, STATIC
        FUNCALL ZDApp_ProcessOSALMsg, ZDApp_ChangeState
        LOCFRAME ISTACK, 0, STACK
        LOCFRAME PSTACK, 0, STACK
        LOCFRAME XSTACK, 15, STACK
        LOCFRAME IOVERLAY, 0, STATIC
        LOCFRAME DOVERLAY, 0, STATIC
        ARGFRAME ISTACK, 0, STACK
        ARGFRAME PSTACK, 0, STACK
        ARGFRAME XSTACK, 15, STACK
        ARGFRAME IOVERLAY, 0, STATIC
        ARGFRAME DOVERLAY, 0, STATIC
        FUNCALL ZDApp_ProcessOSALMsg, osal_nv_read
        LOCFRAME ISTACK, 0, STACK
        LOCFRAME PSTACK, 0, STACK
        LOCFRAME XSTACK, 19, STACK
        LOCFRAME IOVERLAY, 0, STATIC
        LOCFRAME DOVERLAY, 0, STATIC
        ARGFRAME ISTACK, 0, STACK
        ARGFRAME PSTACK, 0, STACK
        ARGFRAME XSTACK, 19, STACK
        ARGFRAME IOVERLAY, 0, STATIC
        ARGFRAME DOVERLAY, 0, STATIC
        FUNCALL ZDApp_ProcessOSALMsg, osal_rand
        LOCFRAME ISTACK, 0, STACK
        LOCFRAME PSTACK, 0, STACK
        LOCFRAME XSTACK, 15, STACK
        LOCFRAME IOVERLAY, 0, STATIC
        LOCFRAME DOVERLAY, 0, STATIC
        ARGFRAME ISTACK, 0, STACK
        ARGFRAME PSTACK, 0, STACK
        ARGFRAME XSTACK, 15, STACK
        ARGFRAME IOVERLAY, 0, STATIC
        ARGFRAME DOVERLAY, 0, STATIC
        FUNCALL ZDApp_ProcessOSALMsg, ZMacSetReq
        LOCFRAME ISTACK, 0, STACK
        LOCFRAME PSTACK, 0, STACK
        LOCFRAME XSTACK, 15, STACK
        LOCFRAME IOVERLAY, 0, STATIC
        LOCFRAME DOVERLAY, 0, STATIC
        ARGFRAME ISTACK, 0, STACK
        ARGFRAME PSTACK, 0, STACK
        ARGFRAME XSTACK, 15, STACK
        ARGFRAME IOVERLAY, 0, STATIC
        ARGFRAME DOVERLAY, 0, STATIC
        FUNCALL ZDApp_ProcessOSALMsg, ZMacSetReq
        LOCFRAME ISTACK, 0, STACK
        LOCFRAME PSTACK, 0, STACK
        LOCFRAME XSTACK, 15, STACK
        LOCFRAME IOVERLAY, 0, STATIC
        LOCFRAME DOVERLAY, 0, STATIC
        ARGFRAME ISTACK, 0, STACK
        ARGFRAME PSTACK, 0, STACK
        ARGFRAME XSTACK, 15, STACK
        ARGFRAME IOVERLAY, 0, STATIC
        ARGFRAME DOVERLAY, 0, STATIC
        FUNCALL ZDApp_ProcessOSALMsg, ZMacSetReq
        LOCFRAME ISTACK, 0, STACK
        LOCFRAME PSTACK, 0, STACK
        LOCFRAME XSTACK, 15, STACK
        LOCFRAME IOVERLAY, 0, STATIC
        LOCFRAME DOVERLAY, 0, STATIC
        ARGFRAME ISTACK, 0, STACK
        ARGFRAME PSTACK, 0, STACK
        ARGFRAME XSTACK, 15, STACK
        ARGFRAME IOVERLAY, 0, STATIC
        ARGFRAME DOVERLAY, 0, STATIC
        FUNCALL ZDApp_ProcessOSALMsg, ZDApp_RestoreNwkKey
        LOCFRAME ISTACK, 0, STACK
        LOCFRAME PSTACK, 0, STACK
        LOCFRAME XSTACK, 15, STACK
        LOCFRAME IOVERLAY, 0, STATIC
        LOCFRAME DOVERLAY, 0, STATIC
        ARGFRAME ISTACK, 0, STACK
        ARGFRAME PSTACK, 0, STACK
        ARGFRAME XSTACK, 15, STACK
        ARGFRAME IOVERLAY, 0, STATIC
        ARGFRAME DOVERLAY, 0, STATIC
        FUNCALL ZDApp_ProcessOSALMsg, NLME_ReJoinRequest
        LOCFRAME ISTACK, 0, STACK
        LOCFRAME PSTACK, 0, STACK
        LOCFRAME XSTACK, 15, STACK
        LOCFRAME IOVERLAY, 0, STATIC
        LOCFRAME DOVERLAY, 0, STATIC
        ARGFRAME ISTACK, 0, STACK
        ARGFRAME PSTACK, 0, STACK
        ARGFRAME XSTACK, 15, STACK
        ARGFRAME IOVERLAY, 0, STATIC
        ARGFRAME DOVERLAY, 0, STATIC
        FUNCALL ZDApp_ProcessOSALMsg, NLME_ReJoinRequestUnsecure
        LOCFRAME ISTACK, 0, STACK
        LOCFRAME PSTACK, 0, STACK
        LOCFRAME XSTACK, 15, STACK
        LOCFRAME IOVERLAY, 0, STATIC
        LOCFRAME DOVERLAY, 0, STATIC
        ARGFRAME ISTACK, 0, STACK
        ARGFRAME PSTACK, 0, STACK
        ARGFRAME XSTACK, 15, STACK
        ARGFRAME IOVERLAY, 0, STATIC
        ARGFRAME DOVERLAY, 0, STATIC
        FUNCALL ZDApp_ProcessOSALMsg, osal_rand
        LOCFRAME ISTACK, 0, STACK
        LOCFRAME PSTACK, 0, STACK
        LOCFRAME XSTACK, 15, STACK
        LOCFRAME IOVERLAY, 0, STATIC
        LOCFRAME DOVERLAY, 0, STATIC
        ARGFRAME ISTACK, 0, STACK
        ARGFRAME PSTACK, 0, STACK
        ARGFRAME XSTACK, 15, STACK
        ARGFRAME IOVERLAY, 0, STATIC
        ARGFRAME DOVERLAY, 0, STATIC
        FUNCALL ZDApp_ProcessOSALMsg, ZDApp_NetworkInit
        LOCFRAME ISTACK, 0, STACK
        LOCFRAME PSTACK, 0, STACK
        LOCFRAME XSTACK, 15, STACK
        LOCFRAME IOVERLAY, 0, STATIC
        LOCFRAME DOVERLAY, 0, STATIC
        ARGFRAME ISTACK, 0, STACK
        ARGFRAME PSTACK, 0, STACK
        ARGFRAME XSTACK, 15, STACK
        ARGFRAME IOVERLAY, 0, STATIC
        ARGFRAME DOVERLAY, 0, STATIC
        FUNCALL ZDApp_ProcessOSALMsg, NLME_SetPollRate
        LOCFRAME ISTACK, 0, STACK
        LOCFRAME PSTACK, 0, STACK
        LOCFRAME XSTACK, 15, STACK
        LOCFRAME IOVERLAY, 0, STATIC
        LOCFRAME DOVERLAY, 0, STATIC
        ARGFRAME ISTACK, 0, STACK
        ARGFRAME PSTACK, 0, STACK
        ARGFRAME XSTACK, 15, STACK
        ARGFRAME IOVERLAY, 0, STATIC
        ARGFRAME DOVERLAY, 0, STATIC
        FUNCALL ZDApp_ProcessOSALMsg, NLME_SetQueuedPollRate
        LOCFRAME ISTACK, 0, STACK
        LOCFRAME PSTACK, 0, STACK
        LOCFRAME XSTACK, 15, STACK
        LOCFRAME IOVERLAY, 0, STATIC
        LOCFRAME DOVERLAY, 0, STATIC
        ARGFRAME ISTACK, 0, STACK
        ARGFRAME PSTACK, 0, STACK
        ARGFRAME XSTACK, 15, STACK
        ARGFRAME IOVERLAY, 0, STATIC
        ARGFRAME DOVERLAY, 0, STATIC
        FUNCALL ZDApp_ProcessOSALMsg, NLME_SetResponseRate
        LOCFRAME ISTACK, 0, STACK
        LOCFRAME PSTACK, 0, STACK
        LOCFRAME XSTACK, 15, STACK
        LOCFRAME IOVERLAY, 0, STATIC
        LOCFRAME DOVERLAY, 0, STATIC
        ARGFRAME ISTACK, 0, STACK
        ARGFRAME PSTACK, 0, STACK
        ARGFRAME XSTACK, 15, STACK
        ARGFRAME IOVERLAY, 0, STATIC
        ARGFRAME DOVERLAY, 0, STATIC
        FUNCALL ZDApp_ProcessOSALMsg, NLME_SetPollRate
        LOCFRAME ISTACK, 0, STACK
        LOCFRAME PSTACK, 0, STACK
        LOCFRAME XSTACK, 15, STACK
        LOCFRAME IOVERLAY, 0, STATIC
        LOCFRAME DOVERLAY, 0, STATIC
        ARGFRAME ISTACK, 0, STACK
        ARGFRAME PSTACK, 0, STACK
        ARGFRAME XSTACK, 15, STACK
        ARGFRAME IOVERLAY, 0, STATIC
        ARGFRAME DOVERLAY, 0, STATIC
        FUNCALL ZDApp_ProcessOSALMsg, osal_rand
        LOCFRAME ISTACK, 0, STACK
        LOCFRAME PSTACK, 0, STACK
        LOCFRAME XSTACK, 15, STACK
        LOCFRAME IOVERLAY, 0, STATIC
        LOCFRAME DOVERLAY, 0, STATIC
        ARGFRAME ISTACK, 0, STACK
        ARGFRAME PSTACK, 0, STACK
        ARGFRAME XSTACK, 15, STACK
        ARGFRAME IOVERLAY, 0, STATIC
        ARGFRAME DOVERLAY, 0, STATIC
        FUNCALL ZDApp_ProcessOSALMsg, ZDApp_NetworkInit
        LOCFRAME ISTACK, 0, STACK
        LOCFRAME PSTACK, 0, STACK
        LOCFRAME XSTACK, 15, STACK
        LOCFRAME IOVERLAY, 0, STATIC
        LOCFRAME DOVERLAY, 0, STATIC
        ARGFRAME ISTACK, 0, STACK
        ARGFRAME PSTACK, 0, STACK
        ARGFRAME XSTACK, 15, STACK
        ARGFRAME IOVERLAY, 0, STATIC
        ARGFRAME DOVERLAY, 0, STATIC
        FUNCALL ZDApp_ProcessOSALMsg, ZDApp_ProcessNetworkJoin
        LOCFRAME ISTACK, 0, STACK
        LOCFRAME PSTACK, 0, STACK
        LOCFRAME XSTACK, 15, STACK
        LOCFRAME IOVERLAY, 0, STATIC
        LOCFRAME DOVERLAY, 0, STATIC
        ARGFRAME ISTACK, 0, STACK
        ARGFRAME PSTACK, 0, STACK
        ARGFRAME XSTACK, 15, STACK
        ARGFRAME IOVERLAY, 0, STATIC
        ARGFRAME DOVERLAY, 0, STATIC
        FUNCALL ZDApp_ProcessOSALMsg, sAddrExtCpy
        LOCFRAME ISTACK, 0, STACK
        LOCFRAME PSTACK, 0, STACK
        LOCFRAME XSTACK, 15, STACK
        LOCFRAME IOVERLAY, 0, STATIC
        LOCFRAME DOVERLAY, 0, STATIC
        ARGFRAME ISTACK, 0, STACK
        ARGFRAME PSTACK, 0, STACK
        ARGFRAME XSTACK, 15, STACK
        ARGFRAME IOVERLAY, 0, STATIC
        ARGFRAME DOVERLAY, 0, STATIC
        FUNCALL ZDApp_ProcessOSALMsg, ZDApp_NetworkInit
        LOCFRAME ISTACK, 0, STACK
        LOCFRAME PSTACK, 0, STACK
        LOCFRAME XSTACK, 15, STACK
        LOCFRAME IOVERLAY, 0, STATIC
        LOCFRAME DOVERLAY, 0, STATIC
        ARGFRAME ISTACK, 0, STACK
        ARGFRAME PSTACK, 0, STACK
        ARGFRAME XSTACK, 15, STACK
        ARGFRAME IOVERLAY, 0, STATIC
        ARGFRAME DOVERLAY, 0, STATIC
        FUNCALL ZDApp_ProcessOSALMsg, ZDApp_ProcessSecMsg
        LOCFRAME ISTACK, 0, STACK
        LOCFRAME PSTACK, 0, STACK
        LOCFRAME XSTACK, 15, STACK
        LOCFRAME IOVERLAY, 0, STATIC
        LOCFRAME DOVERLAY, 0, STATIC
        ARGFRAME ISTACK, 0, STACK
        ARGFRAME PSTACK, 0, STACK
        ARGFRAME XSTACK, 15, STACK
        ARGFRAME IOVERLAY, 0, STATIC
        ARGFRAME DOVERLAY, 0, STATIC
        REQUIRE ?V0
        REQUIRE ?V1
        REQUIRE ?V2
        REQUIRE ?V3
        MOV     A,#-0xc
        LCALL   ?BANKED_ENTER_XDATA
          CFI DPH0 load(1, XDATA, add(CFA_XSP16, literal(-1)))
          CFI DPL0 load(1, XDATA, add(CFA_XSP16, literal(-2)))
          CFI ?BRET_EXT load(1, XDATA, add(CFA_XSP16, literal(-3)))
          CFI ?RET_HIGH load(1, XDATA, add(CFA_XSP16, literal(-4)))
          CFI ?RET_LOW load(1, XDATA, add(CFA_XSP16, literal(-5)))
          CFI R7 load(1, XDATA, add(CFA_XSP16, literal(-6)))
          CFI V3 load(1, XDATA, add(CFA_XSP16, literal(-7)))
          CFI V2 load(1, XDATA, add(CFA_XSP16, literal(-8)))
          CFI V1 load(1, XDATA, add(CFA_XSP16, literal(-9)))
          CFI V0 load(1, XDATA, add(CFA_XSP16, literal(-10)))
          CFI VB load(1, XDATA, add(CFA_XSP16, literal(-11)))
          CFI R6 load(1, XDATA, add(CFA_XSP16, literal(-12)))
          CFI CFA_SP SP+0
          CFI CFA_XSP16 add(XSP16, 12)
        ; Saved register size: 12
        ; Auto size: 3
        MOV     A,#-0x3
        LCALL   ?ALLOC_XSTACK8
          CFI CFA_XSP16 add(XSP16, 15)
// 1127   // Data Confirmation message fields
// 1128   uint8 sentEP;       // This should always be 0
// 1129   uint8 sentStatus;
// 1130   afDataConfirm_t *afDataConfirm;
// 1131   uint8 tmp;
// 1132 
// 1133   switch ( msgPtr->event )
        MOV     DPL,R2
        MOV     DPH,R3
        MOVX    A,@DPTR
        DEC     A
        JZ      ??ZDApp_ProcessOSALMsg_0
        DEC     A
        JNZ     $+5
        LJMP    ??ZDApp_ProcessOSALMsg_1 & 0xFFFF
        DEC     A
        JNZ     $+5
        LJMP    ??ZDApp_ProcessOSALMsg_2 & 0xFFFF
        ADD     A,#-0x17
        JZ      ??ZDApp_ProcessOSALMsg_3
        ADD     A,#0x47
        JZ      ??ZDApp_ProcessOSALMsg_4
        ADD     A,#-0x2a
        JNZ     $+5
        LJMP    ??ZDApp_ProcessOSALMsg_5 & 0xFFFF
        LJMP    ??ZDApp_ProcessOSALMsg_6 & 0xFFFF
// 1134   {
// 1135     // Incoming ZDO Message
// 1136     case AF_INCOMING_MSG_CMD:
// 1137       ZDP_IncomingData( (afIncomingMSGPacket_t *)msgPtr );
??ZDApp_ProcessOSALMsg_3:
        ; Setup parameters for call to function ZDP_IncomingData
        LCALL   `??ZDP_IncomingData::?relay`; Banked call to: ZDP_IncomingData
// 1138       break;
        LJMP    ??ZDApp_ProcessOSALMsg_5 & 0xFFFF
// 1139 
// 1140     case ZDO_CB_MSG:
// 1141       ZDApp_ProcessMsgCBs( (zdoIncomingMsg_t *)msgPtr );
??ZDApp_ProcessOSALMsg_4:
        ; Setup parameters for call to function ZDApp_ProcessMsgCBs
        LCALL   `??ZDApp_ProcessMsgCBs::?relay`; Banked call to: ZDApp_ProcessMsgCBs
// 1142       break;
        LJMP    ??ZDApp_ProcessOSALMsg_5 & 0xFFFF
// 1143 
// 1144     case AF_DATA_CONFIRM_CMD:
// 1145       // This message is received as a confirmation of a data packet sent.
// 1146       // The status is of ZStatus_t type [defined in NLMEDE.h]
// 1147       // The message fields are defined in AF.h
// 1148       afDataConfirm = (afDataConfirm_t *)msgPtr;
// 1149       sentEP = afDataConfirm->endpoint;
// 1150       sentStatus = afDataConfirm->hdr.status;
// 1151 
// 1152       // Action taken when confirmation is received.
// 1153 #if defined ( ZIGBEE_FREQ_AGILITY )
// 1154       if ( pZDNwkMgr_ProcessDataConfirm )
// 1155         pZDNwkMgr_ProcessDataConfirm( afDataConfirm );
// 1156 #endif
// 1157       (void)sentEP;
// 1158       (void)sentStatus;
// 1159       break;
// 1160 
// 1161     case ZDO_NWK_DISC_CNF:
// 1162       if (devState != DEV_NWK_DISC)
??ZDApp_ProcessOSALMsg_0:
        MOV     DPTR,#devState
        MOVX    A,@DPTR
        XRL     A,#0x2
        JZ      $+5
        LJMP    ??ZDApp_ProcessOSALMsg_5 & 0xFFFF
// 1163         break;
// 1164 
// 1165       if ( ZG_BUILD_JOINING_TYPE && ZG_DEVICE_JOINING_TYPE )
        MOV     DPTR,#zgDeviceLogicalType
        MOVX    A,@DPTR
        XRL     A,#0x1
        JZ      ??ZDApp_ProcessOSALMsg_7
        MOVX    A,@DPTR
        XRL     A,#0x2
        JZ      $+5
        LJMP    ??ZDApp_ProcessOSALMsg_5 & 0xFFFF
// 1166       {
// 1167         // Process the network discovery scan results and choose a parent
// 1168         // device to join/rejoin itself
// 1169         networkDesc_t *pChosenNwk;
// 1170         if ( ( (pChosenNwk = ZDApp_NwkDescListProcessing()) != NULL ) && (zdoDiscCounter > NUM_DISC_ATTEMPTS) )
??ZDApp_ProcessOSALMsg_7:
        ; Setup parameters for call to function ZDApp_NwkDescListProcessing
        LCALL   `??ZDApp_NwkDescListProcessing::?relay`; Banked call to: ZDApp_NwkDescListProcessing
        MOV     ?V0,R2
        MOV     ?V1,R3
        MOV     A,R2
        ORL     A,?V1
        JNZ     $+5
        LJMP    ??ZDApp_ProcessOSALMsg_8 & 0xFFFF
        MOV     DPTR,#zdoDiscCounter
        MOVX    A,@DPTR
        CLR     C
        SUBB    A,#0x3
        JNC     $+5
        LJMP    ??ZDApp_ProcessOSALMsg_8 & 0xFFFF
// 1171         {
// 1172           if ( devStartMode == MODE_JOIN )
        MOV     A,R2
        ADD     A,#0x2
        MOV     R0,A
        CLR     A
        ADDC    A,?V1
        MOV     R1,A
        MOV     A,R0
        MOV     R6,A
        MOV     A,R1
        MOV     R7,A
        MOV     DPTR,#devStartMode
        MOVX    A,@DPTR
        JNZ     ??ZDApp_ProcessOSALMsg_9
// 1173           {
// 1174             ZDApp_ChangeState( DEV_NWK_JOINING );
        ; Setup parameters for call to function ZDApp_ChangeState
        MOV     R1,#0x3
        LCALL   `??ZDApp_ChangeState::?relay`; Banked call to: ZDApp_ChangeState
// 1175 
// 1176             ZDApp_NodeProfileSync( pChosenNwk->stackProfile);
        ; Setup parameters for call to function ZDApp_NodeProfileSync
        MOV     DPL,?V0
        MOV     DPH,?V1
        INC     DPTR
        INC     DPTR
        INC     DPTR
        INC     DPTR
        INC     DPTR
        INC     DPTR
        MOVX    A,@DPTR
        MOV     R1,A
        LCALL   `??ZDApp_NodeProfileSync::?relay`; Banked call to: ZDApp_NodeProfileSync
// 1177 
// 1178             if ( NLME_JoinRequest( pChosenNwk->extendedPANID, pChosenNwk->panId,
// 1179                                   pChosenNwk->logicalChannel,
// 1180                                   ZDO_Config_Node_Descriptor.CapabilityFlags,
// 1181                                   pChosenNwk->chosenRouter, pChosenNwk->chosenRouterDepth ) != ZSuccess )
        ; Setup parameters for call to function NLME_JoinRequest
        MOV     DPL,?V0
        MOV     DPH,?V1
        INC     DPTR
        INC     DPTR
        INC     DPTR
        INC     DPTR
        INC     DPTR
        INC     DPTR
        INC     DPTR
        INC     DPTR
        INC     DPTR
        INC     DPTR
        MOVX    A,@DPTR
        MOV     ?V2,A
        MOV     R0,#?V2
        LCALL   ?PUSH_XSTACK_I_ONE
          CFI CFA_XSP16 add(XSP16, 16)
        MOV     DPL,?V0
        MOV     DPH,?V1
        INC     DPTR
        INC     DPTR
        INC     DPTR
        INC     DPTR
        INC     DPTR
        INC     DPTR
        INC     DPTR
        LCALL   ?PUSH_XSTACK8_X_TWO
          CFI CFA_XSP16 add(XSP16, 18)
        MOV     DPTR,#ZDO_Config_Node_Descriptor + 2
        MOVX    A,@DPTR
        MOV     ?V2,A
        MOV     R0,#?V2
        LCALL   ?PUSH_XSTACK_I_ONE
          CFI CFA_XSP16 add(XSP16, 19)
        MOV     DPL,R6
        MOV     DPH,R7
        MOVX    A,@DPTR
        MOV     R1,A
        MOV     DPL,?V0
        MOV     DPH,?V1
        MOVX    A,@DPTR
        MOV     R4,A
        INC     DPTR
        MOVX    A,@DPTR
        MOV     R5,A
        MOV     A,?V0
        ADD     A,#0xb
        MOV     R2,A
        CLR     A
        ADDC    A,?V1
        MOV     R3,A
        LCALL   `??NLME_JoinRequest::?relay`; Banked call to: NLME_JoinRequest
        MOV     A,#0x4
        LCALL   ?DEALLOC_XSTACK8
          CFI CFA_XSP16 add(XSP16, 15)
        LJMP    ??ZDApp_ProcessOSALMsg_10 & 0xFFFF
// 1182             {
// 1183               ZDApp_NetworkInit( (uint16)(NWK_START_DELAY
// 1184                                           + ((uint16)(osal_rand()& EXTENDED_JOINING_RANDOM_MASK))) );
// 1185             }
// 1186           } // if ( devStartMode == MODE_JOIN )
// 1187           else if ( devStartMode == MODE_REJOIN )
??ZDApp_ProcessOSALMsg_9:
        XRL     A,#0x3
        JZ      $+5
        LJMP    ??ZDApp_ProcessOSALMsg_11 & 0xFFFF
// 1188           {
// 1189             ZStatus_t rejoinStatus;
// 1190 
// 1191             // Transition state machine to correct rejoin state based on previous state before network discovery
// 1192             if ( ZDApp_RestoreNwkKey( FALSE )== TRUE )
        ; Setup parameters for call to function ZDApp_RestoreNwkKey
        MOV     R1,#0x0
        LCALL   `??ZDApp_RestoreNwkKey::?relay`; Banked call to: ZDApp_RestoreNwkKey
        MOV     A,R1
        XRL     A,#0x1
        MOV     DPTR,#prevDevState
        JNZ     ??ZDApp_ProcessOSALMsg_12
// 1193             {
// 1194               if ( prevDevState == DEV_NWK_SEC_REJOIN_CURR_CHANNEL )
        MOVX    A,@DPTR
        XRL     A,#0x4
        JNZ     ??ZDApp_ProcessOSALMsg_13
// 1195               {
// 1196                 ZDApp_ChangeState(DEV_NWK_SEC_REJOIN_ALL_CHANNEL);
        ; Setup parameters for call to function ZDApp_ChangeState
        MOV     R1,#0xd
        SJMP    ??ZDApp_ProcessOSALMsg_14
// 1197               }
// 1198               else
// 1199               {
// 1200                 ZDApp_ChangeState( DEV_NWK_SEC_REJOIN_CURR_CHANNEL );
??ZDApp_ProcessOSALMsg_13:
        ; Setup parameters for call to function ZDApp_ChangeState
        MOV     R1,#0x4
        SJMP    ??ZDApp_ProcessOSALMsg_14
// 1201               }
// 1202             }
// 1203             else
// 1204             {
// 1205               if( prevDevState == DEV_NWK_SEC_REJOIN_ALL_CHANNEL )
??ZDApp_ProcessOSALMsg_12:
        MOVX    A,@DPTR
        XRL     A,#0xd
        JNZ     ??ZDApp_ProcessOSALMsg_15
// 1206               {
// 1207                 ZDApp_ChangeState( DEV_NWK_TC_REJOIN_CURR_CHANNEL );
        ; Setup parameters for call to function ZDApp_ChangeState
        MOV     R1,#0xe
        SJMP    ??ZDApp_ProcessOSALMsg_14
// 1208               }
// 1209               else
// 1210               {
// 1211                 ZDApp_ChangeState( DEV_NWK_TC_REJOIN_ALL_CHANNEL );
??ZDApp_ProcessOSALMsg_15:
        ; Setup parameters for call to function ZDApp_ChangeState
        MOV     R1,#0xf
??ZDApp_ProcessOSALMsg_14:
        LCALL   `??ZDApp_ChangeState::?relay`; Banked call to: ZDApp_ChangeState
// 1212               }
// 1213             }
// 1214 
// 1215             // Before trying to do rejoin, check if the device has a valid short address
// 1216             // If not, generate a random short address for itself
// 1217             if ( _NIB.nwkDevAddress == INVALID_NODE_ADDR )
        MOV     DPTR,#_NIB + 20
        MOVX    A,@DPTR
        XRL     A,#0xfe
        JNZ     ??ZDApp_ProcessOSALMsg_16
        INC     DPTR
        MOVX    A,@DPTR
        CPL     A
??ZDApp_ProcessOSALMsg_16:
        JNZ     ??ZDApp_ProcessOSALMsg_17
// 1218             {
// 1219               uint16 commNwkAddr;
// 1220 
// 1221               // Verify if the Network address has been commissioned by external tool
// 1222               if ( ( osal_nv_read( ZCD_NV_COMMISSIONED_NWK_ADDR, 0,
// 1223                                  sizeof(commNwkAddr),
// 1224                                  (void*)&commNwkAddr ) == ZSUCCESS )   &&
// 1225                    ( commNwkAddr != INVALID_NODE_ADDR ) )
        ; Setup parameters for call to function osal_nv_read
        MOV     A,#0x1
        LCALL   ?XSTACK_DISP100_8
        MOV     ?V2,R0
        MOV     ?V3,R1
        MOV     R0,#?V2
        LCALL   ?PUSH_XSTACK_I_TWO
          CFI CFA_XSP16 add(XSP16, 17)
        MOV     ?V2,#0x2
        MOV     ?V3,#0x0
        MOV     R0,#?V2
        LCALL   ?PUSH_XSTACK_I_TWO
          CFI CFA_XSP16 add(XSP16, 19)
        MOV     R4,#0x0
        MOV     R5,#0x0
        MOV     R2,#0x49
        MOV     R3,#0x0
        LCALL   `??osal_nv_read::?relay`; Banked call to: osal_nv_read
        MOV     A,#0x4
        LCALL   ?DEALLOC_XSTACK8
          CFI CFA_XSP16 add(XSP16, 15)
        MOV     A,R1
        JNZ     ??ZDApp_ProcessOSALMsg_18
        MOV     A,#0x1
        LCALL   ?XSTACK_DISP0_8
        MOVX    A,@DPTR
        XRL     A,#0xfe
        JNZ     ??ZDApp_ProcessOSALMsg_19
        INC     DPTR
        MOVX    A,@DPTR
        CPL     A
??ZDApp_ProcessOSALMsg_19:
        JZ      ??ZDApp_ProcessOSALMsg_18
// 1226               {
// 1227                 _NIB.nwkDevAddress = commNwkAddr;
        MOV     A,#0x1
        LCALL   ?XSTACK_DISP0_8
        LCALL   ??Subroutine48_0 & 0xFFFF
??CrossCallReturnLabel_77:
        MOV     DPTR,#_NIB + 20
        LCALL   ??Subroutine43_0 & 0xFFFF
// 1228 
// 1229                 // clear Allocate address bit because device has a commissioned address
// 1230                 _NIB.CapabilityFlags &= ~CAPINFO_ALLOC_ADDR;
??CrossCallReturnLabel_59:
        MOV     DPTR,#_NIB + 14
        MOVX    A,@DPTR
        CLR     0xE0 /* A   */.7
        SJMP    ??ZDApp_ProcessOSALMsg_20
// 1231               }
// 1232               else
// 1233               {
// 1234                 _NIB.nwkDevAddress = osal_rand();
??ZDApp_ProcessOSALMsg_18:
        ; Setup parameters for call to function osal_rand
        LCALL   `??osal_rand::?relay`; Banked call to: osal_rand
        MOV     DPTR,#_NIB + 20
        MOV     A,R2
        MOVX    @DPTR,A
        INC     DPTR
        MOV     A,R3
??ZDApp_ProcessOSALMsg_20:
        MOVX    @DPTR,A
// 1235               }
// 1236 
// 1237               ZMacSetReq( ZMacShortAddress, (byte*)&_NIB.nwkDevAddress );
        ; Setup parameters for call to function ZMacSetReq
        MOV     R2,#(_NIB + 20) & 0xff
        MOV     R3,#((_NIB + 20) >> 8) & 0xff
        MOV     R1,#0x53
        LCALL   `??ZMacSetReq::?relay`; Banked call to: ZMacSetReq
// 1238             }
// 1239 
// 1240             // Check if the device has a valid PanID, if not, set it to the discovered Pan
// 1241             if ( _NIB.nwkPanId == 0xFFFF )
??ZDApp_ProcessOSALMsg_17:
        MOV     DPTR,#_NIB + 33
        MOVX    A,@DPTR
        CPL     A
        JNZ     ??ZDApp_ProcessOSALMsg_21
        INC     DPTR
        MOVX    A,@DPTR
        CPL     A
??ZDApp_ProcessOSALMsg_21:
        JNZ     ??ZDApp_ProcessOSALMsg_22
// 1242             {
// 1243               _NIB.nwkPanId = pChosenNwk->panId;
        MOV     DPL,?V0
        MOV     DPH,?V1
        LCALL   ??Subroutine48_0 & 0xFFFF
??CrossCallReturnLabel_78:
        MOV     DPTR,#_NIB + 33
        LCALL   ??Subroutine43_0 & 0xFFFF
// 1244               ZMacSetReq( ZMacPanId, (byte*)&(_NIB.nwkPanId) );
??CrossCallReturnLabel_60:
        ; Setup parameters for call to function ZMacSetReq
        MOV     R2,#(_NIB + 33) & 0xff
        MOV     R3,#((_NIB + 33) >> 8) & 0xff
        MOV     R1,#0x50
        LCALL   `??ZMacSetReq::?relay`; Banked call to: ZMacSetReq
// 1245             }
// 1246 
// 1247             tmp = true;
??ZDApp_ProcessOSALMsg_22:
        MOV     DPL,?XSP + 0
        MOV     DPH,?XSP + 1
        MOV     A,#0x1
        MOVX    @DPTR,A
// 1248             ZMacSetReq( ZMacRxOnIdle, &tmp ); // Set receiver always on during rejoin
        ; Setup parameters for call to function ZMacSetReq
        MOV     R2,?XSP + 0
        MOV     R3,?XSP + 1
        MOV     R1,#0x52
        LCALL   `??ZMacSetReq::?relay`; Banked call to: ZMacSetReq
// 1249 
// 1250             // Perform Secure or Unsecure Rejoin depending on available configuration
// 1251             if ( ZG_SECURE_ENABLED && ( ZDApp_RestoreNwkKey( FALSE ) == TRUE ) )
        ; Setup parameters for call to function ZDApp_RestoreNwkKey
        MOV     R1,#0x0
        LCALL   `??ZDApp_RestoreNwkKey::?relay`; Banked call to: ZDApp_RestoreNwkKey
        MOV     A,R1
        XRL     A,#0x1
        MOV     DPL,R6
        MOV     DPH,R7
        JNZ     ??ZDApp_ProcessOSALMsg_23
// 1252             {
// 1253               rejoinStatus = NLME_ReJoinRequest( ZDO_UseExtendedPANID, pChosenNwk->logicalChannel);
        ; Setup parameters for call to function NLME_ReJoinRequest
        MOVX    A,@DPTR
        MOV     R1,A
        MOV     R2,#ZDO_UseExtendedPANID & 0xff
        MOV     R3,#(ZDO_UseExtendedPANID >> 8) & 0xff
        LCALL   `??NLME_ReJoinRequest::?relay`; Banked call to: NLME_ReJoinRequest
        SJMP    ??ZDApp_ProcessOSALMsg_10
// 1254             }
// 1255             else
// 1256             {
// 1257               rejoinStatus = NLME_ReJoinRequestUnsecure( ZDO_UseExtendedPANID, pChosenNwk->logicalChannel);
??ZDApp_ProcessOSALMsg_23:
        ; Setup parameters for call to function NLME_ReJoinRequestUnsecure
        MOVX    A,@DPTR
        MOV     R1,A
        MOV     R2,#ZDO_UseExtendedPANID & 0xff
        MOV     R3,#(ZDO_UseExtendedPANID >> 8) & 0xff
        LCALL   `??NLME_ReJoinRequestUnsecure::?relay`; Banked call to: NLME_ReJoinRequestUnsecure
??ZDApp_ProcessOSALMsg_10:
        MOV     A,R1
// 1258             }
// 1259 
// 1260             if ( rejoinStatus != ZSuccess )
        JZ      ??ZDApp_ProcessOSALMsg_11
// 1261             {
// 1262               ZDApp_NetworkInit( (uint16)(NWK_START_DELAY
// 1263                                           + ((uint16)(osal_rand()& EXTENDED_JOINING_RANDOM_MASK))) );
        ; Setup parameters for call to function osal_rand
        LCALL   `??osal_rand::?relay`; Banked call to: osal_rand
        ; Setup parameters for call to function ZDApp_NetworkInit
        LCALL   ?Subroutine29 & 0xFFFF
// 1264             }
// 1265           } // else if ( devStartMode == MODE_REJOIN )
??CrossCallReturnLabel_33:
        LCALL   `??ZDApp_NetworkInit::?relay`; Banked call to: ZDApp_NetworkInit
// 1266 
// 1267           // The receiver is on, turn network layer polling off.
// 1268           if ( ZDO_Config_Node_Descriptor.CapabilityFlags & CAPINFO_RCVR_ON_IDLE )
??ZDApp_ProcessOSALMsg_11:
        MOV     DPTR,#ZDO_Config_Node_Descriptor + 2
        MOVX    A,@DPTR
        MOV     C,0xE0 /* A   */.3
        JNC     ??ZDApp_ProcessOSALMsg_24
// 1269           {
// 1270             // for an End Device with NO Child Table Management process or for a Router
// 1271             if ( ( ZG_DEVICE_RTR_TYPE )  ||
// 1272                  ( (ZG_DEVICE_ENDDEVICE_TYPE) && ( zgChildAgingEnable == FALSE ) ) )
        MOV     DPTR,#zgDeviceLogicalType
        MOVX    A,@DPTR
        JZ      ??ZDApp_ProcessOSALMsg_25
        XRL     A,#0x1
        JZ      ??ZDApp_ProcessOSALMsg_25
        MOV     DPTR,#zgChildAgingEnable
        MOVX    A,@DPTR
        JZ      $+5
        LJMP    ??ZDApp_ProcessOSALMsg_5 & 0xFFFF
// 1273             {
// 1274               NLME_SetPollRate( 0 );
??ZDApp_ProcessOSALMsg_25:
        ; Setup parameters for call to function NLME_SetPollRate
        MOV     DPTR,#__Constant_0
        LCALL   ?XLOAD_R2345
        LCALL   `??NLME_SetPollRate::?relay`; Banked call to: NLME_SetPollRate
// 1275               NLME_SetQueuedPollRate( 0 );
        ; Setup parameters for call to function NLME_SetQueuedPollRate
        MOV     R2,#0x0
        MOV     R3,#0x0
        LCALL   `??NLME_SetQueuedPollRate::?relay`; Banked call to: NLME_SetQueuedPollRate
// 1276               NLME_SetResponseRate( 0 );
        ; Setup parameters for call to function NLME_SetResponseRate
        MOV     R2,#0x0
        MOV     R3,#0x0
        LCALL   `??NLME_SetResponseRate::?relay`; Banked call to: NLME_SetResponseRate
        SJMP    ??ZDApp_ProcessOSALMsg_5
// 1277             }
// 1278           }
// 1279           else
// 1280           {
// 1281             if ( (ZG_SECURE_ENABLED) && (devStartMode == MODE_JOIN) )
??ZDApp_ProcessOSALMsg_24:
        MOV     DPTR,#devStartMode
        MOVX    A,@DPTR
        JNZ     ??ZDApp_ProcessOSALMsg_5
// 1282             {
// 1283               ZDApp_SavedPollRate = zgPollRate;
        MOV     DPTR,#zgPollRate
        LCALL   ?XLOAD_R0123
        MOV     DPTR,#ZDApp_SavedPollRate
        LCALL   ?XSTORE_R0123
// 1284               NLME_SetPollRate( zgRejoinPollRate );
        ; Setup parameters for call to function NLME_SetPollRate
        MOV     DPTR,#zgRejoinPollRate
        MOVX    A,@DPTR
        MOV     ?V0,A
        INC     DPTR
        MOVX    A,@DPTR
        MOV     R2,?V0
        MOV     R3,A
        CLR     A
        MOV     R4,A
        MOV     R5,A
        LCALL   `??NLME_SetPollRate::?relay`; Banked call to: NLME_SetPollRate
        SJMP    ??ZDApp_ProcessOSALMsg_5
// 1285             }
// 1286           }
// 1287         }
// 1288         else
// 1289         {
// 1290           if ( continueJoining )
??ZDApp_ProcessOSALMsg_8:
        MOV     DPTR,#continueJoining
        MOVX    A,@DPTR
        JZ      ??ZDApp_ProcessOSALMsg_5
// 1291           {
// 1292 #if defined ( MANAGED_SCAN )
// 1293             ZDApp_NetworkInit( MANAGEDSCAN_DELAY_BETWEEN_SCANS );
// 1294 #else
// 1295             zdoDiscCounter++;
        MOV     DPTR,#zdoDiscCounter
        MOVX    A,@DPTR
        INC     A
        MOVX    @DPTR,A
// 1296             ZDApp_NetworkInit( (uint16)(BEACON_REQUEST_DELAY
// 1297                                         + ((uint16)(osal_rand()& BEACON_REQ_DELAY_MASK))) );
        ; Setup parameters for call to function osal_rand
        LCALL   `??osal_rand::?relay`; Banked call to: osal_rand
        ; Setup parameters for call to function ZDApp_NetworkInit
        MOV     A,R2
        ADD     A,#0x64
        MOV     R2,A
        CLR     A
        ADDC    A,#0x0
        MOV     R3,A
        SJMP    ??ZDApp_ProcessOSALMsg_26
// 1298 #endif
// 1299           }
// 1300         }
// 1301       }
// 1302       break;
// 1303 
// 1304     case ZDO_NWK_JOIN_IND:
// 1305       if ( ZG_BUILD_JOINING_TYPE && ZG_DEVICE_JOINING_TYPE )
??ZDApp_ProcessOSALMsg_1:
        MOV     DPTR,#zgDeviceLogicalType
        MOVX    A,@DPTR
        XRL     A,#0x1
        JZ      ??ZDApp_ProcessOSALMsg_27
        MOVX    A,@DPTR
        XRL     A,#0x2
        JNZ     ??ZDApp_ProcessOSALMsg_5
// 1306       {
// 1307         ZDApp_ProcessNetworkJoin();
??ZDApp_ProcessOSALMsg_27:
        ; Setup parameters for call to function ZDApp_ProcessNetworkJoin
        LCALL   `??ZDApp_ProcessNetworkJoin::?relay`; Banked call to: ZDApp_ProcessNetworkJoin
        SJMP    ??ZDApp_ProcessOSALMsg_5
// 1308       }
// 1309       break;
// 1310 
// 1311     case ZDO_NWK_JOIN_REQ:
// 1312       if ( ZG_BUILD_JOINING_TYPE && ZG_DEVICE_JOINING_TYPE )
??ZDApp_ProcessOSALMsg_2:
        MOV     DPTR,#zgDeviceLogicalType
        MOVX    A,@DPTR
        XRL     A,#0x1
        JZ      ??ZDApp_ProcessOSALMsg_28
        MOVX    A,@DPTR
        XRL     A,#0x2
        JNZ     ??ZDApp_ProcessOSALMsg_5
// 1313       {
// 1314         retryCnt = 0;
??ZDApp_ProcessOSALMsg_28:
        MOV     DPTR,#retryCnt
        CLR     A
        LCALL   ?Subroutine14 & 0xFFFF
// 1315         devStartMode = MODE_RESUME;
// 1316         _tmpRejoinState = true;
??CrossCallReturnLabel_8:
        LCALL   ?Subroutine15 & 0xFFFF
// 1317         osal_cpyExtAddr( ZDO_UseExtendedPANID, _NIB.extendedPANID );
??CrossCallReturnLabel_10:
        LCALL   `??sAddrExtCpy::?relay`; Banked call to: sAddrExtCpy
// 1318         zgDefaultStartingScanDuration = BEACON_ORDER_60_MSEC;
        MOV     DPTR,#zgDefaultStartingScanDuration
        MOV     A,#0x2
        MOVX    @DPTR,A
// 1319         ZDApp_NetworkInit( 0 );
        ; Setup parameters for call to function ZDApp_NetworkInit
        MOV     R2,#0x0
        MOV     R3,#0x0
??ZDApp_ProcessOSALMsg_26:
        LCALL   `??ZDApp_NetworkInit::?relay`; Banked call to: ZDApp_NetworkInit
        SJMP    ??ZDApp_ProcessOSALMsg_5
// 1320       }
// 1321       break;
// 1322 
// 1323     default:
// 1324       if ( ZG_SECURE_ENABLED )
// 1325         ZDApp_ProcessSecMsg( msgPtr );
??ZDApp_ProcessOSALMsg_6:
        ; Setup parameters for call to function ZDApp_ProcessSecMsg
        LCALL   `??ZDApp_ProcessSecMsg::?relay`; Banked call to: ZDApp_ProcessSecMsg
// 1326       break;
// 1327   }
// 1328 
// 1329 }
??ZDApp_ProcessOSALMsg_5:
        MOV     A,#0x3
        LJMP    ??Subroutine53_0 & 0xFFFF
          CFI EndBlock cfiBlock12
// 1330 
// 1331 /*********************************************************************
// 1332  * @fn      ZDApp_ProcessMsgCBs()
// 1333  *
// 1334  * @brief   Process response messages
// 1335  *
// 1336  * @param   none
// 1337  *
// 1338  * @return  none
// 1339  */

        RSEG BANKED_CODE:CODE:NOROOT(0)
// 1340 void ZDApp_ProcessMsgCBs( zdoIncomingMsg_t *inMsg )
ZDApp_ProcessMsgCBs:
          CFI Block cfiBlock13 Using cfiCommon0
          CFI Function ZDApp_ProcessMsgCBs
        CODE
// 1341 {
        FUNCALL ZDApp_ProcessMsgCBs, ZDO_ParseAddrRsp
        LOCFRAME ISTACK, 0, STACK
        LOCFRAME PSTACK, 0, STACK
        LOCFRAME XSTACK, 35, STACK
        LOCFRAME IOVERLAY, 0, STATIC
        LOCFRAME DOVERLAY, 0, STATIC
        ARGFRAME ISTACK, 0, STACK
        ARGFRAME PSTACK, 0, STACK
        ARGFRAME XSTACK, 35, STACK
        ARGFRAME IOVERLAY, 0, STATIC
        ARGFRAME DOVERLAY, 0, STATIC
        FUNCALL ZDApp_ProcessMsgCBs, ZDO_UpdateAddrManager
        LOCFRAME ISTACK, 0, STACK
        LOCFRAME PSTACK, 0, STACK
        LOCFRAME XSTACK, 35, STACK
        LOCFRAME IOVERLAY, 0, STATIC
        LOCFRAME DOVERLAY, 0, STATIC
        ARGFRAME ISTACK, 0, STACK
        ARGFRAME PSTACK, 0, STACK
        ARGFRAME XSTACK, 35, STACK
        ARGFRAME IOVERLAY, 0, STATIC
        ARGFRAME DOVERLAY, 0, STATIC
        FUNCALL ZDApp_ProcessMsgCBs, ZDApp_ProcessPendingBindReq
        LOCFRAME ISTACK, 0, STACK
        LOCFRAME PSTACK, 0, STACK
        LOCFRAME XSTACK, 35, STACK
        LOCFRAME IOVERLAY, 0, STATIC
        LOCFRAME DOVERLAY, 0, STATIC
        ARGFRAME ISTACK, 0, STACK
        ARGFRAME PSTACK, 0, STACK
        ARGFRAME XSTACK, 35, STACK
        ARGFRAME IOVERLAY, 0, STATIC
        ARGFRAME DOVERLAY, 0, STATIC
        FUNCALL ZDApp_ProcessMsgCBs, osal_mem_free
        LOCFRAME ISTACK, 0, STACK
        LOCFRAME PSTACK, 0, STACK
        LOCFRAME XSTACK, 35, STACK
        LOCFRAME IOVERLAY, 0, STATIC
        LOCFRAME DOVERLAY, 0, STATIC
        ARGFRAME ISTACK, 0, STACK
        ARGFRAME PSTACK, 0, STACK
        ARGFRAME XSTACK, 35, STACK
        ARGFRAME IOVERLAY, 0, STATIC
        ARGFRAME DOVERLAY, 0, STATIC
        FUNCALL ZDApp_ProcessMsgCBs, ZDO_ParseBindUnbindReq
        LOCFRAME ISTACK, 0, STACK
        LOCFRAME PSTACK, 0, STACK
        LOCFRAME XSTACK, 35, STACK
        LOCFRAME IOVERLAY, 0, STATIC
        LOCFRAME DOVERLAY, 0, STATIC
        ARGFRAME ISTACK, 0, STACK
        ARGFRAME PSTACK, 0, STACK
        ARGFRAME XSTACK, 35, STACK
        ARGFRAME IOVERLAY, 0, STATIC
        ARGFRAME DOVERLAY, 0, STATIC
        FUNCALL ZDApp_ProcessMsgCBs, ZDO_ProcessBindUnbindReq
        LOCFRAME ISTACK, 0, STACK
        LOCFRAME PSTACK, 0, STACK
        LOCFRAME XSTACK, 35, STACK
        LOCFRAME IOVERLAY, 0, STATIC
        LOCFRAME DOVERLAY, 0, STATIC
        ARGFRAME ISTACK, 0, STACK
        ARGFRAME PSTACK, 0, STACK
        ARGFRAME XSTACK, 35, STACK
        ARGFRAME IOVERLAY, 0, STATIC
        ARGFRAME DOVERLAY, 0, STATIC
        REQUIRE ?V0
        REQUIRE ?V1
        REQUIRE ?V2
        REQUIRE ?V3
        REQUIRE ?V4
        REQUIRE ?V5
        MOV     A,#-0xe
        LCALL   ?BANKED_ENTER_XDATA
          CFI DPH0 load(1, XDATA, add(CFA_XSP16, literal(-1)))
          CFI DPL0 load(1, XDATA, add(CFA_XSP16, literal(-2)))
          CFI ?BRET_EXT load(1, XDATA, add(CFA_XSP16, literal(-3)))
          CFI ?RET_HIGH load(1, XDATA, add(CFA_XSP16, literal(-4)))
          CFI ?RET_LOW load(1, XDATA, add(CFA_XSP16, literal(-5)))
          CFI R7 load(1, XDATA, add(CFA_XSP16, literal(-6)))
          CFI V5 load(1, XDATA, add(CFA_XSP16, literal(-7)))
          CFI V4 load(1, XDATA, add(CFA_XSP16, literal(-8)))
          CFI V3 load(1, XDATA, add(CFA_XSP16, literal(-9)))
          CFI V2 load(1, XDATA, add(CFA_XSP16, literal(-10)))
          CFI V1 load(1, XDATA, add(CFA_XSP16, literal(-11)))
          CFI V0 load(1, XDATA, add(CFA_XSP16, literal(-12)))
          CFI VB load(1, XDATA, add(CFA_XSP16, literal(-13)))
          CFI R6 load(1, XDATA, add(CFA_XSP16, literal(-14)))
          CFI CFA_SP SP+0
          CFI CFA_XSP16 add(XSP16, 14)
        ; Saved register size: 14
        ; Auto size: 21
        MOV     A,#-0x15
        LCALL   ?ALLOC_XSTACK8
          CFI CFA_XSP16 add(XSP16, 35)
        MOV     A,R2
        MOV     R6,A
        MOV     A,R3
        MOV     R7,A
// 1342   switch ( inMsg->clusterID )
        MOV     A,R6
        ADD     A,#0xc
        MOV     ?V0,A
        CLR     A
        ADDC    A,R7
        MOV     ?V1,A
        MOV     DPL,?V0
        MOV     DPH,A
        MOVX    A,@DPTR
        MOV     ?V2,A
        INC     DPTR
        MOVX    A,@DPTR
        MOV     ?V3,A
        MOV     R0,#?V2
        LCALL   ?US_SWITCH_SPARSE
`?<Jumptable for ZDApp_ProcessMsgCBs>_0`:
        DATA
        DATA16
        DATA
        DATA16
        DATA
        DATA16
        DW        2
        DATA
        DATA16
        DATA
        DATA16
        DATA
        DATA16
        DW        33
        DATA
        DATA16
        DATA
        DATA16
        DW        34
        DATA
        DATA16
        DATA
        DATA16
        DATA
        DATA16
        DW        ??ZDApp_ProcessMsgCBs_0
        DATA
        DATA16
        DATA
        DATA16
        DATA
        DATA16
        DW        32768
        DATA
        DATA16
        DATA
        DATA16
        DW        32769
        DATA
        DATA16
        DATA
        DATA16
        DATA
        DATA16
        DW        ??ZDApp_ProcessMsgCBs_1
        DATA
        DATA16
        DATA
        DATA16
        DATA
        DATA16
        DW        0
        DATA
        DATA16
        DATA
        DATA16
        DW        ??ZDApp_ProcessMsgCBs_2
        CODE
// 1343   {
// 1344 #if defined ( ZDO_NWKADDR_REQUEST ) || defined ( ZDO_IEEEADDR_REQUEST ) || defined ( REFLECTOR )
// 1345     case NWK_addr_rsp:
// 1346     case IEEE_addr_rsp:
// 1347       {
// 1348         ZDO_NwkIEEEAddrResp_t *pAddrRsp;
// 1349 
// 1350         pAddrRsp = ZDO_ParseAddrRsp( inMsg );
??ZDApp_ProcessMsgCBs_1:
        ; Setup parameters for call to function ZDO_ParseAddrRsp
        LCALL   `??ZDO_ParseAddrRsp::?relay`; Banked call to: ZDO_ParseAddrRsp
        MOV     ?V2,R2
        MOV     ?V3,R3
// 1351         if ( pAddrRsp )
        MOV     A,R2
        ORL     A,?V3
        JZ      ??ZDApp_ProcessMsgCBs_2
// 1352         {
// 1353           if ( pAddrRsp->status == ZSuccess )
        MOV     A,R2
        ADD     A,#0x3
        MOV     R6,A
        CLR     A
        ADDC    A,?V3
        MOV     R7,A
        MOV     DPL,R2
        MOV     DPH,R3
        MOVX    A,@DPTR
        JNZ     ??ZDApp_ProcessMsgCBs_3
// 1354           {
// 1355             ZDO_UpdateAddrManager( pAddrRsp->nwkAddr, pAddrRsp->extAddr );
        ; Setup parameters for call to function ZDO_UpdateAddrManager
        MOV     A,R6
        MOV     R4,A
        MOV     A,R7
        MOV     R5,A
        LCALL   ?Subroutine22 & 0xFFFF
// 1356           }
??CrossCallReturnLabel_75:
        LCALL   `??ZDO_UpdateAddrManager::?relay`; Banked call to: ZDO_UpdateAddrManager
// 1357 
// 1358 #if !defined ( ZDP_BIND_SKIP_VALIDATION )
// 1359           // look for pending bind entry for NWK_addr_rsp Only
// 1360           if ( inMsg->clusterID == NWK_addr_rsp )
??ZDApp_ProcessMsgCBs_3:
        MOV     DPL,?V0
        MOV     DPH,?V1
        MOVX    A,@DPTR
        JNZ     ??ZDApp_ProcessMsgCBs_4
        INC     DPTR
        MOVX    A,@DPTR
        XRL     A,#0x80
??ZDApp_ProcessMsgCBs_4:
        JNZ     ??ZDApp_ProcessMsgCBs_5
// 1361           {
// 1362 #if defined ( REFLECTOR )
// 1363             ZDApp_ProcessPendingBindReq( pAddrRsp->extAddr );
        ; Setup parameters for call to function ZDApp_ProcessPendingBindReq
        MOV     A,R6
        MOV     R2,A
        MOV     A,R7
        MOV     R3,A
        LCALL   `??ZDApp_ProcessPendingBindReq::?relay`; Banked call to: ZDApp_ProcessPendingBindReq
// 1364 #endif
// 1365           }
// 1366 #endif
// 1367 
// 1368           osal_mem_free( pAddrRsp );
??ZDApp_ProcessMsgCBs_5:
        ; Setup parameters for call to function osal_mem_free
        MOV     R2,?V2
        MOV     R3,?V3
        LCALL   `??osal_mem_free::?relay`; Banked call to: osal_mem_free
        SJMP    ??ZDApp_ProcessMsgCBs_2
// 1369         }
// 1370       }
// 1371       break;
// 1372 #endif
// 1373 
// 1374 #if defined ( REFLECTOR )
// 1375     case Bind_req:
// 1376     case Unbind_req:
// 1377       {
// 1378         ZDO_BindUnbindReq_t bindReq;
// 1379         ZDO_ParseBindUnbindReq( inMsg, &bindReq );
??ZDApp_ProcessMsgCBs_0:
        ; Setup parameters for call to function ZDO_ParseBindUnbindReq
        MOV     R4,?XSP + 0
        MOV     R5,?XSP + 1
        LCALL   `??ZDO_ParseBindUnbindReq::?relay`; Banked call to: ZDO_ParseBindUnbindReq
// 1380         ZDO_ProcessBindUnbindReq( inMsg, &bindReq );
        ; Setup parameters for call to function ZDO_ProcessBindUnbindReq
        MOV     R4,?XSP + 0
        MOV     R5,?XSP + 1
        MOV     A,R6
        MOV     R2,A
        MOV     A,R7
        MOV     R3,A
        LCALL   `??ZDO_ProcessBindUnbindReq::?relay`; Banked call to: ZDO_ProcessBindUnbindReq
// 1381       }
// 1382       break;
// 1383 #endif
// 1384 
// 1385 #if ( ZG_BUILD_COORDINATOR_TYPE )
// 1386     case Bind_rsp:
// 1387     case Unbind_rsp:
// 1388       if (ZG_DEVICE_COORDINATOR_TYPE && matchED)
// 1389       {
// 1390         ZDMatchSendState(
// 1391              (uint8)((inMsg->clusterID == Bind_rsp) ? ZDMATCH_REASON_BIND_RSP : ZDMATCH_REASON_UNBIND_RSP),
// 1392              ZDO_ParseBindRsp(inMsg), inMsg->TransSeq );
// 1393       }
// 1394       break;
// 1395 
// 1396     case End_Device_Bind_req:
// 1397       if (ZG_DEVICE_COORDINATOR_TYPE)
// 1398       {
// 1399         ZDEndDeviceBind_t bindReq;
// 1400         ZDO_ParseEndDeviceBindReq( inMsg, &bindReq );
// 1401         ZDO_MatchEndDeviceBind( &bindReq );
// 1402 
// 1403         // Freeing the cluster lists - if allocated.
// 1404         if ( bindReq.numInClusters )
// 1405           osal_mem_free( bindReq.inClusters );
// 1406         if ( bindReq.numOutClusters )
// 1407           osal_mem_free( bindReq.outClusters );
// 1408       }
// 1409       break;
// 1410 #endif
// 1411   }
// 1412 }
??ZDApp_ProcessMsgCBs_2:
        MOV     A,#0x15
        LCALL   ?DEALLOC_XSTACK8
          CFI CFA_XSP16 add(XSP16, 14)
        LJMP    ?Subroutine1 & 0xFFFF
          CFI EndBlock cfiBlock13
// 1413 
// 1414 /*********************************************************************
// 1415  * @fn      ZDApp_RegisterCBs()
// 1416  *
// 1417  * @brief   Process response messages
// 1418  *
// 1419  * @param   none
// 1420  *
// 1421  * @return  none
// 1422  */

        RSEG BANKED_CODE:CODE:NOROOT(0)
// 1423 void ZDApp_RegisterCBs( void )
ZDApp_RegisterCBs:
          CFI Block cfiBlock14 Using cfiCommon0
          CFI Function ZDApp_RegisterCBs
        CODE
// 1424 {
        FUNCALL ZDApp_RegisterCBs, ZDO_RegisterForZDOMsg
        LOCFRAME ISTACK, 2, STACK
        LOCFRAME PSTACK, 0, STACK
        LOCFRAME XSTACK, 0, STACK
        LOCFRAME IOVERLAY, 0, STATIC
        LOCFRAME DOVERLAY, 0, STATIC
        ARGFRAME ISTACK, 2, STACK
        ARGFRAME PSTACK, 0, STACK
        ARGFRAME XSTACK, 0, STACK
        ARGFRAME IOVERLAY, 0, STATIC
        ARGFRAME DOVERLAY, 0, STATIC
        FUNCALL ZDApp_RegisterCBs, ZDO_RegisterForZDOMsg
        LOCFRAME ISTACK, 2, STACK
        LOCFRAME PSTACK, 0, STACK
        LOCFRAME XSTACK, 0, STACK
        LOCFRAME IOVERLAY, 0, STATIC
        LOCFRAME DOVERLAY, 0, STATIC
        ARGFRAME ISTACK, 2, STACK
        ARGFRAME PSTACK, 0, STACK
        ARGFRAME XSTACK, 0, STACK
        ARGFRAME IOVERLAY, 0, STATIC
        ARGFRAME DOVERLAY, 0, STATIC
        FUNCALL ZDApp_RegisterCBs, ZDO_RegisterForZDOMsg
        LOCFRAME ISTACK, 2, STACK
        LOCFRAME PSTACK, 0, STACK
        LOCFRAME XSTACK, 0, STACK
        LOCFRAME IOVERLAY, 0, STATIC
        LOCFRAME DOVERLAY, 0, STATIC
        ARGFRAME ISTACK, 2, STACK
        ARGFRAME PSTACK, 0, STACK
        ARGFRAME XSTACK, 0, STACK
        ARGFRAME IOVERLAY, 0, STATIC
        ARGFRAME DOVERLAY, 0, STATIC
        FUNCALL ZDApp_RegisterCBs, ZDO_RegisterForZDOMsg
        LOCFRAME ISTACK, 2, STACK
        LOCFRAME PSTACK, 0, STACK
        LOCFRAME XSTACK, 0, STACK
        LOCFRAME IOVERLAY, 0, STATIC
        LOCFRAME DOVERLAY, 0, STATIC
        ARGFRAME ISTACK, 2, STACK
        ARGFRAME PSTACK, 0, STACK
        ARGFRAME XSTACK, 0, STACK
        ARGFRAME IOVERLAY, 0, STATIC
        ARGFRAME DOVERLAY, 0, STATIC
        PUSH    DPL
          CFI DPL0 Frame(CFA_SP, 4)
          CFI CFA_SP SP+-4
        PUSH    DPH
          CFI DPH0 Frame(CFA_SP, 5)
          CFI CFA_SP SP+-5
        ; Saved register size: 2
        ; Auto size: 0
// 1425 #if defined ( ZDO_IEEEADDR_REQUEST ) || defined ( REFLECTOR )
// 1426   ZDO_RegisterForZDOMsg( ZDAppTaskID, IEEE_addr_rsp );
        ; Setup parameters for call to function ZDO_RegisterForZDOMsg
        MOV     R2,#0x1
        MOV     R3,#-0x80
        MOV     DPTR,#ZDAppTaskID
        MOVX    A,@DPTR
        MOV     R1,A
        LCALL   `??ZDO_RegisterForZDOMsg::?relay`; Banked call to: ZDO_RegisterForZDOMsg
// 1427 #endif
// 1428 #if defined ( ZDO_NWKADDR_REQUEST ) || defined ( REFLECTOR )
// 1429   ZDO_RegisterForZDOMsg( ZDAppTaskID, NWK_addr_rsp );
        ; Setup parameters for call to function ZDO_RegisterForZDOMsg
        MOV     R2,#0x0
        MOV     R3,#-0x80
        MOV     DPTR,#ZDAppTaskID
        MOVX    A,@DPTR
        MOV     R1,A
        LCALL   `??ZDO_RegisterForZDOMsg::?relay`; Banked call to: ZDO_RegisterForZDOMsg
// 1430 #endif
// 1431 #if ZG_BUILD_COORDINATOR_TYPE
// 1432   ZDO_RegisterForZDOMsg( ZDAppTaskID, Bind_rsp );
// 1433   ZDO_RegisterForZDOMsg( ZDAppTaskID, Unbind_rsp );
// 1434   ZDO_RegisterForZDOMsg( ZDAppTaskID, End_Device_Bind_req );
// 1435 #endif
// 1436 #if defined ( REFLECTOR )
// 1437   ZDO_RegisterForZDOMsg( ZDAppTaskID, Bind_req );
        ; Setup parameters for call to function ZDO_RegisterForZDOMsg
        MOV     R2,#0x21
        MOV     R3,#0x0
        MOV     DPTR,#ZDAppTaskID
        MOVX    A,@DPTR
        MOV     R1,A
        LCALL   `??ZDO_RegisterForZDOMsg::?relay`; Banked call to: ZDO_RegisterForZDOMsg
// 1438   ZDO_RegisterForZDOMsg( ZDAppTaskID, Unbind_req );
        ; Setup parameters for call to function ZDO_RegisterForZDOMsg
        MOV     R2,#0x22
        MOV     R3,#0x0
        MOV     DPTR,#ZDAppTaskID
        MOVX    A,@DPTR
        MOV     R1,A
        LCALL   `??ZDO_RegisterForZDOMsg::?relay`; Banked call to: ZDO_RegisterForZDOMsg
// 1439 #endif
// 1440 }
        LJMP    ??Subroutine40_0 & 0xFFFF
          CFI EndBlock cfiBlock14
// 1441 
// 1442 /*********************************************************************
// 1443  * @fn      ZDApp_ProcessSecMsg()
// 1444  *
// 1445  * @brief   Process the incoming security message.
// 1446  *
// 1447  * @param   msgPtr - message to process
// 1448  *
// 1449  * @return  none
// 1450  */

        RSEG BANKED_CODE:CODE:NOROOT(0)
// 1451 void ZDApp_ProcessSecMsg( osal_event_hdr_t *msgPtr )
ZDApp_ProcessSecMsg:
          CFI Block cfiBlock15 Using cfiCommon0
          CFI Function ZDApp_ProcessSecMsg
        CODE
// 1452 {
        FUNCALL ZDApp_ProcessSecMsg, ZDSecMgrTransportKeyInd
        LOCFRAME ISTACK, 2, STACK
        LOCFRAME PSTACK, 0, STACK
        LOCFRAME XSTACK, 0, STACK
        LOCFRAME IOVERLAY, 0, STATIC
        LOCFRAME DOVERLAY, 0, STATIC
        ARGFRAME ISTACK, 2, STACK
        ARGFRAME PSTACK, 0, STACK
        ARGFRAME XSTACK, 0, STACK
        ARGFRAME IOVERLAY, 0, STATIC
        ARGFRAME DOVERLAY, 0, STATIC
        FUNCALL ZDApp_ProcessSecMsg, ZDSecMgrSwitchKeyInd
        LOCFRAME ISTACK, 2, STACK
        LOCFRAME PSTACK, 0, STACK
        LOCFRAME XSTACK, 0, STACK
        LOCFRAME IOVERLAY, 0, STATIC
        LOCFRAME DOVERLAY, 0, STATIC
        ARGFRAME ISTACK, 2, STACK
        ARGFRAME PSTACK, 0, STACK
        ARGFRAME XSTACK, 0, STACK
        ARGFRAME IOVERLAY, 0, STATIC
        ARGFRAME DOVERLAY, 0, STATIC
        PUSH    DPL
          CFI DPL0 Frame(CFA_SP, 4)
          CFI CFA_SP SP+-4
        PUSH    DPH
          CFI DPH0 Frame(CFA_SP, 5)
          CFI CFA_SP SP+-5
        ; Saved register size: 2
        ; Auto size: 0
// 1453   switch ( msgPtr->event )
        MOV     DPL,R2
        MOV     DPH,R3
        MOVX    A,@DPTR
        ADD     A,#-0x4
        JZ      ??ZDApp_ProcessSecMsg_0
        ADD     A,#-0x4
        JZ      ??ZDApp_ProcessSecMsg_1
        SJMP    ??ZDApp_ProcessSecMsg_2
// 1454   {
// 1455     case ZDO_TRANSPORT_KEY_IND:
// 1456       if ( ZG_BUILD_JOINING_TYPE && ZG_DEVICE_JOINING_TYPE )
??ZDApp_ProcessSecMsg_0:
        MOV     DPTR,#zgDeviceLogicalType
        MOVX    A,@DPTR
        XRL     A,#0x1
        JZ      ??ZDApp_ProcessSecMsg_3
        MOVX    A,@DPTR
        XRL     A,#0x2
        JNZ     ??ZDApp_ProcessSecMsg_2
// 1457       {
// 1458         ZDSecMgrTransportKeyInd( (ZDO_TransportKeyInd_t*)msgPtr );
??ZDApp_ProcessSecMsg_3:
        ; Setup parameters for call to function ZDSecMgrTransportKeyInd
        LCALL   `??ZDSecMgrTransportKeyInd::?relay`; Banked call to: ZDSecMgrTransportKeyInd
        SJMP    ??ZDApp_ProcessSecMsg_2
// 1459       }
// 1460       break;
// 1461 
// 1462     case ZDO_UPDATE_DEVICE_IND:
// 1463       if ( ZG_BUILD_COORDINATOR_TYPE && ZG_DEVICE_COORDINATOR_TYPE )
// 1464       {
// 1465         ZDSecMgrUpdateDeviceInd( (ZDO_UpdateDeviceInd_t*)msgPtr );
// 1466       }
// 1467       break;
// 1468 
// 1469     case ZDO_REMOVE_DEVICE_IND:
// 1470       if ( ZG_BUILD_RTRONLY_TYPE && ( zgDeviceLogicalType == ZG_DEVICETYPE_ROUTER ) )
// 1471       {
// 1472         ZDSecMgrRemoveDeviceInd( (ZDO_RemoveDeviceInd_t*)msgPtr );
// 1473       }
// 1474       break;
// 1475 
// 1476     case ZDO_REQUEST_KEY_IND:
// 1477       if ( ( ZG_CHECK_SECURITY_MODE == ZG_SECURITY_SE_STANDARD ) )
// 1478       {
// 1479         if ( ZG_BUILD_COORDINATOR_TYPE && ZG_DEVICE_COORDINATOR_TYPE )
// 1480         {
// 1481           ZDSecMgrRequestKeyInd( (ZDO_RequestKeyInd_t*)msgPtr );
// 1482         }
// 1483       }
// 1484       break;
// 1485 
// 1486     case ZDO_SWITCH_KEY_IND:
// 1487       if ( ZG_BUILD_JOINING_TYPE && ZG_DEVICE_JOINING_TYPE )
??ZDApp_ProcessSecMsg_1:
        MOV     DPTR,#zgDeviceLogicalType
        MOVX    A,@DPTR
        XRL     A,#0x1
        JZ      ??ZDApp_ProcessSecMsg_4
        MOVX    A,@DPTR
        XRL     A,#0x2
        JNZ     ??ZDApp_ProcessSecMsg_2
// 1488       {
// 1489         ZDSecMgrSwitchKeyInd( (ZDO_SwitchKeyInd_t*)msgPtr );
??ZDApp_ProcessSecMsg_4:
        ; Setup parameters for call to function ZDSecMgrSwitchKeyInd
        LCALL   `??ZDSecMgrSwitchKeyInd::?relay`; Banked call to: ZDSecMgrSwitchKeyInd
// 1490       }
// 1491       break;
// 1492 
// 1493     default:
// 1494       // Unsupported messages
// 1495       break;
// 1496   }
// 1497 }
??ZDApp_ProcessSecMsg_2:
        LJMP    ??Subroutine40_0 & 0xFFFF
          CFI EndBlock cfiBlock15
// 1498 
// 1499 /*********************************************************************
// 1500  * @fn      ZDApp_ProcessNetworkJoin()
// 1501  *
// 1502  * @brief
// 1503  *
// 1504  *   Save off the Network key information.
// 1505  *
// 1506  * @param   none
// 1507  *
// 1508  * @return  none
// 1509  */

        RSEG BANKED_CODE:CODE:NOROOT(0)
// 1510 void ZDApp_ProcessNetworkJoin( void )
ZDApp_ProcessNetworkJoin:
          CFI Block cfiBlock16 Using cfiCommon0
          CFI Function ZDApp_ProcessNetworkJoin
        CODE
// 1511 {
        FUNCALL ZDApp_ProcessNetworkJoin, osal_set_event
        LOCFRAME ISTACK, 0, STACK
        LOCFRAME PSTACK, 0, STACK
        LOCFRAME XSTACK, 14, STACK
        LOCFRAME IOVERLAY, 0, STATIC
        LOCFRAME DOVERLAY, 0, STATIC
        ARGFRAME ISTACK, 0, STACK
        ARGFRAME PSTACK, 0, STACK
        ARGFRAME XSTACK, 14, STACK
        ARGFRAME IOVERLAY, 0, STATIC
        ARGFRAME DOVERLAY, 0, STATIC
        FUNCALL ZDApp_ProcessNetworkJoin, osal_pwrmgr_device
        LOCFRAME ISTACK, 0, STACK
        LOCFRAME PSTACK, 0, STACK
        LOCFRAME XSTACK, 14, STACK
        LOCFRAME IOVERLAY, 0, STATIC
        LOCFRAME DOVERLAY, 0, STATIC
        ARGFRAME ISTACK, 0, STACK
        ARGFRAME PSTACK, 0, STACK
        ARGFRAME XSTACK, 14, STACK
        ARGFRAME IOVERLAY, 0, STATIC
        ARGFRAME DOVERLAY, 0, STATIC
        FUNCALL ZDApp_ProcessNetworkJoin, ZDApp_RestoreNwkKey
        LOCFRAME ISTACK, 0, STACK
        LOCFRAME PSTACK, 0, STACK
        LOCFRAME XSTACK, 14, STACK
        LOCFRAME IOVERLAY, 0, STATIC
        LOCFRAME DOVERLAY, 0, STATIC
        ARGFRAME ISTACK, 0, STACK
        ARGFRAME PSTACK, 0, STACK
        ARGFRAME XSTACK, 14, STACK
        ARGFRAME IOVERLAY, 0, STATIC
        ARGFRAME DOVERLAY, 0, STATIC
        FUNCALL ZDApp_ProcessNetworkJoin, ZDApp_AnnounceNewAddress
        LOCFRAME ISTACK, 0, STACK
        LOCFRAME PSTACK, 0, STACK
        LOCFRAME XSTACK, 14, STACK
        LOCFRAME IOVERLAY, 0, STATIC
        LOCFRAME DOVERLAY, 0, STATIC
        ARGFRAME ISTACK, 0, STACK
        ARGFRAME PSTACK, 0, STACK
        ARGFRAME XSTACK, 14, STACK
        ARGFRAME IOVERLAY, 0, STATIC
        ARGFRAME DOVERLAY, 0, STATIC
        FUNCALL ZDApp_ProcessNetworkJoin, ZDApp_ChangeState
        LOCFRAME ISTACK, 0, STACK
        LOCFRAME PSTACK, 0, STACK
        LOCFRAME XSTACK, 14, STACK
        LOCFRAME IOVERLAY, 0, STATIC
        LOCFRAME DOVERLAY, 0, STATIC
        ARGFRAME ISTACK, 0, STACK
        ARGFRAME PSTACK, 0, STACK
        ARGFRAME XSTACK, 14, STACK
        ARGFRAME IOVERLAY, 0, STATIC
        ARGFRAME DOVERLAY, 0, STATIC
        FUNCALL ZDApp_ProcessNetworkJoin, NLME_GetShortAddr
        LOCFRAME ISTACK, 0, STACK
        LOCFRAME PSTACK, 0, STACK
        LOCFRAME XSTACK, 14, STACK
        LOCFRAME IOVERLAY, 0, STATIC
        LOCFRAME DOVERLAY, 0, STATIC
        ARGFRAME ISTACK, 0, STACK
        ARGFRAME PSTACK, 0, STACK
        ARGFRAME XSTACK, 14, STACK
        ARGFRAME IOVERLAY, 0, STATIC
        ARGFRAME DOVERLAY, 0, STATIC
        FUNCALL ZDApp_ProcessNetworkJoin, ZMacSetReq
        LOCFRAME ISTACK, 0, STACK
        LOCFRAME PSTACK, 0, STACK
        LOCFRAME XSTACK, 14, STACK
        LOCFRAME IOVERLAY, 0, STATIC
        LOCFRAME DOVERLAY, 0, STATIC
        ARGFRAME ISTACK, 0, STACK
        ARGFRAME PSTACK, 0, STACK
        ARGFRAME XSTACK, 14, STACK
        ARGFRAME IOVERLAY, 0, STATIC
        ARGFRAME DOVERLAY, 0, STATIC
        FUNCALL ZDApp_ProcessNetworkJoin, nwkNeighborInitTable
        LOCFRAME ISTACK, 0, STACK
        LOCFRAME PSTACK, 0, STACK
        LOCFRAME XSTACK, 14, STACK
        LOCFRAME IOVERLAY, 0, STATIC
        LOCFRAME DOVERLAY, 0, STATIC
        ARGFRAME ISTACK, 0, STACK
        ARGFRAME PSTACK, 0, STACK
        ARGFRAME XSTACK, 14, STACK
        ARGFRAME IOVERLAY, 0, STATIC
        ARGFRAME DOVERLAY, 0, STATIC
        FUNCALL ZDApp_ProcessNetworkJoin, NLME_NwkDiscTerm
        LOCFRAME ISTACK, 0, STACK
        LOCFRAME PSTACK, 0, STACK
        LOCFRAME XSTACK, 14, STACK
        LOCFRAME IOVERLAY, 0, STATIC
        LOCFRAME DOVERLAY, 0, STATIC
        ARGFRAME ISTACK, 0, STACK
        ARGFRAME PSTACK, 0, STACK
        ARGFRAME XSTACK, 14, STACK
        ARGFRAME IOVERLAY, 0, STATIC
        ARGFRAME DOVERLAY, 0, STATIC
        FUNCALL ZDApp_ProcessNetworkJoin, osal_rand
        LOCFRAME ISTACK, 0, STACK
        LOCFRAME PSTACK, 0, STACK
        LOCFRAME XSTACK, 14, STACK
        LOCFRAME IOVERLAY, 0, STATIC
        LOCFRAME DOVERLAY, 0, STATIC
        ARGFRAME ISTACK, 0, STACK
        ARGFRAME PSTACK, 0, STACK
        ARGFRAME XSTACK, 14, STACK
        ARGFRAME IOVERLAY, 0, STATIC
        ARGFRAME DOVERLAY, 0, STATIC
        FUNCALL ZDApp_ProcessNetworkJoin, ZDApp_NetworkInit
        LOCFRAME ISTACK, 0, STACK
        LOCFRAME PSTACK, 0, STACK
        LOCFRAME XSTACK, 14, STACK
        LOCFRAME IOVERLAY, 0, STATIC
        LOCFRAME DOVERLAY, 0, STATIC
        ARGFRAME ISTACK, 0, STACK
        ARGFRAME PSTACK, 0, STACK
        ARGFRAME XSTACK, 14, STACK
        ARGFRAME IOVERLAY, 0, STATIC
        ARGFRAME DOVERLAY, 0, STATIC
        FUNCALL ZDApp_ProcessNetworkJoin, ZDApp_RestoreNwkKey
        LOCFRAME ISTACK, 0, STACK
        LOCFRAME PSTACK, 0, STACK
        LOCFRAME XSTACK, 14, STACK
        LOCFRAME IOVERLAY, 0, STATIC
        LOCFRAME DOVERLAY, 0, STATIC
        ARGFRAME ISTACK, 0, STACK
        ARGFRAME PSTACK, 0, STACK
        ARGFRAME XSTACK, 14, STACK
        ARGFRAME IOVERLAY, 0, STATIC
        ARGFRAME DOVERLAY, 0, STATIC
        FUNCALL ZDApp_ProcessNetworkJoin, ZDApp_ChangeState
        LOCFRAME ISTACK, 0, STACK
        LOCFRAME PSTACK, 0, STACK
        LOCFRAME XSTACK, 14, STACK
        LOCFRAME IOVERLAY, 0, STATIC
        LOCFRAME DOVERLAY, 0, STATIC
        ARGFRAME ISTACK, 0, STACK
        ARGFRAME PSTACK, 0, STACK
        ARGFRAME XSTACK, 14, STACK
        ARGFRAME IOVERLAY, 0, STATIC
        ARGFRAME DOVERLAY, 0, STATIC
        FUNCALL ZDApp_ProcessNetworkJoin, ZDApp_ResetTimerStart
        LOCFRAME ISTACK, 0, STACK
        LOCFRAME PSTACK, 0, STACK
        LOCFRAME XSTACK, 14, STACK
        LOCFRAME IOVERLAY, 0, STATIC
        LOCFRAME DOVERLAY, 0, STATIC
        ARGFRAME ISTACK, 0, STACK
        ARGFRAME PSTACK, 0, STACK
        ARGFRAME XSTACK, 14, STACK
        ARGFRAME IOVERLAY, 0, STATIC
        ARGFRAME DOVERLAY, 0, STATIC
        FUNCALL ZDApp_ProcessNetworkJoin, ZDApp_ChangeState
        LOCFRAME ISTACK, 0, STACK
        LOCFRAME PSTACK, 0, STACK
        LOCFRAME XSTACK, 14, STACK
        LOCFRAME IOVERLAY, 0, STATIC
        LOCFRAME DOVERLAY, 0, STATIC
        ARGFRAME ISTACK, 0, STACK
        ARGFRAME PSTACK, 0, STACK
        ARGFRAME XSTACK, 14, STACK
        ARGFRAME IOVERLAY, 0, STATIC
        ARGFRAME DOVERLAY, 0, STATIC
        FUNCALL ZDApp_ProcessNetworkJoin, osal_stop_timerEx
        LOCFRAME ISTACK, 0, STACK
        LOCFRAME PSTACK, 0, STACK
        LOCFRAME XSTACK, 14, STACK
        LOCFRAME IOVERLAY, 0, STATIC
        LOCFRAME DOVERLAY, 0, STATIC
        ARGFRAME ISTACK, 0, STACK
        ARGFRAME PSTACK, 0, STACK
        ARGFRAME XSTACK, 14, STACK
        ARGFRAME IOVERLAY, 0, STATIC
        ARGFRAME DOVERLAY, 0, STATIC
        FUNCALL ZDApp_ProcessNetworkJoin, osal_pwrmgr_device
        LOCFRAME ISTACK, 0, STACK
        LOCFRAME PSTACK, 0, STACK
        LOCFRAME XSTACK, 14, STACK
        LOCFRAME IOVERLAY, 0, STATIC
        LOCFRAME DOVERLAY, 0, STATIC
        ARGFRAME ISTACK, 0, STACK
        ARGFRAME PSTACK, 0, STACK
        ARGFRAME XSTACK, 14, STACK
        ARGFRAME IOVERLAY, 0, STATIC
        ARGFRAME DOVERLAY, 0, STATIC
        FUNCALL ZDApp_ProcessNetworkJoin, NLME_SetPollRate
        LOCFRAME ISTACK, 0, STACK
        LOCFRAME PSTACK, 0, STACK
        LOCFRAME XSTACK, 14, STACK
        LOCFRAME IOVERLAY, 0, STATIC
        LOCFRAME DOVERLAY, 0, STATIC
        ARGFRAME ISTACK, 0, STACK
        ARGFRAME PSTACK, 0, STACK
        ARGFRAME XSTACK, 14, STACK
        ARGFRAME IOVERLAY, 0, STATIC
        ARGFRAME DOVERLAY, 0, STATIC
        FUNCALL ZDApp_ProcessNetworkJoin, NLME_SetQueuedPollRate
        LOCFRAME ISTACK, 0, STACK
        LOCFRAME PSTACK, 0, STACK
        LOCFRAME XSTACK, 14, STACK
        LOCFRAME IOVERLAY, 0, STATIC
        LOCFRAME DOVERLAY, 0, STATIC
        ARGFRAME ISTACK, 0, STACK
        ARGFRAME PSTACK, 0, STACK
        ARGFRAME XSTACK, 14, STACK
        ARGFRAME IOVERLAY, 0, STATIC
        ARGFRAME DOVERLAY, 0, STATIC
        FUNCALL ZDApp_ProcessNetworkJoin, NLME_SetResponseRate
        LOCFRAME ISTACK, 0, STACK
        LOCFRAME PSTACK, 0, STACK
        LOCFRAME XSTACK, 14, STACK
        LOCFRAME IOVERLAY, 0, STATIC
        LOCFRAME DOVERLAY, 0, STATIC
        ARGFRAME ISTACK, 0, STACK
        ARGFRAME PSTACK, 0, STACK
        ARGFRAME XSTACK, 14, STACK
        ARGFRAME IOVERLAY, 0, STATIC
        ARGFRAME DOVERLAY, 0, STATIC
        FUNCALL ZDApp_ProcessNetworkJoin, ZDApp_AnnounceNewAddress
        LOCFRAME ISTACK, 0, STACK
        LOCFRAME PSTACK, 0, STACK
        LOCFRAME XSTACK, 14, STACK
        LOCFRAME IOVERLAY, 0, STATIC
        LOCFRAME DOVERLAY, 0, STATIC
        ARGFRAME ISTACK, 0, STACK
        ARGFRAME PSTACK, 0, STACK
        ARGFRAME XSTACK, 14, STACK
        ARGFRAME IOVERLAY, 0, STATIC
        ARGFRAME DOVERLAY, 0, STATIC
        FUNCALL ZDApp_ProcessNetworkJoin, NLME_SetPollRate
        LOCFRAME ISTACK, 0, STACK
        LOCFRAME PSTACK, 0, STACK
        LOCFRAME XSTACK, 14, STACK
        LOCFRAME IOVERLAY, 0, STATIC
        LOCFRAME DOVERLAY, 0, STATIC
        ARGFRAME ISTACK, 0, STACK
        ARGFRAME PSTACK, 0, STACK
        ARGFRAME XSTACK, 14, STACK
        ARGFRAME IOVERLAY, 0, STATIC
        ARGFRAME DOVERLAY, 0, STATIC
        FUNCALL ZDApp_ProcessNetworkJoin, ZDApp_ResetNwkKey
        LOCFRAME ISTACK, 0, STACK
        LOCFRAME PSTACK, 0, STACK
        LOCFRAME XSTACK, 14, STACK
        LOCFRAME IOVERLAY, 0, STATIC
        LOCFRAME DOVERLAY, 0, STATIC
        ARGFRAME ISTACK, 0, STACK
        ARGFRAME PSTACK, 0, STACK
        ARGFRAME XSTACK, 14, STACK
        ARGFRAME IOVERLAY, 0, STATIC
        ARGFRAME DOVERLAY, 0, STATIC
        FUNCALL ZDApp_ProcessNetworkJoin, nwkNeighborInitTable
        LOCFRAME ISTACK, 0, STACK
        LOCFRAME PSTACK, 0, STACK
        LOCFRAME XSTACK, 14, STACK
        LOCFRAME IOVERLAY, 0, STATIC
        LOCFRAME DOVERLAY, 0, STATIC
        ARGFRAME ISTACK, 0, STACK
        ARGFRAME PSTACK, 0, STACK
        ARGFRAME XSTACK, 14, STACK
        ARGFRAME IOVERLAY, 0, STATIC
        ARGFRAME DOVERLAY, 0, STATIC
        FUNCALL ZDApp_ProcessNetworkJoin, NLME_NwkDiscTerm
        LOCFRAME ISTACK, 0, STACK
        LOCFRAME PSTACK, 0, STACK
        LOCFRAME XSTACK, 14, STACK
        LOCFRAME IOVERLAY, 0, STATIC
        LOCFRAME DOVERLAY, 0, STATIC
        ARGFRAME ISTACK, 0, STACK
        ARGFRAME PSTACK, 0, STACK
        ARGFRAME XSTACK, 14, STACK
        ARGFRAME IOVERLAY, 0, STATIC
        ARGFRAME DOVERLAY, 0, STATIC
        FUNCALL ZDApp_ProcessNetworkJoin, osal_rand
        LOCFRAME ISTACK, 0, STACK
        LOCFRAME PSTACK, 0, STACK
        LOCFRAME XSTACK, 14, STACK
        LOCFRAME IOVERLAY, 0, STATIC
        LOCFRAME DOVERLAY, 0, STATIC
        ARGFRAME ISTACK, 0, STACK
        ARGFRAME PSTACK, 0, STACK
        ARGFRAME XSTACK, 14, STACK
        ARGFRAME IOVERLAY, 0, STATIC
        ARGFRAME DOVERLAY, 0, STATIC
        FUNCALL ZDApp_ProcessNetworkJoin, ZDApp_NetworkInit
        LOCFRAME ISTACK, 0, STACK
        LOCFRAME PSTACK, 0, STACK
        LOCFRAME XSTACK, 14, STACK
        LOCFRAME IOVERLAY, 0, STATIC
        LOCFRAME DOVERLAY, 0, STATIC
        ARGFRAME ISTACK, 0, STACK
        ARGFRAME PSTACK, 0, STACK
        ARGFRAME XSTACK, 14, STACK
        ARGFRAME IOVERLAY, 0, STATIC
        ARGFRAME DOVERLAY, 0, STATIC
        FUNCALL ZDApp_ProcessNetworkJoin, ZDApp_AnnounceNewAddress
        LOCFRAME ISTACK, 0, STACK
        LOCFRAME PSTACK, 0, STACK
        LOCFRAME XSTACK, 14, STACK
        LOCFRAME IOVERLAY, 0, STATIC
        LOCFRAME DOVERLAY, 0, STATIC
        ARGFRAME ISTACK, 0, STACK
        ARGFRAME PSTACK, 0, STACK
        ARGFRAME XSTACK, 14, STACK
        ARGFRAME IOVERLAY, 0, STATIC
        ARGFRAME DOVERLAY, 0, STATIC
        FUNCALL ZDApp_ProcessNetworkJoin, osal_set_event
        LOCFRAME ISTACK, 0, STACK
        LOCFRAME PSTACK, 0, STACK
        LOCFRAME XSTACK, 14, STACK
        LOCFRAME IOVERLAY, 0, STATIC
        LOCFRAME DOVERLAY, 0, STATIC
        ARGFRAME ISTACK, 0, STACK
        ARGFRAME PSTACK, 0, STACK
        ARGFRAME XSTACK, 14, STACK
        ARGFRAME IOVERLAY, 0, STATIC
        ARGFRAME DOVERLAY, 0, STATIC
        REQUIRE ?V0
        REQUIRE ?V1
        REQUIRE ?V2
        REQUIRE ?V3
        MOV     A,#-0xc
        LCALL   ?BANKED_ENTER_XDATA
          CFI DPH0 load(1, XDATA, add(CFA_XSP16, literal(-1)))
          CFI DPL0 load(1, XDATA, add(CFA_XSP16, literal(-2)))
          CFI ?BRET_EXT load(1, XDATA, add(CFA_XSP16, literal(-3)))
          CFI ?RET_HIGH load(1, XDATA, add(CFA_XSP16, literal(-4)))
          CFI ?RET_LOW load(1, XDATA, add(CFA_XSP16, literal(-5)))
          CFI R7 load(1, XDATA, add(CFA_XSP16, literal(-6)))
          CFI V3 load(1, XDATA, add(CFA_XSP16, literal(-7)))
          CFI V2 load(1, XDATA, add(CFA_XSP16, literal(-8)))
          CFI V1 load(1, XDATA, add(CFA_XSP16, literal(-9)))
          CFI V0 load(1, XDATA, add(CFA_XSP16, literal(-10)))
          CFI VB load(1, XDATA, add(CFA_XSP16, literal(-11)))
          CFI R6 load(1, XDATA, add(CFA_XSP16, literal(-12)))
          CFI CFA_SP SP+0
          CFI CFA_XSP16 add(XSP16, 12)
        ; Saved register size: 12
        ; Auto size: 2
        MOV     A,#-0x2
        LCALL   ?ALLOC_XSTACK8
          CFI CFA_XSP16 add(XSP16, 14)
// 1512   if ( (devState == DEV_NWK_JOINING) ||
// 1513       ((devState == DEV_NWK_ORPHAN)  &&
// 1514        (ZDO_Config_Node_Descriptor.LogicalType == NODETYPE_ROUTER)) )
        MOV     DPTR,#devState
        MOVX    A,@DPTR
        XRL     A,#0x3
        JZ      ??ZDApp_ProcessNetworkJoin_0
        MOVX    A,@DPTR
        XRL     A,#0xa
        JZ      $+5
        LJMP    ??ZDApp_ProcessNetworkJoin_1 & 0xFFFF
        MOV     DPTR,#ZDO_Config_Node_Descriptor
        MOVX    A,@DPTR
        ANL     A,#0x7
        XRL     A,#0x1
        JZ      $+5
        LJMP    ??ZDApp_ProcessNetworkJoin_2 & 0xFFFF
// 1515   {
// 1516     // Result of a Join attempt by this device.
// 1517     if ( nwkStatus == ZSuccess )
??ZDApp_ProcessNetworkJoin_0:
        MOV     DPTR,#nwkStatus
        MOVX    A,@DPTR
        JNZ     ??ZDApp_ProcessNetworkJoin_3
// 1518     {
// 1519       osal_set_event( ZDAppTaskID, ZDO_STATE_CHANGE_EVT );
        ; Setup parameters for call to function osal_set_event
        MOV     R2,#0x10
        MOV     R3,#0x0
        MOV     DPTR,#ZDAppTaskID
        MOVX    A,@DPTR
        MOV     R1,A
        LCALL   `??osal_set_event::?relay`; Banked call to: osal_set_event
// 1520 
// 1521 #if defined ( POWER_SAVING )
// 1522       osal_pwrmgr_device( PWRMGR_BATTERY );
        ; Setup parameters for call to function osal_pwrmgr_device
        MOV     R1,#0x1
        LCALL   `??osal_pwrmgr_device::?relay`; Banked call to: osal_pwrmgr_device
// 1523 #endif
// 1524 
// 1525       if ( ZG_SECURE_ENABLED && ( ZDApp_RestoreNwkKey( TRUE ) == false ) )
        ; Setup parameters for call to function ZDApp_RestoreNwkKey
        MOV     R1,#0x1
        LCALL   `??ZDApp_RestoreNwkKey::?relay`; Banked call to: ZDApp_RestoreNwkKey
        MOV     A,R1
        JNZ     $+5
        LJMP    ??ZDApp_ProcessNetworkJoin_4 & 0xFFFF
// 1526       {
// 1527         // wait for auth from trust center
// 1528         ZDApp_ChangeState( DEV_END_DEVICE_UNAUTH );
// 1529 
// 1530         // Start the reset timer for MAX UNAUTH time
// 1531         ZDApp_ResetTimerStart( MAX_DEVICE_UNAUTH_TIMEOUT );
// 1532       }
// 1533       else
// 1534       {
// 1535         if ( ZSTACK_ROUTER_BUILD )
// 1536         {
// 1537           if ( devState == DEV_NWK_ORPHAN
// 1538             && ZDO_Config_Node_Descriptor.LogicalType != NODETYPE_DEVICE )
// 1539           {
// 1540             // Change NIB state to router for restore
// 1541             _NIB.nwkState = NWK_ROUTER;
// 1542           }
// 1543         }
// 1544 
// 1545         if ( devState == DEV_NWK_JOINING )
        MOV     DPTR,#devState
        MOVX    A,@DPTR
        XRL     A,#0x3
        JNZ     ??ZDApp_ProcessNetworkJoin_5
// 1546         {
// 1547           ZDApp_AnnounceNewAddress();
        ; Setup parameters for call to function ZDApp_AnnounceNewAddress
        LCALL   `??ZDApp_AnnounceNewAddress::?relay`; Banked call to: ZDApp_AnnounceNewAddress
// 1548         }
// 1549 
// 1550         ZDApp_ChangeState( DEV_END_DEVICE );
??ZDApp_ProcessNetworkJoin_5:
        ; Setup parameters for call to function ZDApp_ChangeState
        MOV     R1,#0x6
        LCALL   `??ZDApp_ChangeState::?relay`; Banked call to: ZDApp_ChangeState
// 1551 
// 1552         if ( ZSTACK_ROUTER_BUILD )
        LJMP    ??ZDApp_ProcessNetworkJoin_6 & 0xFFFF
// 1553         {
// 1554           // NOTE: first two parameters are not used, see NLMEDE.h for details
// 1555           if ( ZDO_Config_Node_Descriptor.LogicalType != NODETYPE_DEVICE )
// 1556           {
// 1557             NLME_StartRouterRequest( 0, 0, false );
// 1558           }
// 1559         }
// 1560       }
// 1561     }
// 1562     else
// 1563     {
// 1564       if ( (devStartMode == MODE_RESUME) && (++retryCnt >= MAX_RESUME_RETRY) )
??ZDApp_ProcessNetworkJoin_3:
        MOV     DPTR,#devStartMode
        MOVX    A,@DPTR
        XRL     A,#0x1
        JNZ     ??ZDApp_ProcessNetworkJoin_7
        MOV     DPTR,#retryCnt
        MOVX    A,@DPTR
        INC     A
        MOVX    @DPTR,A
        CLR     C
        SUBB    A,#0x3
        JC      ??ZDApp_ProcessNetworkJoin_7
// 1565       {
// 1566         if ( _NIB.nwkPanId == 0xFFFF )
        MOV     DPTR,#_NIB + 33
        MOVX    A,@DPTR
        CPL     A
        JNZ     ??ZDApp_ProcessNetworkJoin_8
        INC     DPTR
        MOVX    A,@DPTR
        CPL     A
??ZDApp_ProcessNetworkJoin_8:
        MOV     DPTR,#devStartMode
        JNZ     ??ZDApp_ProcessNetworkJoin_9
// 1567           devStartMode = MODE_JOIN;
        CLR     A
        SJMP    ??ZDApp_ProcessNetworkJoin_10
// 1568         else
// 1569         {
// 1570           devStartMode = MODE_REJOIN;
??ZDApp_ProcessNetworkJoin_9:
        MOV     A,#0x3
        MOVX    @DPTR,A
// 1571           _tmpRejoinState = true;
        MOV     DPTR,#_tmpRejoinState
        MOV     A,#0x1
??ZDApp_ProcessNetworkJoin_10:
        MOVX    @DPTR,A
// 1572         }
// 1573       }
// 1574 
// 1575       if ( (NLME_GetShortAddr() != INVALID_NODE_ADDR) ||
// 1576            (_NIB.nwkDevAddress != INVALID_NODE_ADDR) )
??ZDApp_ProcessNetworkJoin_7:
        ; Setup parameters for call to function NLME_GetShortAddr
        LCALL   `??NLME_GetShortAddr::?relay`; Banked call to: NLME_GetShortAddr
        MOV     ?V0,R2
        MOV     ?V1,R3
        MOV     A,#-0x2
        XRL     A,?V0
        JNZ     ??ZDApp_ProcessNetworkJoin_11
        MOV     A,#-0x1
        XRL     A,?V1
??ZDApp_ProcessNetworkJoin_11:
        JNZ     ??ZDApp_ProcessNetworkJoin_12
        MOV     DPTR,#_NIB + 20
        MOVX    A,@DPTR
        XRL     A,#0xfe
        JNZ     ??ZDApp_ProcessNetworkJoin_13
        INC     DPTR
        MOVX    A,@DPTR
        CPL     A
??ZDApp_ProcessNetworkJoin_13:
        JZ      ??ZDApp_ProcessNetworkJoin_14
// 1577       {
// 1578         uint16 addr = INVALID_NODE_ADDR;
??ZDApp_ProcessNetworkJoin_12:
        MOV     DPL,?XSP + 0
        MOV     DPH,?XSP + 1
        MOV     A,#-0x2
        MOVX    @DPTR,A
        INC     DPTR
        INC     A
        MOVX    @DPTR,A
// 1579         // Invalidate nwk addr so end device does not use in its data reqs.
// 1580         _NIB.nwkDevAddress = INVALID_NODE_ADDR;
        MOV     DPTR,#_NIB + 20
        DEC     A
        MOVX    @DPTR,A
        INC     DPTR
        INC     A
        MOVX    @DPTR,A
// 1581         ZMacSetReq( ZMacShortAddress, (uint8 *)&addr );
        ; Setup parameters for call to function ZMacSetReq
        MOV     R2,?XSP + 0
        MOV     R3,?XSP + 1
        MOV     R1,#0x53
        LCALL   `??ZMacSetReq::?relay`; Banked call to: ZMacSetReq
// 1582       }
// 1583 
// 1584       // Clear the neighbor Table and network discovery tables.
// 1585       nwkNeighborInitTable();
??ZDApp_ProcessNetworkJoin_14:
        ; Setup parameters for call to function nwkNeighborInitTable
        LCALL   `??nwkNeighborInitTable::?relay`; Banked call to: nwkNeighborInitTable
// 1586       NLME_NwkDiscTerm();
        ; Setup parameters for call to function NLME_NwkDiscTerm
        LCALL   `??NLME_NwkDiscTerm::?relay`; Banked call to: NLME_NwkDiscTerm
// 1587 
// 1588       zdoDiscCounter = 1;
        MOV     DPTR,#zdoDiscCounter
        MOV     A,#0x1
        MOVX    @DPTR,A
// 1589 
// 1590       ZDApp_NetworkInit( (uint16)(NWK_START_DELAY
// 1591            + ((uint16)(osal_rand()& EXTENDED_JOINING_RANDOM_MASK))) );
        ; Setup parameters for call to function osal_rand
        LJMP    ??ZDApp_ProcessNetworkJoin_15 & 0xFFFF
// 1592     }
// 1593   }
// 1594   else if ( devState == DEV_NWK_ORPHAN ||
// 1595             devState == DEV_NWK_SEC_REJOIN_CURR_CHANNEL ||
// 1596             devState == DEV_NWK_TC_REJOIN_CURR_CHANNEL ||
// 1597             devState == DEV_NWK_TC_REJOIN_ALL_CHANNEL ||
// 1598             devState == DEV_NWK_SEC_REJOIN_ALL_CHANNEL )
??ZDApp_ProcessNetworkJoin_1:
        MOVX    A,@DPTR
        XRL     A,#0x4
        JZ      ??ZDApp_ProcessNetworkJoin_2
        MOVX    A,@DPTR
        XRL     A,#0xe
        JZ      ??ZDApp_ProcessNetworkJoin_2
        MOVX    A,@DPTR
        XRL     A,#0xf
        JZ      ??ZDApp_ProcessNetworkJoin_2
        MOVX    A,@DPTR
        XRL     A,#0xd
        JZ      $+5
        LJMP    ??ZDApp_ProcessNetworkJoin_16 & 0xFFFF
// 1599   {
// 1600     // results of an orphaning attempt by this device
// 1601     if (nwkStatus == ZSuccess)
??ZDApp_ProcessNetworkJoin_2:
        MOV     DPTR,#nwkStatus
        MOVX    A,@DPTR
        JNZ     ??ZDApp_ProcessNetworkJoin_17
// 1602     {
// 1603       // Verify NWK key is available before sending Device_annce
// 1604       if ( ZG_SECURE_ENABLED && ( ZDApp_RestoreNwkKey( TRUE ) == false ) )
        ; Setup parameters for call to function ZDApp_RestoreNwkKey
        MOV     R1,#0x1
        LCALL   `??ZDApp_RestoreNwkKey::?relay`; Banked call to: ZDApp_RestoreNwkKey
        MOV     A,R1
        JNZ     ??ZDApp_ProcessNetworkJoin_18
// 1605       {
// 1606         // wait for auth from trust center
// 1607         ZDApp_ChangeState( DEV_END_DEVICE_UNAUTH );
??ZDApp_ProcessNetworkJoin_4:
        ; Setup parameters for call to function ZDApp_ChangeState
        MOV     R1,#0x5
        LCALL   `??ZDApp_ChangeState::?relay`; Banked call to: ZDApp_ChangeState
// 1608 
// 1609         // Start the reset timer for MAX UNAUTH time
// 1610         ZDApp_ResetTimerStart( MAX_DEVICE_UNAUTH_TIMEOUT );
        ; Setup parameters for call to function ZDApp_ResetTimerStart
        MOV     R2,#0x10
        MOV     R3,#0x27
        LCALL   `??ZDApp_ResetTimerStart::?relay`; Banked call to: ZDApp_ResetTimerStart
        LJMP    ??ZDApp_ProcessNetworkJoin_6 & 0xFFFF
// 1611       }
// 1612       else
// 1613       {
// 1614         ZDApp_ChangeState( DEV_END_DEVICE );
??ZDApp_ProcessNetworkJoin_18:
        ; Setup parameters for call to function ZDApp_ChangeState
        MOV     R1,#0x6
        LCALL   `??ZDApp_ChangeState::?relay`; Banked call to: ZDApp_ChangeState
// 1615 
// 1616         osal_stop_timerEx( ZDAppTaskID, ZDO_REJOIN_BACKOFF );
        ; Setup parameters for call to function osal_stop_timerEx
        MOV     R2,#0x0
        MOV     R3,#0x20
        MOV     DPTR,#ZDAppTaskID
        MOVX    A,@DPTR
        MOV     R1,A
        LCALL   `??osal_stop_timerEx::?relay`; Banked call to: osal_stop_timerEx
// 1617 
// 1618         // setup Power Manager Device
// 1619 #if defined ( POWER_SAVING )
// 1620         osal_pwrmgr_device( PWRMGR_BATTERY );
        ; Setup parameters for call to function osal_pwrmgr_device
        MOV     R1,#0x1
        LCALL   `??osal_pwrmgr_device::?relay`; Banked call to: osal_pwrmgr_device
// 1621 #endif
// 1622 
// 1623         // The receiver is on, turn network layer polling off.
// 1624         if ( ZDO_Config_Node_Descriptor.CapabilityFlags & CAPINFO_RCVR_ON_IDLE )
        MOV     DPTR,#ZDO_Config_Node_Descriptor + 2
        MOVX    A,@DPTR
        MOV     C,0xE0 /* A   */.3
        JNC     ??ZDApp_ProcessNetworkJoin_19
// 1625         {
// 1626           // if Child Table Management process is not enabled
// 1627           if ( zgChildAgingEnable == FALSE )
        MOV     DPTR,#zgChildAgingEnable
        MOVX    A,@DPTR
        JNZ     ??ZDApp_ProcessNetworkJoin_19
// 1628           {
// 1629             NLME_SetPollRate( 0 );
        ; Setup parameters for call to function NLME_SetPollRate
        MOV     DPTR,#__Constant_0
        LCALL   ?XLOAD_R2345
        LCALL   `??NLME_SetPollRate::?relay`; Banked call to: NLME_SetPollRate
// 1630             NLME_SetQueuedPollRate( 0 );
        ; Setup parameters for call to function NLME_SetQueuedPollRate
        MOV     R2,#0x0
        MOV     R3,#0x0
        LCALL   `??NLME_SetQueuedPollRate::?relay`; Banked call to: NLME_SetQueuedPollRate
// 1631             NLME_SetResponseRate( 0 );
        ; Setup parameters for call to function NLME_SetResponseRate
        MOV     R2,#0x0
        MOV     R3,#0x0
        LCALL   `??NLME_SetResponseRate::?relay`; Banked call to: NLME_SetResponseRate
// 1632           }
// 1633         }
// 1634 
// 1635         if ( ZSTACK_ROUTER_BUILD )
// 1636         {
// 1637           // NOTE: first two parameters are not used, see NLMEDE.h for details
// 1638           if ( ZDO_Config_Node_Descriptor.LogicalType != NODETYPE_DEVICE )
// 1639           {
// 1640             NLME_StartRouterRequest( 0, 0, false );
// 1641           }
// 1642         }
// 1643 
// 1644         ZDApp_AnnounceNewAddress();
??ZDApp_ProcessNetworkJoin_19:
        ; Setup parameters for call to function ZDApp_AnnounceNewAddress
        LCALL   `??ZDApp_AnnounceNewAddress::?relay`; Banked call to: ZDApp_AnnounceNewAddress
// 1645 
// 1646         if ( ( (ZDO_Config_Node_Descriptor.CapabilityFlags & CAPINFO_RCVR_ON_IDLE) == 0 )
// 1647             || ( (ZDO_Config_Node_Descriptor.CapabilityFlags & CAPINFO_RCVR_ON_IDLE)
// 1648               && (zgChildAgingEnable == TRUE) ) )
        MOV     DPTR,#ZDO_Config_Node_Descriptor + 2
        MOVX    A,@DPTR
        MOV     C,0xE0 /* A   */.3
        JNC     ??ZDApp_ProcessNetworkJoin_20
        MOV     DPTR,#zgChildAgingEnable
        MOVX    A,@DPTR
        XRL     A,#0x1
        JZ      $+5
        LJMP    ??ZDApp_ProcessNetworkJoin_6 & 0xFFFF
// 1649         {
// 1650           NLME_SetPollRate( ZDApp_SavedPollRate );
??ZDApp_ProcessNetworkJoin_20:
        ; Setup parameters for call to function NLME_SetPollRate
        MOV     DPTR,#ZDApp_SavedPollRate
        LCALL   ?XLOAD_R2345
        LCALL   `??NLME_SetPollRate::?relay`; Banked call to: NLME_SetPollRate
        LJMP    ??ZDApp_ProcessNetworkJoin_6 & 0xFFFF
// 1651         }
// 1652       }
// 1653     }
// 1654     else
// 1655     {
// 1656       if ( devStartMode == MODE_RESUME )
??ZDApp_ProcessNetworkJoin_17:
        MOV     DPTR,#devStartMode
        MOVX    A,@DPTR
        XRL     A,#0x1
        JNZ     ??ZDApp_ProcessNetworkJoin_21
// 1657       {
// 1658         if ( ++retryCnt <= MAX_RESUME_RETRY )
        MOV     DPTR,#retryCnt
        MOVX    A,@DPTR
        INC     A
        MOVX    @DPTR,A
        CLR     C
        SUBB    A,#0x4
        JNC     ??ZDApp_ProcessNetworkJoin_22
// 1659         {
// 1660           if ( _NIB.nwkPanId == 0xFFFF )
        MOV     DPTR,#_NIB + 33
        MOVX    A,@DPTR
        CPL     A
        JNZ     ??ZDApp_ProcessNetworkJoin_23
        INC     DPTR
        MOVX    A,@DPTR
        CPL     A
??ZDApp_ProcessNetworkJoin_23:
        JZ      ??ZDApp_ProcessNetworkJoin_24
// 1661             devStartMode = MODE_JOIN;
// 1662           else
// 1663           {
// 1664             devStartMode = MODE_REJOIN;
        MOV     DPTR,#devStartMode
        MOV     A,#0x3
        MOVX    @DPTR,A
// 1665             _tmpRejoinState = true;
        MOV     DPTR,#_tmpRejoinState
        MOV     A,#0x1
        MOVX    @DPTR,A
// 1666             prevDevState = DEV_NWK_SEC_REJOIN_CURR_CHANNEL;
        MOV     DPTR,#prevDevState
        MOV     A,#0x4
        SJMP    ??ZDApp_ProcessNetworkJoin_25
// 1667           }
// 1668         }
// 1669         // Do a normal join to the network after certain times of rejoin retries
// 1670         else if( AIB_apsUseInsecureJoin == true )
??ZDApp_ProcessNetworkJoin_22:
        MOV     DPTR,#AIB_apsUseInsecureJoin
        MOVX    A,@DPTR
        XRL     A,#0x1
        JNZ     ??ZDApp_ProcessNetworkJoin_26
// 1671         {
// 1672           devStartMode = MODE_JOIN;
??ZDApp_ProcessNetworkJoin_24:
        MOV     DPTR,#devStartMode
        CLR     A
        SJMP    ??ZDApp_ProcessNetworkJoin_25
// 1673         }
// 1674       }
// 1675       else if(devStartMode == MODE_REJOIN)
??ZDApp_ProcessNetworkJoin_21:
        MOVX    A,@DPTR
        XRL     A,#0x3
        JNZ     ??ZDApp_ProcessNetworkJoin_26
// 1676       {
// 1677         if ( ZSTACK_END_DEVICE_BUILD )
// 1678         {
// 1679           devStartMode = MODE_REJOIN;
// 1680           _tmpRejoinState = true;
        MOV     DPTR,#_tmpRejoinState
        MOV     A,#0x1
        MOVX    @DPTR,A
// 1681           _NIB.nwkState = NWK_INIT;
        MOV     DPTR,#_NIB + 35
        CLR     A
        MOVX    @DPTR,A
// 1682 
// 1683           if( prevDevState == DEV_NWK_SEC_REJOIN_CURR_CHANNEL )
        MOV     DPTR,#prevDevState
        MOVX    A,@DPTR
        XRL     A,#0x4
        JNZ     ??ZDApp_ProcessNetworkJoin_27
// 1684           {
// 1685             runtimeChannel = MAX_CHANNELS_24GHZ;
        LCALL   ?Subroutine10 & 0xFFFF
// 1686             prevDevState = DEV_NWK_SEC_REJOIN_ALL_CHANNEL ;
// 1687           }
??CrossCallReturnLabel_0:
        MOV     A,#0xd
        SJMP    ??ZDApp_ProcessNetworkJoin_25
// 1688           else if ( prevDevState == DEV_NWK_SEC_REJOIN_ALL_CHANNEL)
??ZDApp_ProcessNetworkJoin_27:
        MOVX    A,@DPTR
        XRL     A,#0xd
        JNZ     ??ZDApp_ProcessNetworkJoin_28
// 1689           {
// 1690             // Set the flag that will ask the device to do trust center network layer rejoin.
// 1691             _NIB.nwkKeyLoaded = FALSE;
        MOV     DPTR,#_NIB + 61
        CLR     A
        MOVX    @DPTR,A
// 1692             ZDApp_ResetNwkKey(); // Clear up the old network key.
        ; Setup parameters for call to function ZDApp_ResetNwkKey
        LCALL   `??ZDApp_ResetNwkKey::?relay`; Banked call to: ZDApp_ResetNwkKey
// 1693             runtimeChannel = (uint32) (1L << _NIB.nwkLogicalChannel);
        MOV     ?V0,#0x1
        MOV     ?V1,#0x0
        MOV     ?V2,#0x0
        MOV     ?V3,#0x0
        MOV     DPTR,#_NIB + 22
        MOVX    A,@DPTR
        MOV     R0,#?V0
        LCALL   ?L_SHL
        MOV     DPTR,#runtimeChannel
        MOV     R0,#?V0
        LCALL   ?L_MOV_TO_X
// 1694             prevDevState = DEV_NWK_TC_REJOIN_CURR_CHANNEL ;
        MOV     DPTR,#prevDevState
        MOV     A,#0xe
        SJMP    ??ZDApp_ProcessNetworkJoin_25
// 1695           }
// 1696           else if ( prevDevState == DEV_NWK_TC_REJOIN_CURR_CHANNEL )
??ZDApp_ProcessNetworkJoin_28:
        MOVX    A,@DPTR
        XRL     A,#0xe
        JNZ     ??ZDApp_ProcessNetworkJoin_26
// 1697           {
// 1698             runtimeChannel = MAX_CHANNELS_24GHZ;
        LCALL   ?Subroutine10 & 0xFFFF
// 1699             prevDevState= DEV_NWK_TC_REJOIN_ALL_CHANNEL ;
// 1700           }
// 1701 
// 1702         }
// 1703       }
??CrossCallReturnLabel_1:
        MOV     A,#0xf
??ZDApp_ProcessNetworkJoin_25:
        MOVX    @DPTR,A
// 1704 
// 1705       // Clear the neighbor Table and network discovery tables.
// 1706       nwkNeighborInitTable();
??ZDApp_ProcessNetworkJoin_26:
        ; Setup parameters for call to function nwkNeighborInitTable
        LCALL   `??nwkNeighborInitTable::?relay`; Banked call to: nwkNeighborInitTable
// 1707       NLME_NwkDiscTerm();
        ; Setup parameters for call to function NLME_NwkDiscTerm
        LCALL   `??NLME_NwkDiscTerm::?relay`; Banked call to: NLME_NwkDiscTerm
// 1708 
// 1709       // setup a retry for later...
// 1710       ZDApp_NetworkInit( (uint16)(NWK_START_DELAY
// 1711            + (osal_rand()& EXTENDED_JOINING_RANDOM_MASK)) );
        ; Setup parameters for call to function osal_rand
??ZDApp_ProcessNetworkJoin_15:
        LCALL   `??osal_rand::?relay`; Banked call to: osal_rand
        ; Setup parameters for call to function ZDApp_NetworkInit
// 1712     }
// 1713   }
        LCALL   ?Subroutine29 & 0xFFFF
??CrossCallReturnLabel_34:
        LCALL   `??ZDApp_NetworkInit::?relay`; Banked call to: ZDApp_NetworkInit
        SJMP    ??ZDApp_ProcessNetworkJoin_6
// 1714 #if defined ( ZIGBEEPRO )
// 1715   else if ( devState != DEV_HOLD )
??ZDApp_ProcessNetworkJoin_16:
        MOVX    A,@DPTR
        JZ      ??ZDApp_ProcessNetworkJoin_6
// 1716   {
// 1717     // Assume from address conflict
// 1718 
// 1719     // Notify the network
// 1720     ZDApp_AnnounceNewAddress();
        ; Setup parameters for call to function ZDApp_AnnounceNewAddress
        LCALL   `??ZDApp_AnnounceNewAddress::?relay`; Banked call to: ZDApp_AnnounceNewAddress
// 1721 
// 1722     // Notify apps
// 1723     osal_set_event( ZDAppTaskID, ZDO_STATE_CHANGE_EVT );
        ; Setup parameters for call to function osal_set_event
        MOV     R2,#0x10
        MOV     R3,#0x0
        MOV     DPTR,#ZDAppTaskID
        MOVX    A,@DPTR
        MOV     R1,A
        LCALL   `??osal_set_event::?relay`; Banked call to: osal_set_event
// 1724   }
// 1725 #endif
// 1726 }
??ZDApp_ProcessNetworkJoin_6:
        LJMP    ?Subroutine2 & 0xFFFF
          CFI EndBlock cfiBlock16

        RSEG BANKED_CODE:CODE:NOROOT(0)
?Subroutine29:
          CFI Block cfiCond17 Using cfiCommon0
          CFI Function ZDApp_ProcessOSALMsg
          CFI Conditional ??CrossCallReturnLabel_33
          CFI R6 load(1, XDATA, add(CFA_XSP16, literal(-12)))
          CFI VB load(1, XDATA, add(CFA_XSP16, literal(-11)))
          CFI V0 load(1, XDATA, add(CFA_XSP16, literal(-10)))
          CFI V1 load(1, XDATA, add(CFA_XSP16, literal(-9)))
          CFI V2 load(1, XDATA, add(CFA_XSP16, literal(-8)))
          CFI V3 load(1, XDATA, add(CFA_XSP16, literal(-7)))
          CFI R7 load(1, XDATA, add(CFA_XSP16, literal(-6)))
          CFI ?RET_LOW load(1, XDATA, add(CFA_XSP16, literal(-5)))
          CFI ?RET_HIGH load(1, XDATA, add(CFA_XSP16, literal(-4)))
          CFI ?BRET_EXT load(1, XDATA, add(CFA_XSP16, literal(-3)))
          CFI DPL0 load(1, XDATA, add(CFA_XSP16, literal(-2)))
          CFI DPH0 load(1, XDATA, add(CFA_XSP16, literal(-1)))
          CFI CFA_SP SP+-2
          CFI CFA_XSP16 add(XSP16, 15)
          CFI Block cfiCond18 Using cfiCommon0
          CFI (cfiCond18) Function ZDApp_ProcessNetworkJoin
          CFI (cfiCond18) Conditional ??CrossCallReturnLabel_34
          CFI (cfiCond18) R6 load(1, XDATA, add(CFA_XSP16, literal(-12)))
          CFI (cfiCond18) VB load(1, XDATA, add(CFA_XSP16, literal(-11)))
          CFI (cfiCond18) V0 load(1, XDATA, add(CFA_XSP16, literal(-10)))
          CFI (cfiCond18) V1 load(1, XDATA, add(CFA_XSP16, literal(-9)))
          CFI (cfiCond18) V2 load(1, XDATA, add(CFA_XSP16, literal(-8)))
          CFI (cfiCond18) V3 load(1, XDATA, add(CFA_XSP16, literal(-7)))
          CFI (cfiCond18) R7 load(1, XDATA, add(CFA_XSP16, literal(-6)))
          CFI (cfiCond18) ?RET_LOW load(1, XDATA, add(CFA_XSP16, literal(-5)))
          CFI (cfiCond18) ?RET_HIGH load(1, XDATA, add(CFA_XSP16, literal(-4)))
          CFI (cfiCond18) ?BRET_EXT load(1, XDATA, add(CFA_XSP16, literal(-3)))
          CFI (cfiCond18) DPL0 load(1, XDATA, add(CFA_XSP16, literal(-2)))
          CFI (cfiCond18) DPH0 load(1, XDATA, add(CFA_XSP16, literal(-1)))
          CFI (cfiCond18) CFA_SP SP+-2
          CFI (cfiCond18) CFA_XSP16 add(XSP16, 14)
          CFI Block cfiCond19 Using cfiCommon0
          CFI (cfiCond19) Function ZDApp_LeaveReset
          CFI (cfiCond19) Conditional ??CrossCallReturnLabel_35
          CFI (cfiCond19) R6 load(1, XDATA, add(CFA_XSP16, literal(-10)))
          CFI (cfiCond19) VB load(1, XDATA, add(CFA_XSP16, literal(-9)))
          CFI (cfiCond19) V0 load(1, XDATA, add(CFA_XSP16, literal(-8)))
          CFI (cfiCond19) V1 load(1, XDATA, add(CFA_XSP16, literal(-7)))
          CFI (cfiCond19) R7 load(1, XDATA, add(CFA_XSP16, literal(-6)))
          CFI (cfiCond19) ?RET_LOW load(1, XDATA, add(CFA_XSP16, literal(-5)))
          CFI (cfiCond19) ?RET_HIGH load(1, XDATA, add(CFA_XSP16, literal(-4)))
          CFI (cfiCond19) ?BRET_EXT load(1, XDATA, add(CFA_XSP16, literal(-3)))
          CFI (cfiCond19) DPL0 load(1, XDATA, add(CFA_XSP16, literal(-2)))
          CFI (cfiCond19) DPH0 load(1, XDATA, add(CFA_XSP16, literal(-1)))
          CFI (cfiCond19) CFA_SP SP+-2
          CFI (cfiCond19) CFA_XSP16 add(XSP16, 10)
          CFI Block cfiPicker20 Using cfiCommon1
          CFI (cfiPicker20) NoFunction
          CFI (cfiPicker20) Picker
        MOV     A,R2
        ANL     A,#0x7f
        ADD     A,#0x64
        MOV     R2,A
        MOV     R3,#0x0
        RET
          CFI (cfiCond17) CFA_SP SP+0
          CFI (cfiCond18) CFA_SP SP+0
          CFI (cfiCond19) CFA_SP SP+0
          CFI (cfiPicker20) CFA_SP SP+0
          CFI EndBlock cfiCond17
          CFI EndBlock cfiCond18
          CFI EndBlock cfiCond19
          CFI EndBlock cfiPicker20

        RSEG BANKED_CODE:CODE:NOROOT(0)
?Subroutine10:
          CFI Block cfiCond21 Using cfiCommon0
          CFI Function ZDApp_ProcessNetworkJoin
          CFI Conditional ??CrossCallReturnLabel_0
          CFI R6 load(1, XDATA, add(CFA_XSP16, literal(-12)))
          CFI VB load(1, XDATA, add(CFA_XSP16, literal(-11)))
          CFI V0 load(1, XDATA, add(CFA_XSP16, literal(-10)))
          CFI V1 load(1, XDATA, add(CFA_XSP16, literal(-9)))
          CFI V2 load(1, XDATA, add(CFA_XSP16, literal(-8)))
          CFI V3 load(1, XDATA, add(CFA_XSP16, literal(-7)))
          CFI R7 load(1, XDATA, add(CFA_XSP16, literal(-6)))
          CFI ?RET_LOW load(1, XDATA, add(CFA_XSP16, literal(-5)))
          CFI ?RET_HIGH load(1, XDATA, add(CFA_XSP16, literal(-4)))
          CFI ?BRET_EXT load(1, XDATA, add(CFA_XSP16, literal(-3)))
          CFI DPL0 load(1, XDATA, add(CFA_XSP16, literal(-2)))
          CFI DPH0 load(1, XDATA, add(CFA_XSP16, literal(-1)))
          CFI CFA_SP SP+-2
          CFI CFA_XSP16 add(XSP16, 14)
          CFI Block cfiCond22 Using cfiCommon0
          CFI (cfiCond22) Function ZDApp_ProcessNetworkJoin
          CFI (cfiCond22) Conditional ??CrossCallReturnLabel_1
          CFI (cfiCond22) R6 load(1, XDATA, add(CFA_XSP16, literal(-12)))
          CFI (cfiCond22) VB load(1, XDATA, add(CFA_XSP16, literal(-11)))
          CFI (cfiCond22) V0 load(1, XDATA, add(CFA_XSP16, literal(-10)))
          CFI (cfiCond22) V1 load(1, XDATA, add(CFA_XSP16, literal(-9)))
          CFI (cfiCond22) V2 load(1, XDATA, add(CFA_XSP16, literal(-8)))
          CFI (cfiCond22) V3 load(1, XDATA, add(CFA_XSP16, literal(-7)))
          CFI (cfiCond22) R7 load(1, XDATA, add(CFA_XSP16, literal(-6)))
          CFI (cfiCond22) ?RET_LOW load(1, XDATA, add(CFA_XSP16, literal(-5)))
          CFI (cfiCond22) ?RET_HIGH load(1, XDATA, add(CFA_XSP16, literal(-4)))
          CFI (cfiCond22) ?BRET_EXT load(1, XDATA, add(CFA_XSP16, literal(-3)))
          CFI (cfiCond22) DPL0 load(1, XDATA, add(CFA_XSP16, literal(-2)))
          CFI (cfiCond22) DPH0 load(1, XDATA, add(CFA_XSP16, literal(-1)))
          CFI (cfiCond22) CFA_SP SP+-2
          CFI (cfiCond22) CFA_XSP16 add(XSP16, 14)
          CFI Block cfiPicker23 Using cfiCommon1
          CFI (cfiPicker23) NoFunction
          CFI (cfiPicker23) Picker
        MOV     DPTR,#runtimeChannel
        CLR     A
        MOVX    @DPTR,A
        INC     DPTR
        MOV     A,#-0x8
        MOVX    @DPTR,A
        INC     DPTR
        MOV     A,#-0x1
        MOVX    @DPTR,A
        INC     DPTR
        MOV     A,#0x7
        MOVX    @DPTR,A
        MOV     DPTR,#prevDevState
        RET
          CFI (cfiCond21) CFA_SP SP+0
          CFI (cfiCond22) CFA_SP SP+0
          CFI (cfiPicker23) CFA_SP SP+0
          CFI EndBlock cfiCond21
          CFI EndBlock cfiCond22
          CFI EndBlock cfiPicker23
// 1727 
// 1728 /*********************************************************************
// 1729  * @fn      ZDApp_SaveNwkKey()
// 1730  *
// 1731  * @brief   Save off the Network key information.
// 1732  *
// 1733  * @param   none
// 1734  *
// 1735  * @return  none
// 1736  */

        RSEG BANKED_CODE:CODE:NOROOT(0)
// 1737 void ZDApp_SaveNwkKey( void )
ZDApp_SaveNwkKey:
          CFI Block cfiBlock24 Using cfiCommon0
          CFI Function ZDApp_SaveNwkKey
        CODE
// 1738 {
        FUNCALL ZDApp_SaveNwkKey, SSP_ReadNwkActiveKey
        LOCFRAME ISTACK, 0, STACK
        LOCFRAME PSTACK, 0, STACK
        LOCFRAME XSTACK, 31, STACK
        LOCFRAME IOVERLAY, 0, STATIC
        LOCFRAME DOVERLAY, 0, STATIC
        ARGFRAME ISTACK, 0, STACK
        ARGFRAME PSTACK, 0, STACK
        ARGFRAME XSTACK, 31, STACK
        ARGFRAME IOVERLAY, 0, STATIC
        ARGFRAME DOVERLAY, 0, STATIC
        FUNCALL ZDApp_SaveNwkKey, osal_nv_write
        LOCFRAME ISTACK, 0, STACK
        LOCFRAME PSTACK, 0, STACK
        LOCFRAME XSTACK, 35, STACK
        LOCFRAME IOVERLAY, 0, STATIC
        LOCFRAME DOVERLAY, 0, STATIC
        ARGFRAME ISTACK, 0, STACK
        ARGFRAME PSTACK, 0, STACK
        ARGFRAME XSTACK, 35, STACK
        ARGFRAME IOVERLAY, 0, STATIC
        ARGFRAME DOVERLAY, 0, STATIC
        FUNCALL ZDApp_SaveNwkKey, osal_memset
        LOCFRAME ISTACK, 0, STACK
        LOCFRAME PSTACK, 0, STACK
        LOCFRAME XSTACK, 31, STACK
        LOCFRAME IOVERLAY, 0, STATIC
        LOCFRAME DOVERLAY, 0, STATIC
        ARGFRAME ISTACK, 0, STACK
        ARGFRAME PSTACK, 0, STACK
        ARGFRAME XSTACK, 31, STACK
        ARGFRAME IOVERLAY, 0, STATIC
        ARGFRAME DOVERLAY, 0, STATIC
        REQUIRE ?V0
        REQUIRE ?V1
        MOV     A,#-0xa
        LCALL   ?BANKED_ENTER_XDATA
          CFI DPH0 load(1, XDATA, add(CFA_XSP16, literal(-1)))
          CFI DPL0 load(1, XDATA, add(CFA_XSP16, literal(-2)))
          CFI ?BRET_EXT load(1, XDATA, add(CFA_XSP16, literal(-3)))
          CFI ?RET_HIGH load(1, XDATA, add(CFA_XSP16, literal(-4)))
          CFI ?RET_LOW load(1, XDATA, add(CFA_XSP16, literal(-5)))
          CFI R7 load(1, XDATA, add(CFA_XSP16, literal(-6)))
          CFI V1 load(1, XDATA, add(CFA_XSP16, literal(-7)))
          CFI V0 load(1, XDATA, add(CFA_XSP16, literal(-8)))
          CFI VB load(1, XDATA, add(CFA_XSP16, literal(-9)))
          CFI R6 load(1, XDATA, add(CFA_XSP16, literal(-10)))
          CFI CFA_SP SP+0
          CFI CFA_XSP16 add(XSP16, 10)
        ; Saved register size: 10
        ; Auto size: 21
        MOV     A,#-0x15
        LCALL   ?ALLOC_XSTACK8
          CFI CFA_XSP16 add(XSP16, 31)
// 1739   nwkActiveKeyItems keyItems;
// 1740 
// 1741   SSP_ReadNwkActiveKey( &keyItems );
        ; Setup parameters for call to function SSP_ReadNwkActiveKey
        MOV     R2,?XSP + 0
        MOV     R3,?XSP + 1
        LCALL   `??SSP_ReadNwkActiveKey::?relay`; Banked call to: SSP_ReadNwkActiveKey
// 1742 
// 1743   osal_nv_write( ZCD_NV_NWKKEY, 0, sizeof( nwkActiveKeyItems ),
// 1744                 (void *)&keyItems );
        ; Setup parameters for call to function osal_nv_write
        MOV     R0,?XSP + 0
        MOV     R1,?XSP + 1
        MOV     ?V0,R0
        MOV     ?V1,R1
        MOV     R0,#?V0
        LCALL   ?PUSH_XSTACK_I_TWO
          CFI CFA_XSP16 add(XSP16, 33)
        MOV     ?V0,#0x15
        MOV     ?V1,#0x0
        MOV     R0,#?V0
        LCALL   ?PUSH_XSTACK_I_TWO
          CFI CFA_XSP16 add(XSP16, 35)
        MOV     R4,#0x0
        MOV     R5,#0x0
        MOV     R2,#-0x7e
        MOV     R3,#0x0
        LCALL   `??osal_nv_write::?relay`; Banked call to: osal_nv_write
        MOV     A,#0x4
        LCALL   ?DEALLOC_XSTACK8
          CFI CFA_XSP16 add(XSP16, 31)
// 1745 
// 1746   nwkFrameCounterChanges = 0;
        MOV     DPTR,#nwkFrameCounterChanges
        CLR     A
        MOVX    @DPTR,A
        INC     DPTR
        MOVX    @DPTR,A
// 1747 
// 1748   // Clear copy in RAM before return.
// 1749   osal_memset( &keyItems, 0x00, sizeof(keyItems) );
        ; Setup parameters for call to function osal_memset
        MOV     R4,#0x15
        MOV     R5,A
        MOV     R1,A
        MOV     R2,?XSP + 0
        MOV     R3,?XSP + 1
        LCALL   `??osal_memset::?relay`; Banked call to: osal_memset
// 1750 
// 1751 }
          CFI EndBlock cfiBlock24
        REQUIRE ?Subroutine8
        ; // Fall through to label ?Subroutine8

        RSEG BANKED_CODE:CODE:NOROOT(0)
?Subroutine8:
          CFI Block cfiBlock25 Using cfiCommon0
          CFI NoFunction
          CFI CFA_SP SP+0
          CFI CFA_XSP16 add(XSP16, 31)
          CFI VB load(1, XDATA, add(CFA_XSP16, literal(-9)))
          CFI DPL0 load(1, XDATA, add(CFA_XSP16, literal(-2)))
          CFI DPH0 load(1, XDATA, add(CFA_XSP16, literal(-1)))
          CFI R6 load(1, XDATA, add(CFA_XSP16, literal(-10)))
          CFI R7 load(1, XDATA, add(CFA_XSP16, literal(-6)))
          CFI V0 load(1, XDATA, add(CFA_XSP16, literal(-8)))
          CFI V1 load(1, XDATA, add(CFA_XSP16, literal(-7)))
          CFI ?BRET_EXT load(1, XDATA, add(CFA_XSP16, literal(-3)))
          CFI ?RET_HIGH load(1, XDATA, add(CFA_XSP16, literal(-4)))
          CFI ?RET_LOW load(1, XDATA, add(CFA_XSP16, literal(-5)))
        MOV     A,#0x15
        LJMP    ??Subroutine49_0 & 0xFFFF
          CFI EndBlock cfiBlock25
// 1752 
// 1753 /*********************************************************************
// 1754  * @fn      ZDApp_ForceConcentratorChange()
// 1755  *
// 1756  * @brief   Force a network concentrator change by resetting
// 1757  *          zgConcentratorEnable and zgConcentratorDiscoveryTime
// 1758  *          from NV and set nwk event.
// 1759  *
// 1760  * @param   none
// 1761  *
// 1762  * @return  none
// 1763  */

        RSEG BANKED_CODE:CODE:NOROOT(0)
// 1764 void ZDApp_ForceConcentratorChange( void )
ZDApp_ForceConcentratorChange:
          CFI Block cfiBlock26 Using cfiCommon0
          CFI Function ZDApp_ForceConcentratorChange
        CODE
// 1765 {
        FUNCALL ZDApp_ForceConcentratorChange, osal_nv_read
        LOCFRAME ISTACK, 0, STACK
        LOCFRAME PSTACK, 0, STACK
        LOCFRAME XSTACK, 14, STACK
        LOCFRAME IOVERLAY, 0, STATIC
        LOCFRAME DOVERLAY, 0, STATIC
        ARGFRAME ISTACK, 0, STACK
        ARGFRAME PSTACK, 0, STACK
        ARGFRAME XSTACK, 14, STACK
        ARGFRAME IOVERLAY, 0, STATIC
        ARGFRAME DOVERLAY, 0, STATIC
        FUNCALL ZDApp_ForceConcentratorChange, osal_nv_read
        LOCFRAME ISTACK, 0, STACK
        LOCFRAME PSTACK, 0, STACK
        LOCFRAME XSTACK, 14, STACK
        LOCFRAME IOVERLAY, 0, STATIC
        LOCFRAME DOVERLAY, 0, STATIC
        ARGFRAME ISTACK, 0, STACK
        ARGFRAME PSTACK, 0, STACK
        ARGFRAME XSTACK, 14, STACK
        ARGFRAME IOVERLAY, 0, STATIC
        ARGFRAME DOVERLAY, 0, STATIC
        FUNCALL ZDApp_ForceConcentratorChange, osal_start_timerEx
        LOCFRAME ISTACK, 0, STACK
        LOCFRAME PSTACK, 0, STACK
        LOCFRAME XSTACK, 14, STACK
        LOCFRAME IOVERLAY, 0, STATIC
        LOCFRAME DOVERLAY, 0, STATIC
        ARGFRAME ISTACK, 0, STACK
        ARGFRAME PSTACK, 0, STACK
        ARGFRAME XSTACK, 14, STACK
        ARGFRAME IOVERLAY, 0, STATIC
        ARGFRAME DOVERLAY, 0, STATIC
        FUNCALL ZDApp_ForceConcentratorChange, osal_stop_timerEx
        LOCFRAME ISTACK, 0, STACK
        LOCFRAME PSTACK, 0, STACK
        LOCFRAME XSTACK, 10, STACK
        LOCFRAME IOVERLAY, 0, STATIC
        LOCFRAME DOVERLAY, 0, STATIC
        ARGFRAME ISTACK, 0, STACK
        ARGFRAME PSTACK, 0, STACK
        ARGFRAME XSTACK, 10, STACK
        ARGFRAME IOVERLAY, 0, STATIC
        ARGFRAME DOVERLAY, 0, STATIC
        REQUIRE ?V0
        REQUIRE ?V1
        MOV     A,#-0xa
        LCALL   ?BANKED_ENTER_XDATA
          CFI DPH0 load(1, XDATA, add(CFA_XSP16, literal(-1)))
          CFI DPL0 load(1, XDATA, add(CFA_XSP16, literal(-2)))
          CFI ?BRET_EXT load(1, XDATA, add(CFA_XSP16, literal(-3)))
          CFI ?RET_HIGH load(1, XDATA, add(CFA_XSP16, literal(-4)))
          CFI ?RET_LOW load(1, XDATA, add(CFA_XSP16, literal(-5)))
          CFI R7 load(1, XDATA, add(CFA_XSP16, literal(-6)))
          CFI V1 load(1, XDATA, add(CFA_XSP16, literal(-7)))
          CFI V0 load(1, XDATA, add(CFA_XSP16, literal(-8)))
          CFI VB load(1, XDATA, add(CFA_XSP16, literal(-9)))
          CFI R6 load(1, XDATA, add(CFA_XSP16, literal(-10)))
          CFI CFA_SP SP+0
          CFI CFA_XSP16 add(XSP16, 10)
        ; Saved register size: 10
        ; Auto size: 0
// 1766   osal_nv_read( ZCD_NV_CONCENTRATOR_ENABLE, 0, sizeof(zgConcentratorEnable), &zgConcentratorEnable );
        ; Setup parameters for call to function osal_nv_read
        MOV     ?V0,#zgConcentratorEnable & 0xff
        MOV     ?V1,#(zgConcentratorEnable >> 8) & 0xff
        MOV     R0,#?V0
        LCALL   ?PUSH_XSTACK_I_TWO
          CFI CFA_XSP16 add(XSP16, 12)
        MOV     ?V0,#0x1
        MOV     ?V1,#0x0
        MOV     R0,#?V0
        LCALL   ?PUSH_XSTACK_I_TWO
          CFI CFA_XSP16 add(XSP16, 14)
        MOV     R4,#0x0
        MOV     R5,#0x0
        MOV     R2,#0x32
        MOV     R3,#0x0
        LCALL   `??osal_nv_read::?relay`; Banked call to: osal_nv_read
        MOV     A,#0x4
        LCALL   ?DEALLOC_XSTACK8
          CFI CFA_XSP16 add(XSP16, 10)
// 1767   osal_nv_read( ZCD_NV_CONCENTRATOR_DISCOVERY, 0, sizeof(zgConcentratorDiscoveryTime), &zgConcentratorDiscoveryTime );
        ; Setup parameters for call to function osal_nv_read
        MOV     ?V0,#zgConcentratorDiscoveryTime & 0xff
        MOV     ?V1,#(zgConcentratorDiscoveryTime >> 8) & 0xff
        MOV     R0,#?V0
        LCALL   ?PUSH_XSTACK_I_TWO
          CFI CFA_XSP16 add(XSP16, 12)
        MOV     ?V0,#0x1
        MOV     ?V1,#0x0
        MOV     R0,#?V0
        LCALL   ?PUSH_XSTACK_I_TWO
          CFI CFA_XSP16 add(XSP16, 14)
        MOV     R4,#0x0
        MOV     R5,#0x0
        MOV     R2,#0x33
        MOV     R3,#0x0
        LCALL   `??osal_nv_read::?relay`; Banked call to: osal_nv_read
        MOV     A,#0x4
        LCALL   ?DEALLOC_XSTACK8
          CFI CFA_XSP16 add(XSP16, 10)
// 1768 
// 1769   if ( zgConcentratorEnable == TRUE )
        MOV     DPTR,#zgConcentratorEnable
        MOVX    A,@DPTR
        XRL     A,#0x1
        JNZ     ??ZDApp_ForceConcentratorChange_0
// 1770   {
// 1771     // Start next event
// 1772     osal_start_timerEx( NWK_TaskID, NWK_MTO_RTG_REQ_EVT, 100 );
        ; Setup parameters for call to function osal_start_timerEx
        MOV     DPTR,#__Constant_64
        LCALL   ?PUSH_XSTACK8_X_FOUR
          CFI CFA_XSP16 add(XSP16, 14)
        MOV     R2,#0x0
        MOV     R3,#0x8
        MOV     DPTR,#NWK_TaskID
        MOVX    A,@DPTR
        MOV     R1,A
        LCALL   `??osal_start_timerEx::?relay`; Banked call to: osal_start_timerEx
        MOV     A,#0x4
        LCALL   ?DEALLOC_XSTACK8
          CFI CFA_XSP16 add(XSP16, 10)
        SJMP    ??ZDApp_ForceConcentratorChange_1
// 1773   }
// 1774   else
// 1775   {
// 1776     // Stop the next event
// 1777     osal_stop_timerEx( NWK_TaskID, NWK_MTO_RTG_REQ_EVT );
??ZDApp_ForceConcentratorChange_0:
        ; Setup parameters for call to function osal_stop_timerEx
        MOV     R2,#0x0
        MOV     R3,#0x8
        MOV     DPTR,#NWK_TaskID
        MOVX    A,@DPTR
        MOV     R1,A
        LCALL   `??osal_stop_timerEx::?relay`; Banked call to: osal_stop_timerEx
// 1778   }
// 1779 }
??ZDApp_ForceConcentratorChange_1:
        LJMP    ??Subroutine50_0 & 0xFFFF
          CFI EndBlock cfiBlock26
// 1780 
// 1781 /*********************************************************************
// 1782  * @fn      ZDApp_ResetNwkKey()
// 1783  *
// 1784  * @brief   Reset the Network key information in NV.
// 1785  *
// 1786  * @param   none
// 1787  *
// 1788  * @return  none
// 1789  */

        RSEG BANKED_CODE:CODE:NOROOT(0)
// 1790 void ZDApp_ResetNwkKey( void )
ZDApp_ResetNwkKey:
          CFI Block cfiBlock27 Using cfiCommon0
          CFI Function ZDApp_ResetNwkKey
        CODE
// 1791 {
        FUNCALL ZDApp_ResetNwkKey, osal_memset
        LOCFRAME ISTACK, 0, STACK
        LOCFRAME PSTACK, 0, STACK
        LOCFRAME XSTACK, 31, STACK
        LOCFRAME IOVERLAY, 0, STATIC
        LOCFRAME DOVERLAY, 0, STATIC
        ARGFRAME ISTACK, 0, STACK
        ARGFRAME PSTACK, 0, STACK
        ARGFRAME XSTACK, 31, STACK
        ARGFRAME IOVERLAY, 0, STATIC
        ARGFRAME DOVERLAY, 0, STATIC
        FUNCALL ZDApp_ResetNwkKey, osal_nv_write
        LOCFRAME ISTACK, 0, STACK
        LOCFRAME PSTACK, 0, STACK
        LOCFRAME XSTACK, 35, STACK
        LOCFRAME IOVERLAY, 0, STATIC
        LOCFRAME DOVERLAY, 0, STATIC
        ARGFRAME ISTACK, 0, STACK
        ARGFRAME PSTACK, 0, STACK
        ARGFRAME XSTACK, 35, STACK
        ARGFRAME IOVERLAY, 0, STATIC
        ARGFRAME DOVERLAY, 0, STATIC
        REQUIRE ?V0
        REQUIRE ?V1
        MOV     A,#-0xa
        LCALL   ?BANKED_ENTER_XDATA
          CFI DPH0 load(1, XDATA, add(CFA_XSP16, literal(-1)))
          CFI DPL0 load(1, XDATA, add(CFA_XSP16, literal(-2)))
          CFI ?BRET_EXT load(1, XDATA, add(CFA_XSP16, literal(-3)))
          CFI ?RET_HIGH load(1, XDATA, add(CFA_XSP16, literal(-4)))
          CFI ?RET_LOW load(1, XDATA, add(CFA_XSP16, literal(-5)))
          CFI R7 load(1, XDATA, add(CFA_XSP16, literal(-6)))
          CFI V1 load(1, XDATA, add(CFA_XSP16, literal(-7)))
          CFI V0 load(1, XDATA, add(CFA_XSP16, literal(-8)))
          CFI VB load(1, XDATA, add(CFA_XSP16, literal(-9)))
          CFI R6 load(1, XDATA, add(CFA_XSP16, literal(-10)))
          CFI CFA_SP SP+0
          CFI CFA_XSP16 add(XSP16, 10)
        ; Saved register size: 10
        ; Auto size: 21
        MOV     A,#-0x15
        LCALL   ?ALLOC_XSTACK8
          CFI CFA_XSP16 add(XSP16, 31)
// 1792   nwkActiveKeyItems keyItems;
// 1793 
// 1794   osal_memset( &keyItems, 0, sizeof( nwkActiveKeyItems ) );
        ; Setup parameters for call to function osal_memset
        MOV     R4,#0x15
        MOV     R5,#0x0
        MOV     R1,#0x0
        MOV     R2,?XSP + 0
        MOV     R3,?XSP + 1
        LCALL   `??osal_memset::?relay`; Banked call to: osal_memset
// 1795   osal_nv_write( ZCD_NV_NWKKEY, 0, sizeof( nwkActiveKeyItems ),
// 1796                 (void *)&keyItems );
        ; Setup parameters for call to function osal_nv_write
        MOV     R0,?XSP + 0
        MOV     R1,?XSP + 1
        MOV     ?V0,R0
        MOV     ?V1,R1
        MOV     R0,#?V0
        LCALL   ?PUSH_XSTACK_I_TWO
          CFI CFA_XSP16 add(XSP16, 33)
        MOV     ?V0,#0x15
        MOV     ?V1,#0x0
        MOV     R0,#?V0
        LCALL   ?PUSH_XSTACK_I_TWO
          CFI CFA_XSP16 add(XSP16, 35)
        MOV     R4,#0x0
        MOV     R5,#0x0
        MOV     R2,#-0x7e
        MOV     R3,#0x0
        LCALL   `??osal_nv_write::?relay`; Banked call to: osal_nv_write
        MOV     A,#0x4
        LCALL   ?DEALLOC_XSTACK8
          CFI CFA_XSP16 add(XSP16, 31)
// 1797 }
        LJMP    ?Subroutine8 & 0xFFFF
          CFI EndBlock cfiBlock27
// 1798 
// 1799 /*********************************************************************
// 1800  * @fn      ZDApp_RestoreNwkKey(uint8 incrFrmCnt)
// 1801  *
// 1802  * @brief
// 1803  *
// 1804  *   Save off the Network key information.
// 1805  *
// 1806  * @param   incrFrmCnt - set to true if we want to increment the network
// 1807             frame counter, else set to false
// 1808  *
// 1809  * @return  true if restored from NV, false if not
// 1810  */

        RSEG BANKED_CODE:CODE:NOROOT(0)
// 1811 uint8 ZDApp_RestoreNwkKey( uint8 incrFrmCnt )
ZDApp_RestoreNwkKey:
          CFI Block cfiBlock28 Using cfiCommon0
          CFI Function ZDApp_RestoreNwkKey
        CODE
// 1812 {
        FUNCALL ZDApp_RestoreNwkKey, osal_nv_read
        LOCFRAME ISTACK, 0, STACK
        LOCFRAME PSTACK, 0, STACK
        LOCFRAME XSTACK, 53, STACK
        LOCFRAME IOVERLAY, 0, STATIC
        LOCFRAME DOVERLAY, 0, STATIC
        ARGFRAME ISTACK, 0, STACK
        ARGFRAME PSTACK, 0, STACK
        ARGFRAME XSTACK, 53, STACK
        ARGFRAME IOVERLAY, 0, STATIC
        ARGFRAME DOVERLAY, 0, STATIC
        FUNCALL ZDApp_RestoreNwkKey, osal_memset
        LOCFRAME ISTACK, 0, STACK
        LOCFRAME PSTACK, 0, STACK
        LOCFRAME XSTACK, 49, STACK
        LOCFRAME IOVERLAY, 0, STATIC
        LOCFRAME DOVERLAY, 0, STATIC
        ARGFRAME ISTACK, 0, STACK
        ARGFRAME PSTACK, 0, STACK
        ARGFRAME XSTACK, 49, STACK
        ARGFRAME IOVERLAY, 0, STATIC
        ARGFRAME DOVERLAY, 0, STATIC
        FUNCALL ZDApp_RestoreNwkKey, osal_memcmp
        LOCFRAME ISTACK, 0, STACK
        LOCFRAME PSTACK, 0, STACK
        LOCFRAME XSTACK, 52, STACK
        LOCFRAME IOVERLAY, 0, STATIC
        LOCFRAME DOVERLAY, 0, STATIC
        ARGFRAME ISTACK, 0, STACK
        ARGFRAME PSTACK, 0, STACK
        ARGFRAME XSTACK, 52, STACK
        ARGFRAME IOVERLAY, 0, STATIC
        ARGFRAME DOVERLAY, 0, STATIC
        FUNCALL ZDApp_RestoreNwkKey, osal_nv_write
        LOCFRAME ISTACK, 0, STACK
        LOCFRAME PSTACK, 0, STACK
        LOCFRAME XSTACK, 53, STACK
        LOCFRAME IOVERLAY, 0, STATIC
        LOCFRAME DOVERLAY, 0, STATIC
        ARGFRAME ISTACK, 0, STACK
        ARGFRAME PSTACK, 0, STACK
        ARGFRAME XSTACK, 53, STACK
        ARGFRAME IOVERLAY, 0, STATIC
        ARGFRAME DOVERLAY, 0, STATIC
        FUNCALL ZDApp_RestoreNwkKey, osal_memset
        LOCFRAME ISTACK, 0, STACK
        LOCFRAME PSTACK, 0, STACK
        LOCFRAME XSTACK, 49, STACK
        LOCFRAME IOVERLAY, 0, STATIC
        LOCFRAME DOVERLAY, 0, STATIC
        ARGFRAME ISTACK, 0, STACK
        ARGFRAME PSTACK, 0, STACK
        ARGFRAME XSTACK, 49, STACK
        ARGFRAME IOVERLAY, 0, STATIC
        ARGFRAME DOVERLAY, 0, STATIC
        REQUIRE ?V0
        REQUIRE ?V1
        REQUIRE ?V2
        REQUIRE ?V3
        MOV     A,#-0xc
        LCALL   ?BANKED_ENTER_XDATA
          CFI DPH0 load(1, XDATA, add(CFA_XSP16, literal(-1)))
          CFI DPL0 load(1, XDATA, add(CFA_XSP16, literal(-2)))
          CFI ?BRET_EXT load(1, XDATA, add(CFA_XSP16, literal(-3)))
          CFI ?RET_HIGH load(1, XDATA, add(CFA_XSP16, literal(-4)))
          CFI ?RET_LOW load(1, XDATA, add(CFA_XSP16, literal(-5)))
          CFI R7 load(1, XDATA, add(CFA_XSP16, literal(-6)))
          CFI V3 load(1, XDATA, add(CFA_XSP16, literal(-7)))
          CFI V2 load(1, XDATA, add(CFA_XSP16, literal(-8)))
          CFI V1 load(1, XDATA, add(CFA_XSP16, literal(-9)))
          CFI V0 load(1, XDATA, add(CFA_XSP16, literal(-10)))
          CFI VB load(1, XDATA, add(CFA_XSP16, literal(-11)))
          CFI R6 load(1, XDATA, add(CFA_XSP16, literal(-12)))
          CFI CFA_SP SP+0
          CFI CFA_XSP16 add(XSP16, 12)
        ; Saved register size: 12
        ; Auto size: 37
        MOV     A,#-0x25
        LCALL   ?ALLOC_XSTACK8
          CFI CFA_XSP16 add(XSP16, 49)
        MOV     A,R1
        MOV     R6,A
// 1813   nwkActiveKeyItems keyItems;
// 1814   uint8 ret = FALSE;
        MOV     R7,#0x0
// 1815 
// 1816   // Restore the key information
// 1817   if ( osal_nv_read( ZCD_NV_NWKKEY, 0, sizeof(nwkActiveKeyItems), (void*)&keyItems )
// 1818       == ZSUCCESS )
        ; Setup parameters for call to function osal_nv_read
        MOV     R0,?XSP + 0
        MOV     R1,?XSP + 1
        MOV     ?V0,R0
        MOV     ?V1,R1
        MOV     R0,#?V0
        LCALL   ?PUSH_XSTACK_I_TWO
          CFI CFA_XSP16 add(XSP16, 51)
        MOV     ?V0,#0x15
        MOV     ?V1,R7
        MOV     R0,#?V0
        LCALL   ?PUSH_XSTACK_I_TWO
          CFI CFA_XSP16 add(XSP16, 53)
        MOV     R4,#0x0
        MOV     R5,#0x0
        MOV     R2,#-0x7e
        MOV     R3,#0x0
        LCALL   `??osal_nv_read::?relay`; Banked call to: osal_nv_read
        MOV     A,#0x4
        LCALL   ?DEALLOC_XSTACK8
          CFI CFA_XSP16 add(XSP16, 49)
        MOV     A,R1
        JZ      $+5
        LJMP    ??ZDApp_RestoreNwkKey_0 & 0xFFFF
// 1819   {
// 1820     uint8 nullKey[SEC_KEY_LEN];
// 1821 
// 1822     // initialize default value to compare to
// 1823     osal_memset( nullKey, 0x00, SEC_KEY_LEN );
        ; Setup parameters for call to function osal_memset
        MOV     R4,#0x10
        MOV     R5,#0x0
        MOV     R1,#0x0
        MOV     A,#0x15
        LCALL   ?XSTACK_DISP101_8
        LCALL   `??osal_memset::?relay`; Banked call to: osal_memset
// 1824 
// 1825     // if stored key is different than default value, then a key has been established
// 1826     if ( !osal_memcmp( keyItems.active.key, nullKey, SEC_KEY_LEN ) )
        ; Setup parameters for call to function osal_memcmp
        MOV     A,#0x15
        LCALL   ?XSTACK_DISP100_8
        MOV     ?V0,R0
        MOV     ?V1,R1
        MOV     ?V2,R7
        MOV     R0,#?V0
        LCALL   ?PUSH_XSTACK_I_THREE
          CFI CFA_XSP16 add(XSP16, 52)
        MOV     R4,#0x10
        MOV     R5,#0x0
        MOV     A,#0x4
        LCALL   ?XSTACK_DISP0_8
        MOV     R1,DPL
        MOV     R2,DPH
        MOV     R3,#0x0
        LCALL   `??osal_memcmp::?relay`; Banked call to: osal_memcmp
        MOV     A,#0x3
        LCALL   ?DEALLOC_XSTACK8
          CFI CFA_XSP16 add(XSP16, 49)
        MOV     A,R1
        JNZ     ??ZDApp_RestoreNwkKey_0
// 1827     {
// 1828       if ( incrFrmCnt )
        MOV     A,R6
        JZ      ??ZDApp_RestoreNwkKey_1
// 1829       {
// 1830         // Increment the frame counter stored in NV
// 1831         keyItems.frameCounter += ( MAX_NWK_FRAMECOUNTER_CHANGES +
// 1832                                   NWK_FRAMECOUNTER_CHANGES_RESTORE_DELTA );
        MOV     DPTR,#__Constant_4e2
        MOV     R0,#?V0
        LCALL   ?L_MOV_X
        MOV     A,#0x11
        LCALL   ?XSTACK_DISP0_8
        MOV     R0,#?V0
        LCALL   ?L_ADD_TO_X
// 1833 
// 1834         nwkFrameCounter = keyItems.frameCounter;
        MOV     A,#0x11
        LCALL   ?XSTACK_DISP0_8
        LCALL   ?XLOAD_R0123
        MOV     DPTR,#nwkFrameCounter
        LCALL   ?XSTORE_R0123
// 1835 
// 1836         // Save the updated Frame Counter right away
// 1837         osal_nv_write( ZCD_NV_NWKKEY, 0, sizeof( nwkActiveKeyItems ),
// 1838                       (void *)&keyItems );
        ; Setup parameters for call to function osal_nv_write
        MOV     R0,?XSP + 0
        MOV     R1,?XSP + 1
        MOV     ?V0,R0
        MOV     ?V1,R1
        MOV     R0,#?V0
        LCALL   ?PUSH_XSTACK_I_TWO
          CFI CFA_XSP16 add(XSP16, 51)
        MOV     ?V0,#0x15
        MOV     ?V1,R7
        MOV     R0,#?V0
        LCALL   ?PUSH_XSTACK_I_TWO
          CFI CFA_XSP16 add(XSP16, 53)
        MOV     R4,#0x0
        MOV     R5,#0x0
        MOV     R2,#-0x7e
        MOV     R3,#0x0
        LCALL   `??osal_nv_write::?relay`; Banked call to: osal_nv_write
        MOV     A,#0x4
        LCALL   ?DEALLOC_XSTACK8
          CFI CFA_XSP16 add(XSP16, 49)
// 1839 
// 1840         nwkFrameCounterChanges = 0;
        MOV     DPTR,#nwkFrameCounterChanges
        CLR     A
        MOVX    @DPTR,A
        INC     DPTR
        MOVX    @DPTR,A
// 1841       }
// 1842 
// 1843       ret = TRUE;
??ZDApp_RestoreNwkKey_1:
        MOV     R7,#0x1
// 1844 
// 1845       // Clear copy in RAM before return.
// 1846       osal_memset( &keyItems, 0x00, sizeof(keyItems) );
        ; Setup parameters for call to function osal_memset
        MOV     R4,#0x15
        MOV     R5,#0x0
        MOV     R1,#0x0
        MOV     R2,?XSP + 0
        MOV     R3,?XSP + 1
        LCALL   `??osal_memset::?relay`; Banked call to: osal_memset
// 1847     }
// 1848   }
// 1849 
// 1850   return ( ret );
??ZDApp_RestoreNwkKey_0:
        MOV     A,R7
        MOV     R1,A
        MOV     A,#0x25
        LJMP    ??Subroutine53_0 & 0xFFFF
// 1851 }
          CFI EndBlock cfiBlock28
// 1852 
// 1853 /*********************************************************************
// 1854  * @fn      ZDApp_ResetTimerStart
// 1855  *
// 1856  * @brief   Start the reset timer.
// 1857  *
// 1858  * @param   delay - delay time(ms) before reset
// 1859  *
// 1860  * @return  none
// 1861  */

        RSEG BANKED_CODE:CODE:NOROOT(0)
// 1862 void ZDApp_ResetTimerStart( uint16 delay )
ZDApp_ResetTimerStart:
          CFI Block cfiBlock29 Using cfiCommon0
          CFI Function ZDApp_ResetTimerStart
        CODE
// 1863 {
        FUNCALL ZDApp_ResetTimerStart, osal_get_timeoutEx
        LOCFRAME ISTACK, 0, STACK
        LOCFRAME PSTACK, 0, STACK
        LOCFRAME XSTACK, 12, STACK
        LOCFRAME IOVERLAY, 0, STATIC
        LOCFRAME DOVERLAY, 0, STATIC
        ARGFRAME ISTACK, 0, STACK
        ARGFRAME PSTACK, 0, STACK
        ARGFRAME XSTACK, 12, STACK
        ARGFRAME IOVERLAY, 0, STATIC
        ARGFRAME DOVERLAY, 0, STATIC
        FUNCALL ZDApp_ResetTimerStart, osal_start_timerEx
        LOCFRAME ISTACK, 0, STACK
        LOCFRAME PSTACK, 0, STACK
        LOCFRAME XSTACK, 16, STACK
        LOCFRAME IOVERLAY, 0, STATIC
        LOCFRAME DOVERLAY, 0, STATIC
        ARGFRAME ISTACK, 0, STACK
        ARGFRAME PSTACK, 0, STACK
        ARGFRAME XSTACK, 16, STACK
        ARGFRAME IOVERLAY, 0, STATIC
        ARGFRAME DOVERLAY, 0, STATIC
        REQUIRE ?V0
        REQUIRE ?V1
        REQUIRE ?V2
        REQUIRE ?V3
        MOV     A,#-0xc
        LCALL   ?BANKED_ENTER_XDATA
          CFI DPH0 load(1, XDATA, add(CFA_XSP16, literal(-1)))
          CFI DPL0 load(1, XDATA, add(CFA_XSP16, literal(-2)))
          CFI ?BRET_EXT load(1, XDATA, add(CFA_XSP16, literal(-3)))
          CFI ?RET_HIGH load(1, XDATA, add(CFA_XSP16, literal(-4)))
          CFI ?RET_LOW load(1, XDATA, add(CFA_XSP16, literal(-5)))
          CFI R7 load(1, XDATA, add(CFA_XSP16, literal(-6)))
          CFI V3 load(1, XDATA, add(CFA_XSP16, literal(-7)))
          CFI V2 load(1, XDATA, add(CFA_XSP16, literal(-8)))
          CFI V1 load(1, XDATA, add(CFA_XSP16, literal(-9)))
          CFI V0 load(1, XDATA, add(CFA_XSP16, literal(-10)))
          CFI VB load(1, XDATA, add(CFA_XSP16, literal(-11)))
          CFI R6 load(1, XDATA, add(CFA_XSP16, literal(-12)))
          CFI CFA_SP SP+0
          CFI CFA_XSP16 add(XSP16, 12)
        ; Saved register size: 12
        ; Auto size: 0
        MOV     ?V0,R2
        MOV     ?V1,R3
// 1864   if ( !osal_get_timeoutEx( ZDAppTaskID, ZDO_DEVICE_RESET ) )
        ; Setup parameters for call to function osal_get_timeoutEx
        MOV     R2,#0x4
        MOV     R3,#0x0
        MOV     DPTR,#ZDAppTaskID
        MOVX    A,@DPTR
        MOV     R1,A
        LCALL   `??osal_get_timeoutEx::?relay`; Banked call to: osal_get_timeoutEx
        MOV     A,R2
        ORL     A,R3
        ORL     A,R4
        ORL     A,R5
        JNZ     ??ZDApp_ResetTimerStart_0
// 1865   {
// 1866     // Start the rest timer
// 1867     osal_start_timerEx( ZDAppTaskID, ZDO_DEVICE_RESET, delay );
        ; Setup parameters for call to function osal_start_timerEx
        CLR     A
        MOV     ?V2,A
        MOV     ?V3,A
        MOV     R0,#?V0
        LCALL   ?PUSH_XSTACK_I_FOUR
          CFI CFA_XSP16 add(XSP16, 16)
        MOV     R2,#0x4
        MOV     R3,#0x0
        MOV     DPTR,#ZDAppTaskID
        MOVX    A,@DPTR
        MOV     R1,A
        LCALL   `??osal_start_timerEx::?relay`; Banked call to: osal_start_timerEx
        MOV     A,#0x4
        LCALL   ?DEALLOC_XSTACK8
          CFI CFA_XSP16 add(XSP16, 12)
// 1868   }
// 1869 }
??ZDApp_ResetTimerStart_0:
        LJMP    ??Subroutine54_0 & 0xFFFF
          CFI EndBlock cfiBlock29
// 1870 
// 1871 /*********************************************************************
// 1872  * @fn      ZDApp_ResetTimerCancel
// 1873  *
// 1874  * @brief   Cancel the reset timer.
// 1875  *
// 1876  * @param   none
// 1877  *
// 1878  * @return  none
// 1879  */

        RSEG BANKED_CODE:CODE:NOROOT(0)
// 1880 void ZDApp_ResetTimerCancel( void )
ZDApp_ResetTimerCancel:
          CFI Block cfiBlock30 Using cfiCommon0
          CFI Function ZDApp_ResetTimerCancel
        CODE
// 1881 {
        FUNCALL ZDApp_ResetTimerCancel, osal_stop_timerEx
        LOCFRAME ISTACK, 2, STACK
        LOCFRAME PSTACK, 0, STACK
        LOCFRAME XSTACK, 0, STACK
        LOCFRAME IOVERLAY, 0, STATIC
        LOCFRAME DOVERLAY, 0, STATIC
        ARGFRAME ISTACK, 2, STACK
        ARGFRAME PSTACK, 0, STACK
        ARGFRAME XSTACK, 0, STACK
        ARGFRAME IOVERLAY, 0, STATIC
        ARGFRAME DOVERLAY, 0, STATIC
        FUNCALL ZDApp_ResetTimerCancel, osal_clear_event
        LOCFRAME ISTACK, 2, STACK
        LOCFRAME PSTACK, 0, STACK
        LOCFRAME XSTACK, 0, STACK
        LOCFRAME IOVERLAY, 0, STATIC
        LOCFRAME DOVERLAY, 0, STATIC
        ARGFRAME ISTACK, 2, STACK
        ARGFRAME PSTACK, 0, STACK
        ARGFRAME XSTACK, 0, STACK
        ARGFRAME IOVERLAY, 0, STATIC
        ARGFRAME DOVERLAY, 0, STATIC
        PUSH    DPL
          CFI DPL0 Frame(CFA_SP, 4)
          CFI CFA_SP SP+-4
        PUSH    DPH
          CFI DPH0 Frame(CFA_SP, 5)
          CFI CFA_SP SP+-5
        ; Saved register size: 2
        ; Auto size: 0
// 1882   (void)osal_stop_timerEx(ZDAppTaskID, ZDO_DEVICE_RESET);
        ; Setup parameters for call to function osal_stop_timerEx
        MOV     R2,#0x4
        MOV     R3,#0x0
        MOV     DPTR,#ZDAppTaskID
        MOVX    A,@DPTR
        MOV     R1,A
        LCALL   `??osal_stop_timerEx::?relay`; Banked call to: osal_stop_timerEx
// 1883   (void)osal_clear_event(ZDAppTaskID, ZDO_DEVICE_RESET);
        ; Setup parameters for call to function osal_clear_event
        MOV     R2,#0x4
        MOV     R3,#0x0
        MOV     DPTR,#ZDAppTaskID
        MOVX    A,@DPTR
        MOV     R1,A
        LCALL   `??osal_clear_event::?relay`; Banked call to: osal_clear_event
// 1884 }
        LJMP    ??Subroutine40_0 & 0xFFFF
          CFI EndBlock cfiBlock30
// 1885 
// 1886 /*********************************************************************
// 1887  * @fn      ZDApp_LeaveCtrlInit
// 1888  *
// 1889  * @brief   Initialize the leave control logic.
// 1890  *
// 1891  * @param   none
// 1892  *
// 1893  * @return  none
// 1894  */

        RSEG BANKED_CODE:CODE:NOROOT(0)
// 1895 void ZDApp_LeaveCtrlInit( void )
ZDApp_LeaveCtrlInit:
          CFI Block cfiBlock31 Using cfiCommon0
          CFI Function ZDApp_LeaveCtrlInit
        CODE
// 1896 {
        FUNCALL ZDApp_LeaveCtrlInit, osal_nv_item_init
        LOCFRAME ISTACK, 0, STACK
        LOCFRAME PSTACK, 0, STACK
        LOCFRAME XSTACK, 12, STACK
        LOCFRAME IOVERLAY, 0, STATIC
        LOCFRAME DOVERLAY, 0, STATIC
        ARGFRAME ISTACK, 0, STACK
        ARGFRAME PSTACK, 0, STACK
        ARGFRAME XSTACK, 12, STACK
        ARGFRAME IOVERLAY, 0, STATIC
        ARGFRAME DOVERLAY, 0, STATIC
        FUNCALL ZDApp_LeaveCtrlInit, osal_nv_read
        LOCFRAME ISTACK, 0, STACK
        LOCFRAME PSTACK, 0, STACK
        LOCFRAME XSTACK, 14, STACK
        LOCFRAME IOVERLAY, 0, STATIC
        LOCFRAME DOVERLAY, 0, STATIC
        ARGFRAME ISTACK, 0, STACK
        ARGFRAME PSTACK, 0, STACK
        ARGFRAME XSTACK, 14, STACK
        ARGFRAME IOVERLAY, 0, STATIC
        ARGFRAME DOVERLAY, 0, STATIC
        REQUIRE ?V0
        REQUIRE ?V1
        MOV     A,#-0xa
        LCALL   ?BANKED_ENTER_XDATA
          CFI DPH0 load(1, XDATA, add(CFA_XSP16, literal(-1)))
          CFI DPL0 load(1, XDATA, add(CFA_XSP16, literal(-2)))
          CFI ?BRET_EXT load(1, XDATA, add(CFA_XSP16, literal(-3)))
          CFI ?RET_HIGH load(1, XDATA, add(CFA_XSP16, literal(-4)))
          CFI ?RET_LOW load(1, XDATA, add(CFA_XSP16, literal(-5)))
          CFI R7 load(1, XDATA, add(CFA_XSP16, literal(-6)))
          CFI V1 load(1, XDATA, add(CFA_XSP16, literal(-7)))
          CFI V0 load(1, XDATA, add(CFA_XSP16, literal(-8)))
          CFI VB load(1, XDATA, add(CFA_XSP16, literal(-9)))
          CFI R6 load(1, XDATA, add(CFA_XSP16, literal(-10)))
          CFI CFA_SP SP+0
          CFI CFA_XSP16 add(XSP16, 10)
        ; Saved register size: 10
        ; Auto size: 0
// 1897   uint8 status;
// 1898 
// 1899 
// 1900   // Initialize control state
// 1901   ZDApp_LeaveCtrl = ZDAPP_LEAVE_CTRL_INIT;
        MOV     DPTR,#ZDApp_LeaveCtrl
        CLR     A
        MOVX    @DPTR,A
// 1902 
// 1903   status = osal_nv_item_init( ZCD_NV_LEAVE_CTRL,
// 1904                               sizeof(ZDApp_LeaveCtrl),
// 1905                               &ZDApp_LeaveCtrl );
// 1906 
// 1907   if ( status == ZSUCCESS )
        ; Setup parameters for call to function osal_nv_item_init
        MOV     ?V0,#ZDApp_LeaveCtrl & 0xff
        MOV     ?V1,#(ZDApp_LeaveCtrl >> 8) & 0xff
        MOV     R0,#?V0
        LCALL   ?PUSH_XSTACK_I_TWO
          CFI CFA_XSP16 add(XSP16, 12)
        MOV     R4,#0x1
        MOV     R5,#0x0
        MOV     R2,#-0x7b
        MOV     R3,#0x0
        LCALL   `??osal_nv_item_init::?relay`; Banked call to: osal_nv_item_init
        MOV     A,#0x2
        LCALL   ?DEALLOC_XSTACK8
          CFI CFA_XSP16 add(XSP16, 10)
        MOV     A,R1
        JNZ     ??ZDApp_LeaveCtrlInit_0
// 1908   {
// 1909     // Read saved control
// 1910     osal_nv_read( ZCD_NV_LEAVE_CTRL,
// 1911                   0,
// 1912                   sizeof( uint8 ),
// 1913                   &ZDApp_LeaveCtrl);
        ; Setup parameters for call to function osal_nv_read
        MOV     R0,#?V0
        LCALL   ?PUSH_XSTACK_I_TWO
          CFI CFA_XSP16 add(XSP16, 12)
        MOV     ?V0,#0x1
        MOV     ?V1,#0x0
        MOV     R0,#?V0
        LCALL   ?PUSH_XSTACK_I_TWO
          CFI CFA_XSP16 add(XSP16, 14)
        MOV     R4,#0x0
        MOV     R5,#0x0
        MOV     R2,#-0x7b
        MOV     R3,#0x0
        LCALL   `??osal_nv_read::?relay`; Banked call to: osal_nv_read
        MOV     A,#0x4
        LCALL   ?DEALLOC_XSTACK8
          CFI CFA_XSP16 add(XSP16, 10)
// 1914   }
// 1915 }
??ZDApp_LeaveCtrlInit_0:
        LJMP    ??Subroutine50_0 & 0xFFFF
          CFI EndBlock cfiBlock31
// 1916 
// 1917 /*********************************************************************
// 1918  * @fn      ZDApp_LeaveCtrlSet
// 1919  *
// 1920  * @brief   Set the leave control logic.
// 1921  *
// 1922  * @param   ra - reassociate flag
// 1923  *
// 1924  * @return  none
// 1925  */

        RSEG BANKED_CODE:CODE:NOROOT(0)
// 1926 void ZDApp_LeaveCtrlSet( uint8 ra )
ZDApp_LeaveCtrlSet:
          CFI Block cfiBlock32 Using cfiCommon0
          CFI Function ZDApp_LeaveCtrlSet
        CODE
// 1927 {
        FUNCALL ZDApp_LeaveCtrlSet, osal_nv_write
        LOCFRAME ISTACK, 0, STACK
        LOCFRAME PSTACK, 0, STACK
        LOCFRAME XSTACK, 14, STACK
        LOCFRAME IOVERLAY, 0, STATIC
        LOCFRAME DOVERLAY, 0, STATIC
        ARGFRAME ISTACK, 0, STACK
        ARGFRAME PSTACK, 0, STACK
        ARGFRAME XSTACK, 14, STACK
        ARGFRAME IOVERLAY, 0, STATIC
        ARGFRAME DOVERLAY, 0, STATIC
        REQUIRE ?V0
        REQUIRE ?V1
        MOV     A,#-0xa
        LCALL   ?BANKED_ENTER_XDATA
          CFI DPH0 load(1, XDATA, add(CFA_XSP16, literal(-1)))
          CFI DPL0 load(1, XDATA, add(CFA_XSP16, literal(-2)))
          CFI ?BRET_EXT load(1, XDATA, add(CFA_XSP16, literal(-3)))
          CFI ?RET_HIGH load(1, XDATA, add(CFA_XSP16, literal(-4)))
          CFI ?RET_LOW load(1, XDATA, add(CFA_XSP16, literal(-5)))
          CFI R7 load(1, XDATA, add(CFA_XSP16, literal(-6)))
          CFI V1 load(1, XDATA, add(CFA_XSP16, literal(-7)))
          CFI V0 load(1, XDATA, add(CFA_XSP16, literal(-8)))
          CFI VB load(1, XDATA, add(CFA_XSP16, literal(-9)))
          CFI R6 load(1, XDATA, add(CFA_XSP16, literal(-10)))
          CFI CFA_SP SP+0
          CFI CFA_XSP16 add(XSP16, 10)
        ; Saved register size: 10
        ; Auto size: 0
        MOV     A,R1
        MOV     R6,A
// 1928   ZDApp_LeaveCtrl = ZDAPP_LEAVE_CTRL_SET;
        MOV     DPTR,#ZDApp_LeaveCtrl
        MOV     A,#0x1
        MOVX    @DPTR,A
// 1929 
// 1930   if ( ra == TRUE )
        XRL     A,R6
        JNZ     ??ZDApp_LeaveCtrlSet_0
// 1931   {
// 1932     ZDApp_LeaveCtrl |= ZDAPP_LEAVE_CTRL_RA;
        MOV     A,#0x3
        MOVX    @DPTR,A
// 1933   }
// 1934 
// 1935   // Write the leave control
// 1936   osal_nv_write( ZCD_NV_LEAVE_CTRL,
// 1937                  0,
// 1938                  sizeof( uint8 ),
// 1939                  &ZDApp_LeaveCtrl);
??ZDApp_LeaveCtrlSet_0:
        ; Setup parameters for call to function osal_nv_write
        LJMP    ?Subroutine4 & 0xFFFF
// 1940 }
          CFI EndBlock cfiBlock32
// 1941 
// 1942 /*********************************************************************
// 1943  * @fn      ZDApp_LeaveCtrlReset
// 1944  *
// 1945  * @brief   Re-initialize the leave control logic.
// 1946  *
// 1947  * @param   none
// 1948  *
// 1949  * @return  none
// 1950  */

        RSEG BANKED_CODE:CODE:NOROOT(0)
// 1951 void ZDApp_LeaveCtrlReset( void )
ZDApp_LeaveCtrlReset:
          CFI Block cfiBlock33 Using cfiCommon0
          CFI Function ZDApp_LeaveCtrlReset
        CODE
// 1952 {
        FUNCALL ZDApp_LeaveCtrlReset, osal_nv_write
        LOCFRAME ISTACK, 0, STACK
        LOCFRAME PSTACK, 0, STACK
        LOCFRAME XSTACK, 14, STACK
        LOCFRAME IOVERLAY, 0, STATIC
        LOCFRAME DOVERLAY, 0, STATIC
        ARGFRAME ISTACK, 0, STACK
        ARGFRAME PSTACK, 0, STACK
        ARGFRAME XSTACK, 14, STACK
        ARGFRAME IOVERLAY, 0, STATIC
        ARGFRAME DOVERLAY, 0, STATIC
        REQUIRE ?V0
        REQUIRE ?V1
        MOV     A,#-0xa
        LCALL   ?BANKED_ENTER_XDATA
          CFI DPH0 load(1, XDATA, add(CFA_XSP16, literal(-1)))
          CFI DPL0 load(1, XDATA, add(CFA_XSP16, literal(-2)))
          CFI ?BRET_EXT load(1, XDATA, add(CFA_XSP16, literal(-3)))
          CFI ?RET_HIGH load(1, XDATA, add(CFA_XSP16, literal(-4)))
          CFI ?RET_LOW load(1, XDATA, add(CFA_XSP16, literal(-5)))
          CFI R7 load(1, XDATA, add(CFA_XSP16, literal(-6)))
          CFI V1 load(1, XDATA, add(CFA_XSP16, literal(-7)))
          CFI V0 load(1, XDATA, add(CFA_XSP16, literal(-8)))
          CFI VB load(1, XDATA, add(CFA_XSP16, literal(-9)))
          CFI R6 load(1, XDATA, add(CFA_XSP16, literal(-10)))
          CFI CFA_SP SP+0
          CFI CFA_XSP16 add(XSP16, 10)
        ; Saved register size: 10
        ; Auto size: 0
// 1953   // Set leave control to initialized state
// 1954   ZDApp_LeaveCtrl = ZDAPP_LEAVE_CTRL_INIT;
        MOV     DPTR,#ZDApp_LeaveCtrl
        CLR     A
        MOVX    @DPTR,A
// 1955 
// 1956   // Write initialized control
// 1957   osal_nv_write( ZCD_NV_LEAVE_CTRL,
// 1958                 0,
// 1959                 sizeof( uint8 ),
// 1960                 &ZDApp_LeaveCtrl);
        ; Setup parameters for call to function osal_nv_write
        LJMP    ?Subroutine4 & 0xFFFF
// 1961 }
          CFI EndBlock cfiBlock33
// 1962 
// 1963 /*********************************************************************
// 1964  * @fn      ZDApp_LeaveCtrlBypass
// 1965  *
// 1966  * @brief   Check if NV restore should be skipped during a leave reset.
// 1967  *
// 1968  * @param   none
// 1969  *
// 1970  * @return  uint8 - (TRUE bypass:FALSE do not bypass)
// 1971  */

        RSEG BANKED_CODE:CODE:NOROOT(0)
// 1972 uint8 ZDApp_LeaveCtrlBypass( void )
ZDApp_LeaveCtrlBypass:
          CFI Block cfiBlock34 Using cfiCommon0
          CFI Function ZDApp_LeaveCtrlBypass
        CODE
// 1973 {
        PUSH    DPL
          CFI DPL0 Frame(CFA_SP, 4)
          CFI CFA_SP SP+-4
        PUSH    DPH
          CFI DPH0 Frame(CFA_SP, 5)
          CFI CFA_SP SP+-5
        ; Saved register size: 2
        ; Auto size: 0
// 1974   uint8 bypass;
// 1975 
// 1976   if ( ZDApp_LeaveCtrl & ZDAPP_LEAVE_CTRL_SET )
// 1977   {
// 1978     bypass = TRUE;
// 1979   }
// 1980   else
// 1981   {
// 1982     bypass = FALSE;
// 1983   }
// 1984 
// 1985   return bypass;
        MOV     DPTR,#ZDApp_LeaveCtrl
        MOVX    A,@DPTR
        MOV     C,0xE0 /* A   */.0
        CLR     A
        RLC     A
        MOV     R1,A
        SJMP    ??Subroutine40_0
// 1986 }
          CFI EndBlock cfiBlock34
// 1987 
// 1988 /*********************************************************************
// 1989  * @fn      ZDApp_LeaveCtrlStartup
// 1990  *
// 1991  * @brief   Check for startup conditions during a leave reset.
// 1992  *
// 1993  * @param   state      - devState_t determined by leave control logic
// 1994  * @param   startDelay - startup delay
// 1995  *
// 1996  * @return  none
// 1997  */

        RSEG BANKED_CODE:CODE:NOROOT(0)
// 1998 void ZDApp_LeaveCtrlStartup( devStates_t* state, uint16* startDelay )
ZDApp_LeaveCtrlStartup:
          CFI Block cfiBlock35 Using cfiCommon0
          CFI Function ZDApp_LeaveCtrlStartup
        CODE
// 1999 {
        FUNCALL ZDApp_LeaveCtrlStartup, ZDApp_LeaveCtrlReset
        LOCFRAME ISTACK, 2, STACK
        LOCFRAME PSTACK, 0, STACK
        LOCFRAME XSTACK, 0, STACK
        LOCFRAME IOVERLAY, 0, STATIC
        LOCFRAME DOVERLAY, 0, STATIC
        ARGFRAME ISTACK, 2, STACK
        ARGFRAME PSTACK, 0, STACK
        ARGFRAME XSTACK, 0, STACK
        ARGFRAME IOVERLAY, 0, STATIC
        ARGFRAME DOVERLAY, 0, STATIC
        PUSH    DPL
          CFI DPL0 Frame(CFA_SP, 4)
          CFI CFA_SP SP+-4
        PUSH    DPH
          CFI DPH0 Frame(CFA_SP, 5)
          CFI CFA_SP SP+-5
        ; Saved register size: 2
        ; Auto size: 0
// 2000   *startDelay = 0;
        MOV     DPL,R4
        MOV     DPH,R5
        CLR     A
        MOVX    @DPTR,A
        INC     DPTR
        MOVX    @DPTR,A
// 2001 
// 2002   if ( ZDApp_LeaveCtrl & ZDAPP_LEAVE_CTRL_SET )
        MOV     DPTR,#ZDApp_LeaveCtrl
        MOVX    A,@DPTR
        MOV     C,0xE0 /* A   */.0
        JNC     ??ZDApp_LeaveCtrlStartup_0
// 2003   {
// 2004     if ( ZDApp_LeaveCtrl & ZDAPP_LEAVE_CTRL_RA )
        MOV     C,0xE0 /* A   */.1
        JNC     ??ZDApp_LeaveCtrlStartup_1
// 2005     {
// 2006       *startDelay = LEAVE_RESET_DELAY;
        MOV     DPL,R4
        MOV     DPH,R5
        MOV     A,#-0x78
        MOVX    @DPTR,A
        INC     DPTR
        MOV     A,#0x13
        SJMP    ??ZDApp_LeaveCtrlStartup_2
// 2007     }
// 2008     else
// 2009     {
// 2010       *state = DEV_HOLD;
??ZDApp_LeaveCtrlStartup_1:
        MOV     DPL,R2
        MOV     DPH,R3
        CLR     A
??ZDApp_LeaveCtrlStartup_2:
        MOVX    @DPTR,A
// 2011     }
// 2012 
// 2013     // Reset leave control logic
// 2014     ZDApp_LeaveCtrlReset();
        ; Setup parameters for call to function ZDApp_LeaveCtrlReset
        LCALL   `??ZDApp_LeaveCtrlReset::?relay`; Banked call to: ZDApp_LeaveCtrlReset
// 2015   }
// 2016 }
??ZDApp_LeaveCtrlStartup_0:
        SJMP    ??Subroutine40_0
          CFI EndBlock cfiBlock35

        RSEG BANKED_CODE:CODE:NOROOT(0)
?Subroutine3:
          CFI Block cfiBlock36 Using cfiCommon0
          CFI NoFunction
          CFI CFA_SP SP+-5
          CFI CFA_XSP16 add(XSP16, 3)
          CFI DPL0 Frame(CFA_SP, 4)
          CFI DPH0 Frame(CFA_SP, 5)
          CFI Invalid
        LCALL   ?DEALLOC_XSTACK8
          CFI CFA_XSP16 XSP16+0
          CFI Valid
          CFI EndBlock cfiBlock36
        REQUIRE ??Subroutine40_0
        ; // Fall through to label ??Subroutine40_0

        RSEG BANKED_CODE:CODE:NOROOT(0)
??Subroutine40_0:
          CFI Block cfiBlock37 Using cfiCommon0
          CFI NoFunction
          CFI CFA_SP SP+-5
          CFI DPL0 Frame(CFA_SP, 4)
          CFI DPH0 Frame(CFA_SP, 5)
        POP     DPH
          CFI CFA_SP SP+-4
          CFI DPH0 SameValue
        POP     DPL
          CFI CFA_SP SP+-3
          CFI DPL0 SameValue
        LJMP    ?BRET
          CFI EndBlock cfiBlock37
// 2017 
// 2018 /*********************************************************************
// 2019  * @fn      ZDApp_LeaveReset
// 2020  *
// 2021  * @brief   Setup a device reset due to a leave indication/confirm.
// 2022  *
// 2023  * @param   ra - reassociate flag
// 2024  *
// 2025  * @return  none
// 2026  */

        RSEG BANKED_CODE:CODE:NOROOT(0)
// 2027 void ZDApp_LeaveReset( uint8 ra )
ZDApp_LeaveReset:
          CFI Block cfiBlock38 Using cfiCommon0
          CFI Function ZDApp_LeaveReset
        CODE
// 2028 {
        FUNCALL ZDApp_LeaveReset, ZDApp_LeaveCtrlSet
        LOCFRAME ISTACK, 0, STACK
        LOCFRAME PSTACK, 0, STACK
        LOCFRAME XSTACK, 10, STACK
        LOCFRAME IOVERLAY, 0, STATIC
        LOCFRAME DOVERLAY, 0, STATIC
        ARGFRAME ISTACK, 0, STACK
        ARGFRAME PSTACK, 0, STACK
        ARGFRAME XSTACK, 10, STACK
        ARGFRAME IOVERLAY, 0, STATIC
        ARGFRAME DOVERLAY, 0, STATIC
        FUNCALL ZDApp_LeaveReset, APSME_HoldDataRequests
        LOCFRAME ISTACK, 0, STACK
        LOCFRAME PSTACK, 0, STACK
        LOCFRAME XSTACK, 10, STACK
        LOCFRAME IOVERLAY, 0, STATIC
        LOCFRAME DOVERLAY, 0, STATIC
        ARGFRAME ISTACK, 0, STACK
        ARGFRAME PSTACK, 0, STACK
        ARGFRAME XSTACK, 10, STACK
        ARGFRAME IOVERLAY, 0, STATIC
        ARGFRAME DOVERLAY, 0, STATIC
        FUNCALL ZDApp_LeaveReset, NLME_SetPollRate
        LOCFRAME ISTACK, 0, STACK
        LOCFRAME PSTACK, 0, STACK
        LOCFRAME XSTACK, 10, STACK
        LOCFRAME IOVERLAY, 0, STATIC
        LOCFRAME DOVERLAY, 0, STATIC
        ARGFRAME ISTACK, 0, STACK
        ARGFRAME PSTACK, 0, STACK
        ARGFRAME XSTACK, 10, STACK
        ARGFRAME IOVERLAY, 0, STATIC
        ARGFRAME DOVERLAY, 0, STATIC
        FUNCALL ZDApp_LeaveReset, NLME_SetResponseRate
        LOCFRAME ISTACK, 0, STACK
        LOCFRAME PSTACK, 0, STACK
        LOCFRAME XSTACK, 10, STACK
        LOCFRAME IOVERLAY, 0, STATIC
        LOCFRAME DOVERLAY, 0, STATIC
        ARGFRAME ISTACK, 0, STACK
        ARGFRAME PSTACK, 0, STACK
        ARGFRAME XSTACK, 10, STACK
        ARGFRAME IOVERLAY, 0, STATIC
        ARGFRAME DOVERLAY, 0, STATIC
        FUNCALL ZDApp_LeaveReset, NLME_SetQueuedPollRate
        LOCFRAME ISTACK, 0, STACK
        LOCFRAME PSTACK, 0, STACK
        LOCFRAME XSTACK, 10, STACK
        LOCFRAME IOVERLAY, 0, STATIC
        LOCFRAME DOVERLAY, 0, STATIC
        ARGFRAME ISTACK, 0, STACK
        ARGFRAME PSTACK, 0, STACK
        ARGFRAME XSTACK, 10, STACK
        ARGFRAME IOVERLAY, 0, STATIC
        ARGFRAME DOVERLAY, 0, STATIC
        FUNCALL ZDApp_LeaveReset, sAddrExtCpy
        LOCFRAME ISTACK, 0, STACK
        LOCFRAME PSTACK, 0, STACK
        LOCFRAME XSTACK, 10, STACK
        LOCFRAME IOVERLAY, 0, STATIC
        LOCFRAME DOVERLAY, 0, STATIC
        ARGFRAME ISTACK, 0, STACK
        ARGFRAME PSTACK, 0, STACK
        ARGFRAME XSTACK, 10, STACK
        ARGFRAME IOVERLAY, 0, STATIC
        ARGFRAME DOVERLAY, 0, STATIC
        FUNCALL ZDApp_LeaveReset, NLME_NwkDiscTerm
        LOCFRAME ISTACK, 0, STACK
        LOCFRAME PSTACK, 0, STACK
        LOCFRAME XSTACK, 10, STACK
        LOCFRAME IOVERLAY, 0, STATIC
        LOCFRAME DOVERLAY, 0, STATIC
        ARGFRAME ISTACK, 0, STACK
        ARGFRAME PSTACK, 0, STACK
        ARGFRAME XSTACK, 10, STACK
        ARGFRAME IOVERLAY, 0, STATIC
        ARGFRAME DOVERLAY, 0, STATIC
        FUNCALL ZDApp_LeaveReset, osal_rand
        LOCFRAME ISTACK, 0, STACK
        LOCFRAME PSTACK, 0, STACK
        LOCFRAME XSTACK, 10, STACK
        LOCFRAME IOVERLAY, 0, STATIC
        LOCFRAME DOVERLAY, 0, STATIC
        ARGFRAME ISTACK, 0, STACK
        ARGFRAME PSTACK, 0, STACK
        ARGFRAME XSTACK, 10, STACK
        ARGFRAME IOVERLAY, 0, STATIC
        ARGFRAME DOVERLAY, 0, STATIC
        FUNCALL ZDApp_LeaveReset, ZDApp_NetworkInit
        LOCFRAME ISTACK, 0, STACK
        LOCFRAME PSTACK, 0, STACK
        LOCFRAME XSTACK, 10, STACK
        LOCFRAME IOVERLAY, 0, STATIC
        LOCFRAME DOVERLAY, 0, STATIC
        ARGFRAME ISTACK, 0, STACK
        ARGFRAME PSTACK, 0, STACK
        ARGFRAME XSTACK, 10, STACK
        ARGFRAME IOVERLAY, 0, STATIC
        ARGFRAME DOVERLAY, 0, STATIC
        FUNCALL ZDApp_LeaveReset, ZDApp_ResetTimerStart
        LOCFRAME ISTACK, 0, STACK
        LOCFRAME PSTACK, 0, STACK
        LOCFRAME XSTACK, 10, STACK
        LOCFRAME IOVERLAY, 0, STATIC
        LOCFRAME DOVERLAY, 0, STATIC
        ARGFRAME ISTACK, 0, STACK
        ARGFRAME PSTACK, 0, STACK
        ARGFRAME XSTACK, 10, STACK
        ARGFRAME IOVERLAY, 0, STATIC
        ARGFRAME DOVERLAY, 0, STATIC
        REQUIRE ?V0
        REQUIRE ?V1
        MOV     A,#-0xa
        LCALL   ?BANKED_ENTER_XDATA
          CFI DPH0 load(1, XDATA, add(CFA_XSP16, literal(-1)))
          CFI DPL0 load(1, XDATA, add(CFA_XSP16, literal(-2)))
          CFI ?BRET_EXT load(1, XDATA, add(CFA_XSP16, literal(-3)))
          CFI ?RET_HIGH load(1, XDATA, add(CFA_XSP16, literal(-4)))
          CFI ?RET_LOW load(1, XDATA, add(CFA_XSP16, literal(-5)))
          CFI R7 load(1, XDATA, add(CFA_XSP16, literal(-6)))
          CFI V1 load(1, XDATA, add(CFA_XSP16, literal(-7)))
          CFI V0 load(1, XDATA, add(CFA_XSP16, literal(-8)))
          CFI VB load(1, XDATA, add(CFA_XSP16, literal(-9)))
          CFI R6 load(1, XDATA, add(CFA_XSP16, literal(-10)))
          CFI CFA_SP SP+0
          CFI CFA_XSP16 add(XSP16, 10)
        ; Saved register size: 10
        ; Auto size: 0
        MOV     A,R1
        MOV     R6,A
// 2029   ZDApp_LeaveCtrlSet( ra );
        ; Setup parameters for call to function ZDApp_LeaveCtrlSet
        LCALL   `??ZDApp_LeaveCtrlSet::?relay`; Banked call to: ZDApp_LeaveCtrlSet
// 2030 
// 2031   APSME_HoldDataRequests( LEAVE_RESET_DELAY);
        ; Setup parameters for call to function APSME_HoldDataRequests
        MOV     R2,#-0x78
        MOV     R3,#0x13
        LCALL   `??APSME_HoldDataRequests::?relay`; Banked call to: APSME_HoldDataRequests
// 2032 
// 2033   if ( ZSTACK_ROUTER_BUILD )
// 2034   {
// 2035     osal_stop_timerEx( NWK_TaskID, NWK_LINK_STATUS_EVT );
// 2036     osal_clear_event( NWK_TaskID, NWK_LINK_STATUS_EVT );
// 2037   }
// 2038 
// 2039   if (ZG_DEVICE_ENDDEVICE_TYPE)
// 2040   {
// 2041     // Save polling values to be restored after rejoin
// 2042     if ( ra == TRUE )
        MOV     A,#0x1
        XRL     A,R6
        JNZ     ??CrossCallReturnLabel_7
// 2043     {
// 2044       zgPollRate = POLL_RATE;
        MOV     DPTR,#zgPollRate
        LCALL   ?Subroutine11 & 0xFFFF
// 2045       ZDApp_SavedPollRate = zgPollRate;
??CrossCallReturnLabel_2:
        MOV     DPTR,#ZDApp_SavedPollRate
        LCALL   ?Subroutine11 & 0xFFFF
// 2046       zgResponsePollRate = RESPONSE_POLL_RATE;
??CrossCallReturnLabel_3:
        MOV     DPTR,#zgResponsePollRate
        LCALL   ?Subroutine13 & 0xFFFF
// 2047       savedResponseRate = zgResponsePollRate;
??CrossCallReturnLabel_4:
        MOV     DPTR,#savedResponseRate
        LCALL   ?Subroutine13 & 0xFFFF
// 2048       zgQueuedPollRate = QUEUED_POLL_RATE;
??CrossCallReturnLabel_5:
        MOV     DPTR,#zgQueuedPollRate
        LCALL   ?Subroutine13 & 0xFFFF
// 2049       savedQueuedPollRate = zgQueuedPollRate;
??CrossCallReturnLabel_6:
        MOV     DPTR,#savedQueuedPollRate
        LCALL   ?Subroutine13 & 0xFFFF
// 2050     }
// 2051 
// 2052     // Disable polling
// 2053     NLME_SetPollRate(0);
??CrossCallReturnLabel_7:
        ; Setup parameters for call to function NLME_SetPollRate
        MOV     DPTR,#__Constant_0
        LCALL   ?XLOAD_R2345
        LCALL   `??NLME_SetPollRate::?relay`; Banked call to: NLME_SetPollRate
// 2054     NLME_SetResponseRate(0);
        ; Setup parameters for call to function NLME_SetResponseRate
        MOV     R2,#0x0
        MOV     R3,#0x0
        LCALL   `??NLME_SetResponseRate::?relay`; Banked call to: NLME_SetResponseRate
// 2055     NLME_SetQueuedPollRate(0);
        ; Setup parameters for call to function NLME_SetQueuedPollRate
        MOV     R2,#0x0
        MOV     R3,#0x0
        LCALL   `??NLME_SetQueuedPollRate::?relay`; Banked call to: NLME_SetQueuedPollRate
// 2056   }
// 2057 
// 2058   if ( ra == TRUE )
        MOV     A,#0x1
        XRL     A,R6
        JNZ     ??ZDApp_LeaveReset_0
// 2059   {
// 2060     devState = DEV_NWK_DISC;
        MOV     DPTR,#devState
        MOV     A,#0x2
        LCALL   ?Subroutine14 & 0xFFFF
// 2061     devStartMode = MODE_REJOIN;
// 2062     _tmpRejoinState = true;
??CrossCallReturnLabel_9:
        MOV     A,#0x1
        LCALL   ?Subroutine15 & 0xFFFF
// 2063 
// 2064     // For rejoin, specify the extended PANID to look for
// 2065     osal_cpyExtAddr( ZDO_UseExtendedPANID, _NIB.extendedPANID );
??CrossCallReturnLabel_11:
        LCALL   `??sAddrExtCpy::?relay`; Banked call to: sAddrExtCpy
// 2066 
// 2067     _NIB.nwkState = NWK_DISC;
        MOV     DPTR,#_NIB + 35
        MOV     A,#0x2
        MOVX    @DPTR,A
// 2068 
// 2069     zdoDiscCounter = 3;
        MOV     DPTR,#zdoDiscCounter
        INC     A
        MOVX    @DPTR,A
// 2070     NLME_NwkDiscTerm();
        ; Setup parameters for call to function NLME_NwkDiscTerm
        LCALL   `??NLME_NwkDiscTerm::?relay`; Banked call to: NLME_NwkDiscTerm
// 2071 
// 2072     ZDApp_NetworkInit((uint16)(NWK_START_DELAY + ((uint16) (osal_rand() & EXTENDED_JOINING_RANDOM_MASK ))));
        ; Setup parameters for call to function osal_rand
        LCALL   `??osal_rand::?relay`; Banked call to: osal_rand
        ; Setup parameters for call to function ZDApp_NetworkInit
        LCALL   ?Subroutine29 & 0xFFFF
// 2073   }
??CrossCallReturnLabel_35:
        LCALL   `??ZDApp_NetworkInit::?relay`; Banked call to: ZDApp_NetworkInit
        SJMP    ??ZDApp_LeaveReset_1
// 2074   else
// 2075   {
// 2076     ZDApp_ResetTimerStart( LEAVE_RESET_DELAY );
??ZDApp_LeaveReset_0:
        ; Setup parameters for call to function ZDApp_ResetTimerStart
        MOV     R2,#-0x78
        MOV     R3,#0x13
        LCALL   `??ZDApp_ResetTimerStart::?relay`; Banked call to: ZDApp_ResetTimerStart
// 2077   }
// 2078 }
??ZDApp_LeaveReset_1:
        LJMP    ??Subroutine50_0 & 0xFFFF
          CFI EndBlock cfiBlock38

        RSEG BANKED_CODE:CODE:NOROOT(0)
?Subroutine15:
          CFI Block cfiCond39 Using cfiCommon0
          CFI Function ZDApp_ProcessOSALMsg
          CFI Conditional ??CrossCallReturnLabel_10
          CFI R6 load(1, XDATA, add(CFA_XSP16, literal(-12)))
          CFI VB load(1, XDATA, add(CFA_XSP16, literal(-11)))
          CFI V0 load(1, XDATA, add(CFA_XSP16, literal(-10)))
          CFI V1 load(1, XDATA, add(CFA_XSP16, literal(-9)))
          CFI V2 load(1, XDATA, add(CFA_XSP16, literal(-8)))
          CFI V3 load(1, XDATA, add(CFA_XSP16, literal(-7)))
          CFI R7 load(1, XDATA, add(CFA_XSP16, literal(-6)))
          CFI ?RET_LOW load(1, XDATA, add(CFA_XSP16, literal(-5)))
          CFI ?RET_HIGH load(1, XDATA, add(CFA_XSP16, literal(-4)))
          CFI ?BRET_EXT load(1, XDATA, add(CFA_XSP16, literal(-3)))
          CFI DPL0 load(1, XDATA, add(CFA_XSP16, literal(-2)))
          CFI DPH0 load(1, XDATA, add(CFA_XSP16, literal(-1)))
          CFI CFA_SP SP+-2
          CFI CFA_XSP16 add(XSP16, 15)
          CFI Block cfiCond40 Using cfiCommon0
          CFI (cfiCond40) Function ZDApp_LeaveReset
          CFI (cfiCond40) Conditional ??CrossCallReturnLabel_11
          CFI (cfiCond40) R6 load(1, XDATA, add(CFA_XSP16, literal(-10)))
          CFI (cfiCond40) VB load(1, XDATA, add(CFA_XSP16, literal(-9)))
          CFI (cfiCond40) V0 load(1, XDATA, add(CFA_XSP16, literal(-8)))
          CFI (cfiCond40) V1 load(1, XDATA, add(CFA_XSP16, literal(-7)))
          CFI (cfiCond40) R7 load(1, XDATA, add(CFA_XSP16, literal(-6)))
          CFI (cfiCond40) ?RET_LOW load(1, XDATA, add(CFA_XSP16, literal(-5)))
          CFI (cfiCond40) ?RET_HIGH load(1, XDATA, add(CFA_XSP16, literal(-4)))
          CFI (cfiCond40) ?BRET_EXT load(1, XDATA, add(CFA_XSP16, literal(-3)))
          CFI (cfiCond40) DPL0 load(1, XDATA, add(CFA_XSP16, literal(-2)))
          CFI (cfiCond40) DPH0 load(1, XDATA, add(CFA_XSP16, literal(-1)))
          CFI (cfiCond40) CFA_SP SP+-2
          CFI (cfiCond40) CFA_XSP16 add(XSP16, 10)
          CFI Block cfiPicker41 Using cfiCommon1
          CFI (cfiPicker41) NoFunction
          CFI (cfiPicker41) Picker
        MOVX    @DPTR,A
        ; Setup parameters for call to function sAddrExtCpy
        ; Setup parameters for call to function sAddrExtCpy
        MOV     R4,#(_NIB + 53) & 0xff
        MOV     R5,#((_NIB + 53) >> 8) & 0xff
        MOV     R2,#ZDO_UseExtendedPANID & 0xff
        MOV     R3,#(ZDO_UseExtendedPANID >> 8) & 0xff
        RET
          CFI (cfiCond39) CFA_SP SP+0
          CFI (cfiCond40) CFA_SP SP+0
          CFI (cfiPicker41) CFA_SP SP+0
          CFI EndBlock cfiCond39
          CFI EndBlock cfiCond40
          CFI EndBlock cfiPicker41

        RSEG BANKED_CODE:CODE:NOROOT(0)
?Subroutine14:
          CFI Block cfiCond42 Using cfiCommon0
          CFI Function ZDApp_ProcessOSALMsg
          CFI Conditional ??CrossCallReturnLabel_8
          CFI R6 load(1, XDATA, add(CFA_XSP16, literal(-12)))
          CFI VB load(1, XDATA, add(CFA_XSP16, literal(-11)))
          CFI V0 load(1, XDATA, add(CFA_XSP16, literal(-10)))
          CFI V1 load(1, XDATA, add(CFA_XSP16, literal(-9)))
          CFI V2 load(1, XDATA, add(CFA_XSP16, literal(-8)))
          CFI V3 load(1, XDATA, add(CFA_XSP16, literal(-7)))
          CFI R7 load(1, XDATA, add(CFA_XSP16, literal(-6)))
          CFI ?RET_LOW load(1, XDATA, add(CFA_XSP16, literal(-5)))
          CFI ?RET_HIGH load(1, XDATA, add(CFA_XSP16, literal(-4)))
          CFI ?BRET_EXT load(1, XDATA, add(CFA_XSP16, literal(-3)))
          CFI DPL0 load(1, XDATA, add(CFA_XSP16, literal(-2)))
          CFI DPH0 load(1, XDATA, add(CFA_XSP16, literal(-1)))
          CFI CFA_SP SP+-2
          CFI CFA_XSP16 add(XSP16, 15)
          CFI Block cfiCond43 Using cfiCommon0
          CFI (cfiCond43) Function ZDApp_LeaveReset
          CFI (cfiCond43) Conditional ??CrossCallReturnLabel_9
          CFI (cfiCond43) R6 load(1, XDATA, add(CFA_XSP16, literal(-10)))
          CFI (cfiCond43) VB load(1, XDATA, add(CFA_XSP16, literal(-9)))
          CFI (cfiCond43) V0 load(1, XDATA, add(CFA_XSP16, literal(-8)))
          CFI (cfiCond43) V1 load(1, XDATA, add(CFA_XSP16, literal(-7)))
          CFI (cfiCond43) R7 load(1, XDATA, add(CFA_XSP16, literal(-6)))
          CFI (cfiCond43) ?RET_LOW load(1, XDATA, add(CFA_XSP16, literal(-5)))
          CFI (cfiCond43) ?RET_HIGH load(1, XDATA, add(CFA_XSP16, literal(-4)))
          CFI (cfiCond43) ?BRET_EXT load(1, XDATA, add(CFA_XSP16, literal(-3)))
          CFI (cfiCond43) DPL0 load(1, XDATA, add(CFA_XSP16, literal(-2)))
          CFI (cfiCond43) DPH0 load(1, XDATA, add(CFA_XSP16, literal(-1)))
          CFI (cfiCond43) CFA_SP SP+-2
          CFI (cfiCond43) CFA_XSP16 add(XSP16, 10)
          CFI Block cfiPicker44 Using cfiCommon1
          CFI (cfiPicker44) NoFunction
          CFI (cfiPicker44) Picker
        MOVX    @DPTR,A
        MOV     DPTR,#devStartMode
        INC     A
        MOVX    @DPTR,A
        MOV     DPTR,#_tmpRejoinState
        RET
          CFI (cfiCond42) CFA_SP SP+0
          CFI (cfiCond43) CFA_SP SP+0
          CFI (cfiPicker44) CFA_SP SP+0
          CFI EndBlock cfiCond42
          CFI EndBlock cfiCond43
          CFI EndBlock cfiPicker44

        RSEG BANKED_CODE:CODE:NOROOT(0)
?Subroutine13:
          CFI Block cfiCond45 Using cfiCommon0
          CFI Function ZDApp_LeaveReset
          CFI Conditional ??CrossCallReturnLabel_4
          CFI R6 load(1, XDATA, add(CFA_XSP16, literal(-10)))
          CFI VB load(1, XDATA, add(CFA_XSP16, literal(-9)))
          CFI V0 load(1, XDATA, add(CFA_XSP16, literal(-8)))
          CFI V1 load(1, XDATA, add(CFA_XSP16, literal(-7)))
          CFI R7 load(1, XDATA, add(CFA_XSP16, literal(-6)))
          CFI ?RET_LOW load(1, XDATA, add(CFA_XSP16, literal(-5)))
          CFI ?RET_HIGH load(1, XDATA, add(CFA_XSP16, literal(-4)))
          CFI ?BRET_EXT load(1, XDATA, add(CFA_XSP16, literal(-3)))
          CFI DPL0 load(1, XDATA, add(CFA_XSP16, literal(-2)))
          CFI DPH0 load(1, XDATA, add(CFA_XSP16, literal(-1)))
          CFI CFA_SP SP+-2
          CFI CFA_XSP16 add(XSP16, 10)
          CFI Block cfiCond46 Using cfiCommon0
          CFI (cfiCond46) Function ZDApp_LeaveReset
          CFI (cfiCond46) Conditional ??CrossCallReturnLabel_5
          CFI (cfiCond46) R6 load(1, XDATA, add(CFA_XSP16, literal(-10)))
          CFI (cfiCond46) VB load(1, XDATA, add(CFA_XSP16, literal(-9)))
          CFI (cfiCond46) V0 load(1, XDATA, add(CFA_XSP16, literal(-8)))
          CFI (cfiCond46) V1 load(1, XDATA, add(CFA_XSP16, literal(-7)))
          CFI (cfiCond46) R7 load(1, XDATA, add(CFA_XSP16, literal(-6)))
          CFI (cfiCond46) ?RET_LOW load(1, XDATA, add(CFA_XSP16, literal(-5)))
          CFI (cfiCond46) ?RET_HIGH load(1, XDATA, add(CFA_XSP16, literal(-4)))
          CFI (cfiCond46) ?BRET_EXT load(1, XDATA, add(CFA_XSP16, literal(-3)))
          CFI (cfiCond46) DPL0 load(1, XDATA, add(CFA_XSP16, literal(-2)))
          CFI (cfiCond46) DPH0 load(1, XDATA, add(CFA_XSP16, literal(-1)))
          CFI (cfiCond46) CFA_SP SP+-2
          CFI (cfiCond46) CFA_XSP16 add(XSP16, 10)
          CFI Block cfiCond47 Using cfiCommon0
          CFI (cfiCond47) Function ZDApp_LeaveReset
          CFI (cfiCond47) Conditional ??CrossCallReturnLabel_6
          CFI (cfiCond47) R6 load(1, XDATA, add(CFA_XSP16, literal(-10)))
          CFI (cfiCond47) VB load(1, XDATA, add(CFA_XSP16, literal(-9)))
          CFI (cfiCond47) V0 load(1, XDATA, add(CFA_XSP16, literal(-8)))
          CFI (cfiCond47) V1 load(1, XDATA, add(CFA_XSP16, literal(-7)))
          CFI (cfiCond47) R7 load(1, XDATA, add(CFA_XSP16, literal(-6)))
          CFI (cfiCond47) ?RET_LOW load(1, XDATA, add(CFA_XSP16, literal(-5)))
          CFI (cfiCond47) ?RET_HIGH load(1, XDATA, add(CFA_XSP16, literal(-4)))
          CFI (cfiCond47) ?BRET_EXT load(1, XDATA, add(CFA_XSP16, literal(-3)))
          CFI (cfiCond47) DPL0 load(1, XDATA, add(CFA_XSP16, literal(-2)))
          CFI (cfiCond47) DPH0 load(1, XDATA, add(CFA_XSP16, literal(-1)))
          CFI (cfiCond47) CFA_SP SP+-2
          CFI (cfiCond47) CFA_XSP16 add(XSP16, 10)
          CFI Block cfiCond48 Using cfiCommon0
          CFI (cfiCond48) Function ZDApp_LeaveReset
          CFI (cfiCond48) Conditional ??CrossCallReturnLabel_7
          CFI (cfiCond48) R6 load(1, XDATA, add(CFA_XSP16, literal(-10)))
          CFI (cfiCond48) VB load(1, XDATA, add(CFA_XSP16, literal(-9)))
          CFI (cfiCond48) V0 load(1, XDATA, add(CFA_XSP16, literal(-8)))
          CFI (cfiCond48) V1 load(1, XDATA, add(CFA_XSP16, literal(-7)))
          CFI (cfiCond48) R7 load(1, XDATA, add(CFA_XSP16, literal(-6)))
          CFI (cfiCond48) ?RET_LOW load(1, XDATA, add(CFA_XSP16, literal(-5)))
          CFI (cfiCond48) ?RET_HIGH load(1, XDATA, add(CFA_XSP16, literal(-4)))
          CFI (cfiCond48) ?BRET_EXT load(1, XDATA, add(CFA_XSP16, literal(-3)))
          CFI (cfiCond48) DPL0 load(1, XDATA, add(CFA_XSP16, literal(-2)))
          CFI (cfiCond48) DPH0 load(1, XDATA, add(CFA_XSP16, literal(-1)))
          CFI (cfiCond48) CFA_SP SP+-2
          CFI (cfiCond48) CFA_XSP16 add(XSP16, 10)
          CFI Block cfiPicker49 Using cfiCommon1
          CFI (cfiPicker49) NoFunction
          CFI (cfiPicker49) Picker
        MOV     A,#-0x18
        MOVX    @DPTR,A
        INC     DPTR
        MOV     A,#0x3
        MOVX    @DPTR,A
        RET
          CFI (cfiCond45) CFA_SP SP+0
          CFI (cfiCond46) CFA_SP SP+0
          CFI (cfiCond47) CFA_SP SP+0
          CFI (cfiCond48) CFA_SP SP+0
          CFI (cfiPicker49) CFA_SP SP+0
          CFI EndBlock cfiCond45
          CFI EndBlock cfiCond46
          CFI EndBlock cfiCond47
          CFI EndBlock cfiCond48
          CFI EndBlock cfiPicker49

        RSEG BANKED_CODE:CODE:NOROOT(0)
?Subroutine11:
          CFI Block cfiCond50 Using cfiCommon0
          CFI Function ZDApp_LeaveReset
          CFI Conditional ??CrossCallReturnLabel_2
          CFI R6 load(1, XDATA, add(CFA_XSP16, literal(-10)))
          CFI VB load(1, XDATA, add(CFA_XSP16, literal(-9)))
          CFI V0 load(1, XDATA, add(CFA_XSP16, literal(-8)))
          CFI V1 load(1, XDATA, add(CFA_XSP16, literal(-7)))
          CFI R7 load(1, XDATA, add(CFA_XSP16, literal(-6)))
          CFI ?RET_LOW load(1, XDATA, add(CFA_XSP16, literal(-5)))
          CFI ?RET_HIGH load(1, XDATA, add(CFA_XSP16, literal(-4)))
          CFI ?BRET_EXT load(1, XDATA, add(CFA_XSP16, literal(-3)))
          CFI DPL0 load(1, XDATA, add(CFA_XSP16, literal(-2)))
          CFI DPH0 load(1, XDATA, add(CFA_XSP16, literal(-1)))
          CFI CFA_SP SP+-2
          CFI CFA_XSP16 add(XSP16, 10)
          CFI Block cfiCond51 Using cfiCommon0
          CFI (cfiCond51) Function ZDApp_LeaveReset
          CFI (cfiCond51) Conditional ??CrossCallReturnLabel_3
          CFI (cfiCond51) R6 load(1, XDATA, add(CFA_XSP16, literal(-10)))
          CFI (cfiCond51) VB load(1, XDATA, add(CFA_XSP16, literal(-9)))
          CFI (cfiCond51) V0 load(1, XDATA, add(CFA_XSP16, literal(-8)))
          CFI (cfiCond51) V1 load(1, XDATA, add(CFA_XSP16, literal(-7)))
          CFI (cfiCond51) R7 load(1, XDATA, add(CFA_XSP16, literal(-6)))
          CFI (cfiCond51) ?RET_LOW load(1, XDATA, add(CFA_XSP16, literal(-5)))
          CFI (cfiCond51) ?RET_HIGH load(1, XDATA, add(CFA_XSP16, literal(-4)))
          CFI (cfiCond51) ?BRET_EXT load(1, XDATA, add(CFA_XSP16, literal(-3)))
          CFI (cfiCond51) DPL0 load(1, XDATA, add(CFA_XSP16, literal(-2)))
          CFI (cfiCond51) DPH0 load(1, XDATA, add(CFA_XSP16, literal(-1)))
          CFI (cfiCond51) CFA_SP SP+-2
          CFI (cfiCond51) CFA_XSP16 add(XSP16, 10)
          CFI Block cfiPicker52 Using cfiCommon1
          CFI (cfiPicker52) NoFunction
          CFI (cfiPicker52) Picker
        MOV     A,#0x10
        MOVX    @DPTR,A
        INC     DPTR
        MOV     A,#0x27
        MOVX    @DPTR,A
        INC     DPTR
        CLR     A
        MOVX    @DPTR,A
        INC     DPTR
        MOVX    @DPTR,A
        RET
          CFI (cfiCond50) CFA_SP SP+0
          CFI (cfiCond51) CFA_SP SP+0
          CFI (cfiPicker52) CFA_SP SP+0
          CFI EndBlock cfiCond50
          CFI EndBlock cfiCond51
          CFI EndBlock cfiPicker52
// 2079 
// 2080 /*********************************************************************
// 2081  * @fn      ZDApp_LeaveUpdate
// 2082  *
// 2083  * @brief   Update local device data related to leaving device.
// 2084  *
// 2085  * @param   nwkAddr        - NWK address of leaving device
// 2086  * @param   extAddr        - EXT address of leaving device
// 2087  * @param   removeChildren - remove children of leaving device
// 2088  *
// 2089  * @return  none
// 2090  */

        RSEG BANKED_CODE:CODE:NOROOT(0)
// 2091 void ZDApp_LeaveUpdate( uint16 nwkAddr, uint8* extAddr,
ZDApp_LeaveUpdate:
          CFI Block cfiBlock53 Using cfiCommon0
          CFI Function ZDApp_LeaveUpdate
        CODE
// 2092                         uint8 removeChildren )
// 2093 {
        FUNCALL ZDApp_LeaveUpdate, ZDSecMgrDeviceRemoveByExtAddr
        LOCFRAME ISTACK, 0, STACK
        LOCFRAME PSTACK, 0, STACK
        LOCFRAME XSTACK, 24, STACK
        LOCFRAME IOVERLAY, 0, STATIC
        LOCFRAME DOVERLAY, 0, STATIC
        ARGFRAME ISTACK, 0, STACK
        ARGFRAME PSTACK, 0, STACK
        ARGFRAME XSTACK, 24, STACK
        ARGFRAME IOVERLAY, 0, STATIC
        ARGFRAME DOVERLAY, 0, STATIC
        FUNCALL ZDApp_LeaveUpdate, ZDSecMgrAddrClear
        LOCFRAME ISTACK, 0, STACK
        LOCFRAME PSTACK, 0, STACK
        LOCFRAME XSTACK, 24, STACK
        LOCFRAME IOVERLAY, 0, STATIC
        LOCFRAME DOVERLAY, 0, STATIC
        ARGFRAME ISTACK, 0, STACK
        ARGFRAME PSTACK, 0, STACK
        ARGFRAME XSTACK, 24, STACK
        ARGFRAME IOVERLAY, 0, STATIC
        ARGFRAME DOVERLAY, 0, STATIC
        FUNCALL ZDApp_LeaveUpdate, osal_memcpy
        LOCFRAME ISTACK, 0, STACK
        LOCFRAME PSTACK, 0, STACK
        LOCFRAME XSTACK, 27, STACK
        LOCFRAME IOVERLAY, 0, STATIC
        LOCFRAME DOVERLAY, 0, STATIC
        ARGFRAME ISTACK, 0, STACK
        ARGFRAME PSTACK, 0, STACK
        ARGFRAME XSTACK, 27, STACK
        ARGFRAME IOVERLAY, 0, STATIC
        ARGFRAME DOVERLAY, 0, STATIC
        FUNCALL ZDApp_LeaveUpdate, RTG_RemoveRtgEntry
        LOCFRAME ISTACK, 0, STACK
        LOCFRAME PSTACK, 0, STACK
        LOCFRAME XSTACK, 24, STACK
        LOCFRAME IOVERLAY, 0, STATIC
        LOCFRAME DOVERLAY, 0, STATIC
        ARGFRAME ISTACK, 0, STACK
        ARGFRAME PSTACK, 0, STACK
        ARGFRAME XSTACK, 24, STACK
        ARGFRAME IOVERLAY, 0, STATIC
        ARGFRAME DOVERLAY, 0, STATIC
        FUNCALL ZDApp_LeaveUpdate, nwkNeighborRemove
        LOCFRAME ISTACK, 0, STACK
        LOCFRAME PSTACK, 0, STACK
        LOCFRAME XSTACK, 24, STACK
        LOCFRAME IOVERLAY, 0, STATIC
        LOCFRAME DOVERLAY, 0, STATIC
        ARGFRAME ISTACK, 0, STACK
        ARGFRAME PSTACK, 0, STACK
        ARGFRAME XSTACK, 24, STACK
        ARGFRAME IOVERLAY, 0, STATIC
        ARGFRAME DOVERLAY, 0, STATIC
        REQUIRE ?V0
        REQUIRE ?V1
        REQUIRE ?V4
        REQUIRE ?V5
        REQUIRE ?V6
        MOV     A,#-0xf
        LCALL   ?BANKED_ENTER_XDATA
          CFI DPH0 load(1, XDATA, add(CFA_XSP16, literal(-1)))
          CFI DPL0 load(1, XDATA, add(CFA_XSP16, literal(-2)))
          CFI ?BRET_EXT load(1, XDATA, add(CFA_XSP16, literal(-3)))
          CFI ?RET_HIGH load(1, XDATA, add(CFA_XSP16, literal(-4)))
          CFI ?RET_LOW load(1, XDATA, add(CFA_XSP16, literal(-5)))
          CFI R7 load(1, XDATA, add(CFA_XSP16, literal(-6)))
          CFI V6 load(1, XDATA, add(CFA_XSP16, literal(-7)))
          CFI V5 load(1, XDATA, add(CFA_XSP16, literal(-8)))
          CFI V4 load(1, XDATA, add(CFA_XSP16, literal(-9)))
          CFI V3 load(1, XDATA, add(CFA_XSP16, literal(-10)))
          CFI V2 load(1, XDATA, add(CFA_XSP16, literal(-11)))
          CFI V1 load(1, XDATA, add(CFA_XSP16, literal(-12)))
          CFI V0 load(1, XDATA, add(CFA_XSP16, literal(-13)))
          CFI VB load(1, XDATA, add(CFA_XSP16, literal(-14)))
          CFI R6 load(1, XDATA, add(CFA_XSP16, literal(-15)))
          CFI CFA_SP SP+0
          CFI CFA_XSP16 add(XSP16, 15)
        ; Saved register size: 15
        ; Auto size: 9
        MOV     A,#-0x9
        LCALL   ?ALLOC_XSTACK8
          CFI CFA_XSP16 add(XSP16, 24)
        MOV     ?V0,R2
        MOV     ?V1,R3
        MOV     A,R4
        MOV     R6,A
        MOV     A,R5
        MOV     R7,A
// 2094   // Remove Apps Key for leaving device
// 2095   ZDSecMgrDeviceRemoveByExtAddr(extAddr);
        ; Setup parameters for call to function ZDSecMgrDeviceRemoveByExtAddr
        MOV     A,R6
        MOV     R2,A
        MOV     A,R7
        MOV     R3,A
        LCALL   `??ZDSecMgrDeviceRemoveByExtAddr::?relay`; Banked call to: ZDSecMgrDeviceRemoveByExtAddr
// 2096 
// 2097   // Clear SECURITY bit from Address Manager
// 2098   ZDSecMgrAddrClear( extAddr );
        ; Setup parameters for call to function ZDSecMgrAddrClear
        MOV     A,R6
        MOV     R2,A
        MOV     A,R7
        MOV     R3,A
        LCALL   `??ZDSecMgrAddrClear::?relay`; Banked call to: ZDSecMgrAddrClear
// 2099 
// 2100   if ( pbindRemoveDev )
        MOV     DPTR,#pbindRemoveDev
        LCALL   ??Subroutine51_0 & 0xFFFF
??CrossCallReturnLabel_84:
        JZ      ??ZDApp_LeaveUpdate_0
// 2101   {
// 2102     zAddrType_t devAddr;
// 2103 
// 2104     // Remove bind entry and all related data
// 2105     devAddr.addrMode = Addr64Bit;
        MOV     A,#0x8
        LCALL   ?XSTACK_DISP0_8
        MOV     A,#0x3
        MOVX    @DPTR,A
// 2106     osal_memcpy(devAddr.addr.extAddr, extAddr, Z_EXTADDR_LEN);
        ; Setup parameters for call to function osal_memcpy
        MOV     ?V4,R6
        MOV     ?V5,R7
        MOV     ?V6,#0x0
        MOV     R0,#?V4
        LCALL   ?PUSH_XSTACK_I_THREE
          CFI CFA_XSP16 add(XSP16, 27)
        MOV     R4,#0x8
        MOV     R5,#0x0
        MOV     A,#0x3
        LCALL   ?XSTACK_DISP101_8
        LCALL   `??osal_memcpy::?relay`; Banked call to: osal_memcpy
        MOV     A,#0x3
        LCALL   ?DEALLOC_XSTACK8
          CFI CFA_XSP16 add(XSP16, 24)
// 2107 
// 2108     pbindRemoveDev(&devAddr);
        ; Setup parameters for indirect call
        MOV     R2,?XSP + 0
        MOV     R3,?XSP + 1
        MOV     DPTR,#pbindRemoveDev
        LCALL   ?Subroutine37 & 0xFFFF
// 2109   }
??CrossCallReturnLabel_56:
        LCALL   ?CALL_IND
// 2110 
// 2111   // Remove if child
// 2112   if ( ZSTACK_ROUTER_BUILD )
// 2113   {
// 2114     // Router shall notify the Trust Center that a child End Device or
// 2115     // a neighbor Router (within radius=1) has left the network
// 2116     APSME_UpdateDeviceReq_t req;
// 2117 
// 2118     // forward authorization to the Trust Center
// 2119     req.dstAddr    = APSME_TRUSTCENTER_NWKADDR;
// 2120     req.devAddr    = nwkAddr;
// 2121     req.devExtAddr = extAddr;
// 2122     req.status = APSME_UD_DEVICE_LEFT;
// 2123 
// 2124     if ( ZG_CHECK_SECURITY_MODE == ZG_SECURITY_SE_STANDARD )
// 2125     {
// 2126       // For ZG_GLOBAL_LINK_KEY the message has to be sent twice one
// 2127       // un-encrypted and one APS encrypted, to make sure that it can interoperate
// 2128       // with legacy Coordinator devices which can only handle one or the other.
// 2129       if ( zgApsLinkKeyType == ZG_GLOBAL_LINK_KEY )
// 2130       {
// 2131         req.apsSecure = FALSE;
// 2132 
// 2133         // send and APSME_UPDATE_DEVICE request to the trust center
// 2134         APSME_UpdateDeviceReq( &req );
// 2135       }
// 2136 
// 2137       // send the message APS encrypted
// 2138       req.apsSecure = TRUE;
// 2139 
// 2140       // send and APSME_UPDATE_DEVICE request to the trust center
// 2141       APSME_UpdateDeviceReq( &req );
// 2142     }
// 2143     else
// 2144     {
// 2145       req.apsSecure = FALSE;
// 2146 
// 2147       // send and APSME_UPDATE_DEVICE request to the trust center
// 2148       APSME_UpdateDeviceReq( &req );
// 2149     }
// 2150 
// 2151     NLME_RemoveChild( extAddr, removeChildren );
// 2152   }
// 2153 
// 2154   // Remove Routing table related entry
// 2155   RTG_RemoveRtgEntry( nwkAddr, 0 );
??ZDApp_LeaveUpdate_0:
        ; Setup parameters for call to function RTG_RemoveRtgEntry
        MOV     R1,#0x0
        MOV     R2,?V0
        MOV     R3,?V1
        LCALL   `??RTG_RemoveRtgEntry::?relay`; Banked call to: RTG_RemoveRtgEntry
// 2156 
// 2157   // Remove entry from neighborTable
// 2158   nwkNeighborRemove( nwkAddr, _NIB.nwkPanId );
        ; Setup parameters for call to function nwkNeighborRemove
        MOV     DPTR,#_NIB + 33
        MOVX    A,@DPTR
        MOV     R4,A
        INC     DPTR
        MOVX    A,@DPTR
        MOV     R5,A
        MOV     R2,?V0
        MOV     R3,?V1
        LCALL   `??nwkNeighborRemove::?relay`; Banked call to: nwkNeighborRemove
// 2159 
// 2160   // Schedule to save data to NV
// 2161   ZDApp_NwkWriteNVRequest();
// 2162 }
        MOV     A,#0x9
          CFI EndBlock cfiBlock53
        REQUIRE ?Subroutine5
        ; // Fall through to label ?Subroutine5

        RSEG BANKED_CODE:CODE:NOROOT(0)
?Subroutine5:
          CFI Block cfiBlock54 Using cfiCommon0
          CFI NoFunction
          CFI CFA_SP SP+0
          CFI CFA_XSP16 add(XSP16, 24)
          CFI VB load(1, XDATA, add(CFA_XSP16, literal(-14)))
          CFI DPL0 load(1, XDATA, add(CFA_XSP16, literal(-2)))
          CFI DPH0 load(1, XDATA, add(CFA_XSP16, literal(-1)))
          CFI R6 load(1, XDATA, add(CFA_XSP16, literal(-15)))
          CFI R7 load(1, XDATA, add(CFA_XSP16, literal(-6)))
          CFI V0 load(1, XDATA, add(CFA_XSP16, literal(-13)))
          CFI V1 load(1, XDATA, add(CFA_XSP16, literal(-12)))
          CFI V2 load(1, XDATA, add(CFA_XSP16, literal(-11)))
          CFI V3 load(1, XDATA, add(CFA_XSP16, literal(-10)))
          CFI V4 load(1, XDATA, add(CFA_XSP16, literal(-9)))
          CFI V5 load(1, XDATA, add(CFA_XSP16, literal(-8)))
          CFI V6 load(1, XDATA, add(CFA_XSP16, literal(-7)))
          CFI ?BRET_EXT load(1, XDATA, add(CFA_XSP16, literal(-3)))
          CFI ?RET_HIGH load(1, XDATA, add(CFA_XSP16, literal(-4)))
          CFI ?RET_LOW load(1, XDATA, add(CFA_XSP16, literal(-5)))
          CFI Invalid
        LCALL   ?DEALLOC_XSTACK8
          CFI CFA_XSP16 add(XSP16, 15)
          CFI Valid
        MOV     R7,#0x7
        LJMP    ?BANKED_LEAVE_XDATA
          CFI CFA_SP SP+-3
          CFI CFA_XSP16 XSP16+0
          CFI VB SameValue
          CFI DPL0 SameValue
          CFI DPH0 SameValue
          CFI R6 SameValue
          CFI R7 SameValue
          CFI V0 SameValue
          CFI V1 SameValue
          CFI V2 SameValue
          CFI V3 SameValue
          CFI V4 SameValue
          CFI V5 SameValue
          CFI V6 SameValue
          CFI ?BRET_EXT Frame(CFA_SP, 3)
          CFI ?RET_HIGH Frame(CFA_SP, 2)
          CFI ?RET_LOW Frame(CFA_SP, 1)
          CFI EndBlock cfiBlock54

        RSEG BANKED_CODE:CODE:NOROOT(0)
?Subroutine37:
          CFI Block cfiCond55 Using cfiCommon0
          CFI Function ZDApp_LeaveUpdate
          CFI Conditional ??CrossCallReturnLabel_56
          CFI R6 load(1, XDATA, add(CFA_XSP16, literal(-15)))
          CFI VB load(1, XDATA, add(CFA_XSP16, literal(-14)))
          CFI V0 load(1, XDATA, add(CFA_XSP16, literal(-13)))
          CFI V1 load(1, XDATA, add(CFA_XSP16, literal(-12)))
          CFI V2 load(1, XDATA, add(CFA_XSP16, literal(-11)))
          CFI V3 load(1, XDATA, add(CFA_XSP16, literal(-10)))
          CFI V4 load(1, XDATA, add(CFA_XSP16, literal(-9)))
          CFI V5 load(1, XDATA, add(CFA_XSP16, literal(-8)))
          CFI V6 load(1, XDATA, add(CFA_XSP16, literal(-7)))
          CFI R7 load(1, XDATA, add(CFA_XSP16, literal(-6)))
          CFI ?RET_LOW load(1, XDATA, add(CFA_XSP16, literal(-5)))
          CFI ?RET_HIGH load(1, XDATA, add(CFA_XSP16, literal(-4)))
          CFI ?BRET_EXT load(1, XDATA, add(CFA_XSP16, literal(-3)))
          CFI DPL0 load(1, XDATA, add(CFA_XSP16, literal(-2)))
          CFI DPH0 load(1, XDATA, add(CFA_XSP16, literal(-1)))
          CFI CFA_SP SP+-2
          CFI CFA_XSP16 add(XSP16, 24)
          CFI Block cfiCond56 Using cfiCommon0
          CFI (cfiCond56) Function ZDApp_SecInit
          CFI (cfiCond56) Conditional ??CrossCallReturnLabel_57, ??CrossCallReturnLabel_22
          CFI (cfiCond56) R6 load(1, XDATA, add(CFA_XSP16, literal(-9)))
          CFI (cfiCond56) VB load(1, XDATA, add(CFA_XSP16, literal(-8)))
          CFI (cfiCond56) V0 load(1, XDATA, add(CFA_XSP16, literal(-7)))
          CFI (cfiCond56) R7 load(1, XDATA, add(CFA_XSP16, literal(-6)))
          CFI (cfiCond56) ?RET_LOW load(1, XDATA, add(CFA_XSP16, literal(-5)))
          CFI (cfiCond56) ?RET_HIGH load(1, XDATA, add(CFA_XSP16, literal(-4)))
          CFI (cfiCond56) ?BRET_EXT load(1, XDATA, add(CFA_XSP16, literal(-3)))
          CFI (cfiCond56) DPL0 load(1, XDATA, add(CFA_XSP16, literal(-2)))
          CFI (cfiCond56) DPH0 load(1, XDATA, add(CFA_XSP16, literal(-1)))
          CFI (cfiCond56) CFA_SP SP+-4
          CFI (cfiCond56) CFA_XSP16 add(XSP16, 25)
          CFI Block cfiCond57 Using cfiCommon0
          CFI (cfiCond57) Function ZDO_AddrChangeIndicationCB
          CFI (cfiCond57) Conditional ??CrossCallReturnLabel_57, ??CrossCallReturnLabel_23
          CFI (cfiCond57) R6 load(1, XDATA, add(CFA_XSP16, literal(-14)))
          CFI (cfiCond57) VB load(1, XDATA, add(CFA_XSP16, literal(-13)))
          CFI (cfiCond57) V0 load(1, XDATA, add(CFA_XSP16, literal(-12)))
          CFI (cfiCond57) V1 load(1, XDATA, add(CFA_XSP16, literal(-11)))
          CFI (cfiCond57) V2 load(1, XDATA, add(CFA_XSP16, literal(-10)))
          CFI (cfiCond57) V3 load(1, XDATA, add(CFA_XSP16, literal(-9)))
          CFI (cfiCond57) V4 load(1, XDATA, add(CFA_XSP16, literal(-8)))
          CFI (cfiCond57) V5 load(1, XDATA, add(CFA_XSP16, literal(-7)))
          CFI (cfiCond57) R7 load(1, XDATA, add(CFA_XSP16, literal(-6)))
          CFI (cfiCond57) ?RET_LOW load(1, XDATA, add(CFA_XSP16, literal(-5)))
          CFI (cfiCond57) ?RET_HIGH load(1, XDATA, add(CFA_XSP16, literal(-4)))
          CFI (cfiCond57) ?BRET_EXT load(1, XDATA, add(CFA_XSP16, literal(-3)))
          CFI (cfiCond57) DPL0 load(1, XDATA, add(CFA_XSP16, literal(-2)))
          CFI (cfiCond57) DPH0 load(1, XDATA, add(CFA_XSP16, literal(-1)))
          CFI (cfiCond57) CFA_SP SP+-4
          CFI (cfiCond57) CFA_XSP16 add(XSP16, 14)
          CFI Block cfiCond58 Using cfiCommon0
          CFI (cfiCond58) Function ZDO_AddrChangeIndicationCB
          CFI (cfiCond58) Conditional ??CrossCallReturnLabel_57, ??CrossCallReturnLabel_24
          CFI (cfiCond58) R6 load(1, XDATA, add(CFA_XSP16, literal(-14)))
          CFI (cfiCond58) VB load(1, XDATA, add(CFA_XSP16, literal(-13)))
          CFI (cfiCond58) V0 load(1, XDATA, add(CFA_XSP16, literal(-12)))
          CFI (cfiCond58) V1 load(1, XDATA, add(CFA_XSP16, literal(-11)))
          CFI (cfiCond58) V2 load(1, XDATA, add(CFA_XSP16, literal(-10)))
          CFI (cfiCond58) V3 load(1, XDATA, add(CFA_XSP16, literal(-9)))
          CFI (cfiCond58) V4 load(1, XDATA, add(CFA_XSP16, literal(-8)))
          CFI (cfiCond58) V5 load(1, XDATA, add(CFA_XSP16, literal(-7)))
          CFI (cfiCond58) R7 load(1, XDATA, add(CFA_XSP16, literal(-6)))
          CFI (cfiCond58) ?RET_LOW load(1, XDATA, add(CFA_XSP16, literal(-5)))
          CFI (cfiCond58) ?RET_HIGH load(1, XDATA, add(CFA_XSP16, literal(-4)))
          CFI (cfiCond58) ?BRET_EXT load(1, XDATA, add(CFA_XSP16, literal(-3)))
          CFI (cfiCond58) DPL0 load(1, XDATA, add(CFA_XSP16, literal(-2)))
          CFI (cfiCond58) DPH0 load(1, XDATA, add(CFA_XSP16, literal(-1)))
          CFI (cfiCond58) CFA_SP SP+-4
          CFI (cfiCond58) CFA_XSP16 add(XSP16, 14)
          CFI Block cfiPicker59 Using cfiCommon1
          CFI (cfiPicker59) NoFunction
          CFI (cfiPicker59) Picker
        MOVX    A,@DPTR
          CFI EndBlock cfiCond55
          CFI EndBlock cfiCond56
          CFI EndBlock cfiCond57
          CFI EndBlock cfiCond58
          CFI EndBlock cfiPicker59
        REQUIRE ??Subroutine41_0
        ; // Fall through to label ??Subroutine41_0

        RSEG BANKED_CODE:CODE:NOROOT(0)
??Subroutine41_0:
          CFI Block cfiCond60 Using cfiCommon0
          CFI Function ZDO_AddrChangeIndicationCB
          CFI Conditional ??CrossCallReturnLabel_55
          CFI R6 load(1, XDATA, add(CFA_XSP16, literal(-14)))
          CFI VB load(1, XDATA, add(CFA_XSP16, literal(-13)))
          CFI V0 load(1, XDATA, add(CFA_XSP16, literal(-12)))
          CFI V1 load(1, XDATA, add(CFA_XSP16, literal(-11)))
          CFI V2 load(1, XDATA, add(CFA_XSP16, literal(-10)))
          CFI V3 load(1, XDATA, add(CFA_XSP16, literal(-9)))
          CFI V4 load(1, XDATA, add(CFA_XSP16, literal(-8)))
          CFI V5 load(1, XDATA, add(CFA_XSP16, literal(-7)))
          CFI R7 load(1, XDATA, add(CFA_XSP16, literal(-6)))
          CFI ?RET_LOW load(1, XDATA, add(CFA_XSP16, literal(-5)))
          CFI ?RET_HIGH load(1, XDATA, add(CFA_XSP16, literal(-4)))
          CFI ?BRET_EXT load(1, XDATA, add(CFA_XSP16, literal(-3)))
          CFI DPL0 load(1, XDATA, add(CFA_XSP16, literal(-2)))
          CFI DPH0 load(1, XDATA, add(CFA_XSP16, literal(-1)))
          CFI CFA_SP SP+-2
          CFI CFA_XSP16 add(XSP16, 14)
          CFI Block cfiCond61 Using cfiCommon0
          CFI (cfiCond61) Function ZDApp_LeaveUpdate
          CFI (cfiCond61) Conditional ??CrossCallReturnLabel_56
          CFI (cfiCond61) R6 load(1, XDATA, add(CFA_XSP16, literal(-15)))
          CFI (cfiCond61) VB load(1, XDATA, add(CFA_XSP16, literal(-14)))
          CFI (cfiCond61) V0 load(1, XDATA, add(CFA_XSP16, literal(-13)))
          CFI (cfiCond61) V1 load(1, XDATA, add(CFA_XSP16, literal(-12)))
          CFI (cfiCond61) V2 load(1, XDATA, add(CFA_XSP16, literal(-11)))
          CFI (cfiCond61) V3 load(1, XDATA, add(CFA_XSP16, literal(-10)))
          CFI (cfiCond61) V4 load(1, XDATA, add(CFA_XSP16, literal(-9)))
          CFI (cfiCond61) V5 load(1, XDATA, add(CFA_XSP16, literal(-8)))
          CFI (cfiCond61) V6 load(1, XDATA, add(CFA_XSP16, literal(-7)))
          CFI (cfiCond61) R7 load(1, XDATA, add(CFA_XSP16, literal(-6)))
          CFI (cfiCond61) ?RET_LOW load(1, XDATA, add(CFA_XSP16, literal(-5)))
          CFI (cfiCond61) ?RET_HIGH load(1, XDATA, add(CFA_XSP16, literal(-4)))
          CFI (cfiCond61) ?BRET_EXT load(1, XDATA, add(CFA_XSP16, literal(-3)))
          CFI (cfiCond61) DPL0 load(1, XDATA, add(CFA_XSP16, literal(-2)))
          CFI (cfiCond61) DPH0 load(1, XDATA, add(CFA_XSP16, literal(-1)))
          CFI (cfiCond61) CFA_SP SP+-2
          CFI (cfiCond61) CFA_XSP16 add(XSP16, 24)
          CFI Block cfiCond62 Using cfiCommon0
          CFI (cfiCond62) Function ZDApp_SecInit
          CFI (cfiCond62) Conditional ??CrossCallReturnLabel_57, ??CrossCallReturnLabel_22
          CFI (cfiCond62) R6 load(1, XDATA, add(CFA_XSP16, literal(-9)))
          CFI (cfiCond62) VB load(1, XDATA, add(CFA_XSP16, literal(-8)))
          CFI (cfiCond62) V0 load(1, XDATA, add(CFA_XSP16, literal(-7)))
          CFI (cfiCond62) R7 load(1, XDATA, add(CFA_XSP16, literal(-6)))
          CFI (cfiCond62) ?RET_LOW load(1, XDATA, add(CFA_XSP16, literal(-5)))
          CFI (cfiCond62) ?RET_HIGH load(1, XDATA, add(CFA_XSP16, literal(-4)))
          CFI (cfiCond62) ?BRET_EXT load(1, XDATA, add(CFA_XSP16, literal(-3)))
          CFI (cfiCond62) DPL0 load(1, XDATA, add(CFA_XSP16, literal(-2)))
          CFI (cfiCond62) DPH0 load(1, XDATA, add(CFA_XSP16, literal(-1)))
          CFI (cfiCond62) CFA_SP SP+-4
          CFI (cfiCond62) CFA_XSP16 add(XSP16, 25)
          CFI Block cfiCond63 Using cfiCommon0
          CFI (cfiCond63) Function ZDO_AddrChangeIndicationCB
          CFI (cfiCond63) Conditional ??CrossCallReturnLabel_57, ??CrossCallReturnLabel_23
          CFI (cfiCond63) R6 load(1, XDATA, add(CFA_XSP16, literal(-14)))
          CFI (cfiCond63) VB load(1, XDATA, add(CFA_XSP16, literal(-13)))
          CFI (cfiCond63) V0 load(1, XDATA, add(CFA_XSP16, literal(-12)))
          CFI (cfiCond63) V1 load(1, XDATA, add(CFA_XSP16, literal(-11)))
          CFI (cfiCond63) V2 load(1, XDATA, add(CFA_XSP16, literal(-10)))
          CFI (cfiCond63) V3 load(1, XDATA, add(CFA_XSP16, literal(-9)))
          CFI (cfiCond63) V4 load(1, XDATA, add(CFA_XSP16, literal(-8)))
          CFI (cfiCond63) V5 load(1, XDATA, add(CFA_XSP16, literal(-7)))
          CFI (cfiCond63) R7 load(1, XDATA, add(CFA_XSP16, literal(-6)))
          CFI (cfiCond63) ?RET_LOW load(1, XDATA, add(CFA_XSP16, literal(-5)))
          CFI (cfiCond63) ?RET_HIGH load(1, XDATA, add(CFA_XSP16, literal(-4)))
          CFI (cfiCond63) ?BRET_EXT load(1, XDATA, add(CFA_XSP16, literal(-3)))
          CFI (cfiCond63) DPL0 load(1, XDATA, add(CFA_XSP16, literal(-2)))
          CFI (cfiCond63) DPH0 load(1, XDATA, add(CFA_XSP16, literal(-1)))
          CFI (cfiCond63) CFA_SP SP+-4
          CFI (cfiCond63) CFA_XSP16 add(XSP16, 14)
          CFI Block cfiCond64 Using cfiCommon0
          CFI (cfiCond64) Function ZDO_AddrChangeIndicationCB
          CFI (cfiCond64) Conditional ??CrossCallReturnLabel_57, ??CrossCallReturnLabel_24
          CFI (cfiCond64) R6 load(1, XDATA, add(CFA_XSP16, literal(-14)))
          CFI (cfiCond64) VB load(1, XDATA, add(CFA_XSP16, literal(-13)))
          CFI (cfiCond64) V0 load(1, XDATA, add(CFA_XSP16, literal(-12)))
          CFI (cfiCond64) V1 load(1, XDATA, add(CFA_XSP16, literal(-11)))
          CFI (cfiCond64) V2 load(1, XDATA, add(CFA_XSP16, literal(-10)))
          CFI (cfiCond64) V3 load(1, XDATA, add(CFA_XSP16, literal(-9)))
          CFI (cfiCond64) V4 load(1, XDATA, add(CFA_XSP16, literal(-8)))
          CFI (cfiCond64) V5 load(1, XDATA, add(CFA_XSP16, literal(-7)))
          CFI (cfiCond64) R7 load(1, XDATA, add(CFA_XSP16, literal(-6)))
          CFI (cfiCond64) ?RET_LOW load(1, XDATA, add(CFA_XSP16, literal(-5)))
          CFI (cfiCond64) ?RET_HIGH load(1, XDATA, add(CFA_XSP16, literal(-4)))
          CFI (cfiCond64) ?BRET_EXT load(1, XDATA, add(CFA_XSP16, literal(-3)))
          CFI (cfiCond64) DPL0 load(1, XDATA, add(CFA_XSP16, literal(-2)))
          CFI (cfiCond64) DPH0 load(1, XDATA, add(CFA_XSP16, literal(-1)))
          CFI (cfiCond64) CFA_SP SP+-4
          CFI (cfiCond64) CFA_XSP16 add(XSP16, 14)
          CFI Block cfiPicker65 Using cfiCommon1
          CFI (cfiPicker65) NoFunction
          CFI (cfiPicker65) Picker
        MOV     R0,A
        INC     DPTR
          CFI EndBlock cfiCond60
          CFI EndBlock cfiCond61
          CFI EndBlock cfiCond62
          CFI EndBlock cfiCond63
          CFI EndBlock cfiCond64
          CFI EndBlock cfiPicker65
        REQUIRE ??Subroutine42_0
        ; // Fall through to label ??Subroutine42_0

        RSEG BANKED_CODE:CODE:NOROOT(0)
??Subroutine42_0:
          CFI Block cfiCond66 Using cfiCommon0
          CFI Function ZDO_SrcRtgIndCB
          CFI Conditional ??CrossCallReturnLabel_54
          CFI R6 load(1, XDATA, add(CFA_XSP16, literal(-9)))
          CFI VB load(1, XDATA, add(CFA_XSP16, literal(-8)))
          CFI V0 load(1, XDATA, add(CFA_XSP16, literal(-7)))
          CFI R7 load(1, XDATA, add(CFA_XSP16, literal(-6)))
          CFI ?RET_LOW load(1, XDATA, add(CFA_XSP16, literal(-5)))
          CFI ?RET_HIGH load(1, XDATA, add(CFA_XSP16, literal(-4)))
          CFI ?BRET_EXT load(1, XDATA, add(CFA_XSP16, literal(-3)))
          CFI DPL0 load(1, XDATA, add(CFA_XSP16, literal(-2)))
          CFI DPH0 load(1, XDATA, add(CFA_XSP16, literal(-1)))
          CFI CFA_SP SP+-2
          CFI CFA_XSP16 add(XSP16, 14)
          CFI Block cfiCond67 Using cfiCommon0
          CFI (cfiCond67) Function ZDO_AddrChangeIndicationCB
          CFI (cfiCond67) Conditional ??CrossCallReturnLabel_55
          CFI (cfiCond67) R6 load(1, XDATA, add(CFA_XSP16, literal(-14)))
          CFI (cfiCond67) VB load(1, XDATA, add(CFA_XSP16, literal(-13)))
          CFI (cfiCond67) V0 load(1, XDATA, add(CFA_XSP16, literal(-12)))
          CFI (cfiCond67) V1 load(1, XDATA, add(CFA_XSP16, literal(-11)))
          CFI (cfiCond67) V2 load(1, XDATA, add(CFA_XSP16, literal(-10)))
          CFI (cfiCond67) V3 load(1, XDATA, add(CFA_XSP16, literal(-9)))
          CFI (cfiCond67) V4 load(1, XDATA, add(CFA_XSP16, literal(-8)))
          CFI (cfiCond67) V5 load(1, XDATA, add(CFA_XSP16, literal(-7)))
          CFI (cfiCond67) R7 load(1, XDATA, add(CFA_XSP16, literal(-6)))
          CFI (cfiCond67) ?RET_LOW load(1, XDATA, add(CFA_XSP16, literal(-5)))
          CFI (cfiCond67) ?RET_HIGH load(1, XDATA, add(CFA_XSP16, literal(-4)))
          CFI (cfiCond67) ?BRET_EXT load(1, XDATA, add(CFA_XSP16, literal(-3)))
          CFI (cfiCond67) DPL0 load(1, XDATA, add(CFA_XSP16, literal(-2)))
          CFI (cfiCond67) DPH0 load(1, XDATA, add(CFA_XSP16, literal(-1)))
          CFI (cfiCond67) CFA_SP SP+-2
          CFI (cfiCond67) CFA_XSP16 add(XSP16, 14)
          CFI Block cfiCond68 Using cfiCommon0
          CFI (cfiCond68) Function ZDApp_LeaveUpdate
          CFI (cfiCond68) Conditional ??CrossCallReturnLabel_56
          CFI (cfiCond68) R6 load(1, XDATA, add(CFA_XSP16, literal(-15)))
          CFI (cfiCond68) VB load(1, XDATA, add(CFA_XSP16, literal(-14)))
          CFI (cfiCond68) V0 load(1, XDATA, add(CFA_XSP16, literal(-13)))
          CFI (cfiCond68) V1 load(1, XDATA, add(CFA_XSP16, literal(-12)))
          CFI (cfiCond68) V2 load(1, XDATA, add(CFA_XSP16, literal(-11)))
          CFI (cfiCond68) V3 load(1, XDATA, add(CFA_XSP16, literal(-10)))
          CFI (cfiCond68) V4 load(1, XDATA, add(CFA_XSP16, literal(-9)))
          CFI (cfiCond68) V5 load(1, XDATA, add(CFA_XSP16, literal(-8)))
          CFI (cfiCond68) V6 load(1, XDATA, add(CFA_XSP16, literal(-7)))
          CFI (cfiCond68) R7 load(1, XDATA, add(CFA_XSP16, literal(-6)))
          CFI (cfiCond68) ?RET_LOW load(1, XDATA, add(CFA_XSP16, literal(-5)))
          CFI (cfiCond68) ?RET_HIGH load(1, XDATA, add(CFA_XSP16, literal(-4)))
          CFI (cfiCond68) ?BRET_EXT load(1, XDATA, add(CFA_XSP16, literal(-3)))
          CFI (cfiCond68) DPL0 load(1, XDATA, add(CFA_XSP16, literal(-2)))
          CFI (cfiCond68) DPH0 load(1, XDATA, add(CFA_XSP16, literal(-1)))
          CFI (cfiCond68) CFA_SP SP+-2
          CFI (cfiCond68) CFA_XSP16 add(XSP16, 24)
          CFI Block cfiCond69 Using cfiCommon0
          CFI (cfiCond69) Function ZDApp_SecInit
          CFI (cfiCond69) Conditional ??CrossCallReturnLabel_57, ??CrossCallReturnLabel_22
          CFI (cfiCond69) R6 load(1, XDATA, add(CFA_XSP16, literal(-9)))
          CFI (cfiCond69) VB load(1, XDATA, add(CFA_XSP16, literal(-8)))
          CFI (cfiCond69) V0 load(1, XDATA, add(CFA_XSP16, literal(-7)))
          CFI (cfiCond69) R7 load(1, XDATA, add(CFA_XSP16, literal(-6)))
          CFI (cfiCond69) ?RET_LOW load(1, XDATA, add(CFA_XSP16, literal(-5)))
          CFI (cfiCond69) ?RET_HIGH load(1, XDATA, add(CFA_XSP16, literal(-4)))
          CFI (cfiCond69) ?BRET_EXT load(1, XDATA, add(CFA_XSP16, literal(-3)))
          CFI (cfiCond69) DPL0 load(1, XDATA, add(CFA_XSP16, literal(-2)))
          CFI (cfiCond69) DPH0 load(1, XDATA, add(CFA_XSP16, literal(-1)))
          CFI (cfiCond69) CFA_SP SP+-4
          CFI (cfiCond69) CFA_XSP16 add(XSP16, 25)
          CFI Block cfiCond70 Using cfiCommon0
          CFI (cfiCond70) Function ZDO_AddrChangeIndicationCB
          CFI (cfiCond70) Conditional ??CrossCallReturnLabel_57, ??CrossCallReturnLabel_23
          CFI (cfiCond70) R6 load(1, XDATA, add(CFA_XSP16, literal(-14)))
          CFI (cfiCond70) VB load(1, XDATA, add(CFA_XSP16, literal(-13)))
          CFI (cfiCond70) V0 load(1, XDATA, add(CFA_XSP16, literal(-12)))
          CFI (cfiCond70) V1 load(1, XDATA, add(CFA_XSP16, literal(-11)))
          CFI (cfiCond70) V2 load(1, XDATA, add(CFA_XSP16, literal(-10)))
          CFI (cfiCond70) V3 load(1, XDATA, add(CFA_XSP16, literal(-9)))
          CFI (cfiCond70) V4 load(1, XDATA, add(CFA_XSP16, literal(-8)))
          CFI (cfiCond70) V5 load(1, XDATA, add(CFA_XSP16, literal(-7)))
          CFI (cfiCond70) R7 load(1, XDATA, add(CFA_XSP16, literal(-6)))
          CFI (cfiCond70) ?RET_LOW load(1, XDATA, add(CFA_XSP16, literal(-5)))
          CFI (cfiCond70) ?RET_HIGH load(1, XDATA, add(CFA_XSP16, literal(-4)))
          CFI (cfiCond70) ?BRET_EXT load(1, XDATA, add(CFA_XSP16, literal(-3)))
          CFI (cfiCond70) DPL0 load(1, XDATA, add(CFA_XSP16, literal(-2)))
          CFI (cfiCond70) DPH0 load(1, XDATA, add(CFA_XSP16, literal(-1)))
          CFI (cfiCond70) CFA_SP SP+-4
          CFI (cfiCond70) CFA_XSP16 add(XSP16, 14)
          CFI Block cfiCond71 Using cfiCommon0
          CFI (cfiCond71) Function ZDO_AddrChangeIndicationCB
          CFI (cfiCond71) Conditional ??CrossCallReturnLabel_57, ??CrossCallReturnLabel_24
          CFI (cfiCond71) R6 load(1, XDATA, add(CFA_XSP16, literal(-14)))
          CFI (cfiCond71) VB load(1, XDATA, add(CFA_XSP16, literal(-13)))
          CFI (cfiCond71) V0 load(1, XDATA, add(CFA_XSP16, literal(-12)))
          CFI (cfiCond71) V1 load(1, XDATA, add(CFA_XSP16, literal(-11)))
          CFI (cfiCond71) V2 load(1, XDATA, add(CFA_XSP16, literal(-10)))
          CFI (cfiCond71) V3 load(1, XDATA, add(CFA_XSP16, literal(-9)))
          CFI (cfiCond71) V4 load(1, XDATA, add(CFA_XSP16, literal(-8)))
          CFI (cfiCond71) V5 load(1, XDATA, add(CFA_XSP16, literal(-7)))
          CFI (cfiCond71) R7 load(1, XDATA, add(CFA_XSP16, literal(-6)))
          CFI (cfiCond71) ?RET_LOW load(1, XDATA, add(CFA_XSP16, literal(-5)))
          CFI (cfiCond71) ?RET_HIGH load(1, XDATA, add(CFA_XSP16, literal(-4)))
          CFI (cfiCond71) ?BRET_EXT load(1, XDATA, add(CFA_XSP16, literal(-3)))
          CFI (cfiCond71) DPL0 load(1, XDATA, add(CFA_XSP16, literal(-2)))
          CFI (cfiCond71) DPH0 load(1, XDATA, add(CFA_XSP16, literal(-1)))
          CFI (cfiCond71) CFA_SP SP+-4
          CFI (cfiCond71) CFA_XSP16 add(XSP16, 14)
          CFI Block cfiPicker72 Using cfiCommon1
          CFI (cfiPicker72) NoFunction
          CFI (cfiPicker72) Picker
        MOVX    A,@DPTR
        MOV     DPH,A
        MOV     DPL,R0
        RET
          CFI (cfiCond66) CFA_SP SP+0
          CFI (cfiCond67) CFA_SP SP+0
          CFI (cfiCond68) CFA_SP SP+0
          CFI (cfiCond69) CFA_SP SP+-2
          CFI (cfiCond70) CFA_SP SP+-2
          CFI (cfiCond71) CFA_SP SP+-2
          CFI (cfiPicker72) CFA_SP SP+0
          CFI EndBlock cfiCond66
          CFI EndBlock cfiCond67
          CFI EndBlock cfiCond68
          CFI EndBlock cfiCond69
          CFI EndBlock cfiCond70
          CFI EndBlock cfiCond71
          CFI EndBlock cfiPicker72
// 2163 
// 2164 /*********************************************************************
// 2165  * @fn      ZDApp_NetworkDiscoveryReq
// 2166  *
// 2167  * @brief   Request a network discovery.
// 2168  *
// 2169  * @param  scanChannels -
// 2170  * @param  scanDuration -
// 2171  *
// 2172  * @return  ZStatus_t
// 2173  */

        RSEG BANKED_CODE:CODE:NOROOT(0)
// 2174 ZStatus_t ZDApp_NetworkDiscoveryReq( uint32 scanChannels, uint8 scanDuration)
ZDApp_NetworkDiscoveryReq:
          CFI Block cfiBlock73 Using cfiCommon0
          CFI Function ZDApp_NetworkDiscoveryReq
        CODE
// 2175 {
        FUNCALL ZDApp_NetworkDiscoveryReq, NLME_NetworkDiscoveryRequest
        LOCFRAME ISTACK, 0, STACK
        LOCFRAME PSTACK, 0, STACK
        LOCFRAME XSTACK, 12, STACK
        LOCFRAME IOVERLAY, 0, STATIC
        LOCFRAME DOVERLAY, 0, STATIC
        ARGFRAME ISTACK, 0, STACK
        ARGFRAME PSTACK, 0, STACK
        ARGFRAME XSTACK, 12, STACK
        ARGFRAME IOVERLAY, 0, STATIC
        ARGFRAME DOVERLAY, 0, STATIC
        REQUIRE ?V0
        REQUIRE ?V1
        REQUIRE ?V2
        REQUIRE ?V3
        MOV     A,#-0xc
        LCALL   ?BANKED_ENTER_XDATA
          CFI DPH0 load(1, XDATA, add(CFA_XSP16, literal(-1)))
          CFI DPL0 load(1, XDATA, add(CFA_XSP16, literal(-2)))
          CFI ?BRET_EXT load(1, XDATA, add(CFA_XSP16, literal(-3)))
          CFI ?RET_HIGH load(1, XDATA, add(CFA_XSP16, literal(-4)))
          CFI ?RET_LOW load(1, XDATA, add(CFA_XSP16, literal(-5)))
          CFI R7 load(1, XDATA, add(CFA_XSP16, literal(-6)))
          CFI V3 load(1, XDATA, add(CFA_XSP16, literal(-7)))
          CFI V2 load(1, XDATA, add(CFA_XSP16, literal(-8)))
          CFI V1 load(1, XDATA, add(CFA_XSP16, literal(-9)))
          CFI V0 load(1, XDATA, add(CFA_XSP16, literal(-10)))
          CFI VB load(1, XDATA, add(CFA_XSP16, literal(-11)))
          CFI R6 load(1, XDATA, add(CFA_XSP16, literal(-12)))
          CFI CFA_SP SP+0
          CFI CFA_XSP16 add(XSP16, 12)
        ; Saved register size: 12
        ; Auto size: 0
// 2176   // Setup optional filters - tbd
// 2177 
// 2178   // Request NLME network discovery
// 2179   return NLME_NetworkDiscoveryRequest(scanChannels, scanDuration);
        ; Setup parameters for call to function NLME_NetworkDiscoveryRequest
        LCALL   `??NLME_NetworkDiscoveryRequest::?relay`; Banked call to: NLME_NetworkDiscoveryRequest
        LJMP    ??Subroutine54_0 & 0xFFFF
// 2180 }
          CFI EndBlock cfiBlock73
// 2181 
// 2182 /*********************************************************************
// 2183  * @fn      ZDApp_JoinReq
// 2184  *
// 2185  * @brief   Request the device to join a parent in a network.
// 2186  *
// 2187  * @param   channel -
// 2188  * @param   panID -
// 2189  *
// 2190  * @return  ZStatus_t
// 2191  */

        RSEG BANKED_CODE:CODE:NOROOT(0)
// 2192 ZStatus_t ZDApp_JoinReq( uint8 channel, uint16 panID, uint8 *extendedPanID,
ZDApp_JoinReq:
          CFI Block cfiBlock74 Using cfiCommon0
          CFI Function ZDApp_JoinReq
        CODE
// 2193                          uint16 chosenParent, uint8 parentDepth, uint8 stackProfile )
// 2194 {
        FUNCALL ZDApp_JoinReq, ZDApp_NodeProfileSync
        LOCFRAME ISTACK, 0, STACK
        LOCFRAME PSTACK, 0, STACK
        LOCFRAME XSTACK, 12, STACK
        LOCFRAME IOVERLAY, 0, STATIC
        LOCFRAME DOVERLAY, 0, STATIC
        ARGFRAME ISTACK, 0, STACK
        ARGFRAME PSTACK, 0, STACK
        ARGFRAME XSTACK, 12, STACK
        ARGFRAME IOVERLAY, 0, STATIC
        ARGFRAME DOVERLAY, 0, STATIC
        FUNCALL ZDApp_JoinReq, NLME_JoinRequest
        LOCFRAME ISTACK, 0, STACK
        LOCFRAME PSTACK, 0, STACK
        LOCFRAME XSTACK, 16, STACK
        LOCFRAME IOVERLAY, 0, STATIC
        LOCFRAME DOVERLAY, 0, STATIC
        ARGFRAME ISTACK, 0, STACK
        ARGFRAME PSTACK, 0, STACK
        ARGFRAME XSTACK, 16, STACK
        ARGFRAME IOVERLAY, 0, STATIC
        ARGFRAME DOVERLAY, 0, STATIC
        REQUIRE ?V0
        REQUIRE ?V1
        REQUIRE ?V2
        REQUIRE ?V3
        MOV     A,#-0xc
        LCALL   ?BANKED_ENTER_XDATA
          CFI DPH0 load(1, XDATA, add(CFA_XSP16, literal(-1)))
          CFI DPL0 load(1, XDATA, add(CFA_XSP16, literal(-2)))
          CFI ?BRET_EXT load(1, XDATA, add(CFA_XSP16, literal(-3)))
          CFI ?RET_HIGH load(1, XDATA, add(CFA_XSP16, literal(-4)))
          CFI ?RET_LOW load(1, XDATA, add(CFA_XSP16, literal(-5)))
          CFI R7 load(1, XDATA, add(CFA_XSP16, literal(-6)))
          CFI V3 load(1, XDATA, add(CFA_XSP16, literal(-7)))
          CFI V2 load(1, XDATA, add(CFA_XSP16, literal(-8)))
          CFI V1 load(1, XDATA, add(CFA_XSP16, literal(-9)))
          CFI V0 load(1, XDATA, add(CFA_XSP16, literal(-10)))
          CFI VB load(1, XDATA, add(CFA_XSP16, literal(-11)))
          CFI R6 load(1, XDATA, add(CFA_XSP16, literal(-12)))
          CFI CFA_SP SP+0
          CFI CFA_XSP16 add(XSP16, 12)
        ; Saved register size: 12
        ; Auto size: 0
        MOV     ?V2,R1
        MOV     ?V0,R2
        MOV     ?V1,R3
        MOV     A,R4
        MOV     R6,A
        MOV     A,R5
        MOV     R7,A
// 2195   // Sync up the node with the stack profile (In the case where a pro device
// 2196   // joins a non-pro network, or verse versa)
// 2197   ZDApp_NodeProfileSync( stackProfile);
        ; Setup parameters for call to function ZDApp_NodeProfileSync
        MOV     A,#0xf
        LCALL   ?XSTACK_DISP0_8
        MOVX    A,@DPTR
        MOV     R1,A
        LCALL   `??ZDApp_NodeProfileSync::?relay`; Banked call to: ZDApp_NodeProfileSync
// 2198 
// 2199   // Request NLME Join Request
// 2200   return NLME_JoinRequest(extendedPanID, panID,channel,
// 2201                           ZDO_Config_Node_Descriptor.CapabilityFlags,
// 2202                           chosenParent, parentDepth);
        ; Setup parameters for call to function NLME_JoinRequest
        MOV     A,#0xe
        LCALL   ?XSTACK_DISP0_8
        MOVX    A,@DPTR
        MOV     ?V3,A
        MOV     R0,#?V3
        LCALL   ?PUSH_XSTACK_I_ONE
          CFI CFA_XSP16 add(XSP16, 13)
        MOV     A,#0xd
        LCALL   ?XSTACK_DISP0_8
        LCALL   ?PUSH_XSTACK8_X_TWO
          CFI CFA_XSP16 add(XSP16, 15)
        MOV     DPTR,#ZDO_Config_Node_Descriptor + 2
        MOVX    A,@DPTR
        MOV     ?V3,A
        MOV     R0,#?V3
        LCALL   ?PUSH_XSTACK_I_ONE
          CFI CFA_XSP16 add(XSP16, 16)
        MOV     R1,?V2
        MOV     R4,?V0
        MOV     R5,?V1
        MOV     A,R6
        MOV     R2,A
        MOV     A,R7
        MOV     R3,A
        LCALL   `??NLME_JoinRequest::?relay`; Banked call to: NLME_JoinRequest
          CFI EndBlock cfiBlock74
        REQUIRE ?Subroutine9
        ; // Fall through to label ?Subroutine9
// 2203 
// 2204 }

        RSEG BANKED_CODE:CODE:NOROOT(0)
?Subroutine9:
          CFI Block cfiBlock75 Using cfiCommon0
          CFI NoFunction
          CFI CFA_SP SP+0
          CFI CFA_XSP16 add(XSP16, 16)
          CFI VB load(1, XDATA, add(CFA_XSP16, literal(-11)))
          CFI DPL0 load(1, XDATA, add(CFA_XSP16, literal(-2)))
          CFI DPH0 load(1, XDATA, add(CFA_XSP16, literal(-1)))
          CFI R6 load(1, XDATA, add(CFA_XSP16, literal(-12)))
          CFI R7 load(1, XDATA, add(CFA_XSP16, literal(-6)))
          CFI V0 load(1, XDATA, add(CFA_XSP16, literal(-10)))
          CFI V1 load(1, XDATA, add(CFA_XSP16, literal(-9)))
          CFI V2 load(1, XDATA, add(CFA_XSP16, literal(-8)))
          CFI V3 load(1, XDATA, add(CFA_XSP16, literal(-7)))
          CFI ?BRET_EXT load(1, XDATA, add(CFA_XSP16, literal(-3)))
          CFI ?RET_HIGH load(1, XDATA, add(CFA_XSP16, literal(-4)))
          CFI ?RET_LOW load(1, XDATA, add(CFA_XSP16, literal(-5)))
        MOV     A,#0x4
        LJMP    ??Subroutine53_0 & 0xFFFF
          CFI EndBlock cfiBlock75
// 2205 
// 2206 /*********************************************************************
// 2207  * @fn      ZDApp_DeviceConfigured
// 2208  *
// 2209  * @brief   Check to see if the local device is configured (i.e., part
// 2210  *          of a network).
// 2211  *
// 2212  * @param   none
// 2213  *
// 2214  * @return  TRUE if configured. FALSE, otherwise.
// 2215  */

        RSEG BANKED_CODE:CODE:NOROOT(0)
// 2216 uint8 ZDApp_DeviceConfigured( void )
ZDApp_DeviceConfigured:
          CFI Block cfiBlock76 Using cfiCommon0
          CFI Function ZDApp_DeviceConfigured
        CODE
// 2217 {
        FUNCALL ZDApp_DeviceConfigured, osal_nv_read
        LOCFRAME ISTACK, 0, STACK
        LOCFRAME PSTACK, 0, STACK
        LOCFRAME XSTACK, 16, STACK
        LOCFRAME IOVERLAY, 0, STATIC
        LOCFRAME DOVERLAY, 0, STATIC
        ARGFRAME ISTACK, 0, STACK
        ARGFRAME PSTACK, 0, STACK
        ARGFRAME XSTACK, 16, STACK
        ARGFRAME IOVERLAY, 0, STATIC
        ARGFRAME DOVERLAY, 0, STATIC
        REQUIRE ?V0
        REQUIRE ?V1
        MOV     A,#-0xa
        LCALL   ?BANKED_ENTER_XDATA
          CFI DPH0 load(1, XDATA, add(CFA_XSP16, literal(-1)))
          CFI DPL0 load(1, XDATA, add(CFA_XSP16, literal(-2)))
          CFI ?BRET_EXT load(1, XDATA, add(CFA_XSP16, literal(-3)))
          CFI ?RET_HIGH load(1, XDATA, add(CFA_XSP16, literal(-4)))
          CFI ?RET_LOW load(1, XDATA, add(CFA_XSP16, literal(-5)))
          CFI R7 load(1, XDATA, add(CFA_XSP16, literal(-6)))
          CFI V1 load(1, XDATA, add(CFA_XSP16, literal(-7)))
          CFI V0 load(1, XDATA, add(CFA_XSP16, literal(-8)))
          CFI VB load(1, XDATA, add(CFA_XSP16, literal(-9)))
          CFI R6 load(1, XDATA, add(CFA_XSP16, literal(-10)))
          CFI CFA_SP SP+0
          CFI CFA_XSP16 add(XSP16, 10)
        ; Saved register size: 10
        ; Auto size: 2
        MOV     A,#-0x2
        LCALL   ?ALLOC_XSTACK8
          CFI CFA_XSP16 add(XSP16, 12)
// 2218   uint16 nwkAddr = INVALID_NODE_ADDR;
        MOV     DPL,?XSP + 0
        MOV     DPH,?XSP + 1
        MOV     A,#-0x2
        MOVX    @DPTR,A
        INC     DPTR
        INC     A
        MOVX    @DPTR,A
// 2219 
// 2220   osal_nv_read( ZCD_NV_NIB, osal_offsetof( nwkIB_t, nwkDevAddress ),
// 2221                 sizeof( uint16), &nwkAddr );
        ; Setup parameters for call to function osal_nv_read
        MOV     R0,?XSP + 0
        MOV     R1,?XSP + 1
        MOV     ?V0,R0
        MOV     ?V1,R1
        MOV     R0,#?V0
        LCALL   ?PUSH_XSTACK_I_TWO
          CFI CFA_XSP16 add(XSP16, 14)
        MOV     ?V0,#0x2
        MOV     ?V1,#0x0
        MOV     R0,#?V0
        LCALL   ?PUSH_XSTACK_I_TWO
          CFI CFA_XSP16 add(XSP16, 16)
        MOV     R4,#0x14
        MOV     R5,#0x0
        MOV     R2,#0x21
        MOV     R3,#0x0
        LCALL   `??osal_nv_read::?relay`; Banked call to: osal_nv_read
        MOV     A,#0x4
        LCALL   ?DEALLOC_XSTACK8
          CFI CFA_XSP16 add(XSP16, 12)
// 2222 
// 2223   // Does the NIB have anything more than default?
// 2224   return ( nwkAddr == INVALID_NODE_ADDR ? FALSE : TRUE );
        MOV     DPL,?XSP + 0
        MOV     DPH,?XSP + 1
        MOVX    A,@DPTR
        XRL     A,#0xfe
        JNZ     ??ZDApp_DeviceConfigured_0
        INC     DPTR
        MOVX    A,@DPTR
        CPL     A
??ZDApp_DeviceConfigured_0:
        JNZ     ??ZDApp_DeviceConfigured_1
        MOV     R1,#0x0
        SJMP    ??ZDApp_DeviceConfigured_2
??ZDApp_DeviceConfigured_1:
        MOV     R1,#0x1
??ZDApp_DeviceConfigured_2:
        MOV     A,#0x2
        LJMP    ??Subroutine49_0 & 0xFFFF
// 2225 }
          CFI EndBlock cfiBlock76
// 2226 
// 2227 /*********************************************************************
// 2228  * CALLBACK FUNCTIONS
// 2229  */
// 2230 
// 2231 
// 2232 /*********************************************************************
// 2233  * @fn      ZDApp_SendEventMsg()
// 2234  *
// 2235  * @brief
// 2236  *
// 2237  *   Sends a Network Join message
// 2238  *
// 2239  * @param  cmd - command ID
// 2240  * @param  len - length (in bytes) of the buf field
// 2241  * @param  buf - buffer for the rest of the message.
// 2242  *
// 2243  * @return  none
// 2244  */

        RSEG BANKED_CODE:CODE:NOROOT(0)
// 2245 void ZDApp_SendEventMsg( uint8 cmd, uint8 len, uint8 *buf )
ZDApp_SendEventMsg:
          CFI Block cfiBlock77 Using cfiCommon0
          CFI Function ZDApp_SendEventMsg
        CODE
// 2246 {
        FUNCALL ZDApp_SendEventMsg, ZDApp_SendMsg
        LOCFRAME ISTACK, 0, STACK
        LOCFRAME PSTACK, 0, STACK
        LOCFRAME XSTACK, 9, STACK
        LOCFRAME IOVERLAY, 0, STATIC
        LOCFRAME DOVERLAY, 0, STATIC
        ARGFRAME ISTACK, 0, STACK
        ARGFRAME PSTACK, 0, STACK
        ARGFRAME XSTACK, 9, STACK
        ARGFRAME IOVERLAY, 0, STATIC
        ARGFRAME DOVERLAY, 0, STATIC
        MOV     A,#-0x9
        LCALL   ?BANKED_ENTER_XDATA
          CFI DPH0 load(1, XDATA, add(CFA_XSP16, literal(-1)))
          CFI DPL0 load(1, XDATA, add(CFA_XSP16, literal(-2)))
          CFI ?BRET_EXT load(1, XDATA, add(CFA_XSP16, literal(-3)))
          CFI ?RET_HIGH load(1, XDATA, add(CFA_XSP16, literal(-4)))
          CFI ?RET_LOW load(1, XDATA, add(CFA_XSP16, literal(-5)))
          CFI R7 load(1, XDATA, add(CFA_XSP16, literal(-6)))
          CFI V0 load(1, XDATA, add(CFA_XSP16, literal(-7)))
          CFI VB load(1, XDATA, add(CFA_XSP16, literal(-8)))
          CFI R6 load(1, XDATA, add(CFA_XSP16, literal(-9)))
          CFI CFA_SP SP+0
          CFI CFA_XSP16 add(XSP16, 9)
        ; Saved register size: 9
        ; Auto size: 0
        MOV     A,R1
        MOV     R6,A
        MOV     A,R2
// 2247   ZDApp_SendMsg( ZDAppTaskID, cmd, len, buf );
        ; Setup parameters for call to function ZDApp_SendMsg
        MOV     R3,A
        MOV     A,R6
        MOV     R2,A
        MOV     DPTR,#ZDAppTaskID
        MOVX    A,@DPTR
        MOV     R1,A
        LCALL   `??ZDApp_SendMsg::?relay`; Banked call to: ZDApp_SendMsg
// 2248 }
        LJMP    ??Subroutine46_0 & 0xFFFF
          CFI EndBlock cfiBlock77
// 2249 
// 2250 /*********************************************************************
// 2251  * @fn      ZDApp_SendMsg()
// 2252  *
// 2253  * @brief   Sends a OSAL message
// 2254  *
// 2255  * @param  taskID - Where to send the message
// 2256  * @param  cmd - command ID
// 2257  * @param  len - length (in bytes) of the buf field
// 2258  * @param  buf - buffer for the rest of the message.
// 2259  *
// 2260  * @return  none
// 2261  */

        RSEG BANKED_CODE:CODE:NOROOT(0)
// 2262 void ZDApp_SendMsg( uint8 taskID, uint8 cmd, uint8 len, uint8 *buf )
ZDApp_SendMsg:
          CFI Block cfiBlock78 Using cfiCommon0
          CFI Function ZDApp_SendMsg
        CODE
// 2263 {
        FUNCALL ZDApp_SendMsg, osal_msg_allocate
        LOCFRAME ISTACK, 0, STACK
        LOCFRAME PSTACK, 0, STACK
        LOCFRAME XSTACK, 19, STACK
        LOCFRAME IOVERLAY, 0, STATIC
        LOCFRAME DOVERLAY, 0, STATIC
        ARGFRAME ISTACK, 0, STACK
        ARGFRAME PSTACK, 0, STACK
        ARGFRAME XSTACK, 19, STACK
        ARGFRAME IOVERLAY, 0, STATIC
        ARGFRAME DOVERLAY, 0, STATIC
        FUNCALL ZDApp_SendMsg, osal_memcpy
        LOCFRAME ISTACK, 0, STACK
        LOCFRAME PSTACK, 0, STACK
        LOCFRAME XSTACK, 22, STACK
        LOCFRAME IOVERLAY, 0, STATIC
        LOCFRAME DOVERLAY, 0, STATIC
        ARGFRAME ISTACK, 0, STACK
        ARGFRAME PSTACK, 0, STACK
        ARGFRAME XSTACK, 22, STACK
        ARGFRAME IOVERLAY, 0, STATIC
        ARGFRAME DOVERLAY, 0, STATIC
        FUNCALL ZDApp_SendMsg, osal_msg_send
        LOCFRAME ISTACK, 0, STACK
        LOCFRAME PSTACK, 0, STACK
        LOCFRAME XSTACK, 19, STACK
        LOCFRAME IOVERLAY, 0, STATIC
        LOCFRAME DOVERLAY, 0, STATIC
        ARGFRAME ISTACK, 0, STACK
        ARGFRAME PSTACK, 0, STACK
        ARGFRAME XSTACK, 19, STACK
        ARGFRAME IOVERLAY, 0, STATIC
        ARGFRAME DOVERLAY, 0, STATIC
        REQUIRE ?V0
        REQUIRE ?V1
        REQUIRE ?V2
        REQUIRE ?V3
        REQUIRE ?V4
        REQUIRE ?V5
        REQUIRE ?V6
        REQUIRE ?V8
        REQUIRE ?V9
        REQUIRE ?V10
        MOV     A,#-0x13
        LCALL   ?BANKED_ENTER_XDATA
          CFI DPH0 load(1, XDATA, add(CFA_XSP16, literal(-1)))
          CFI DPL0 load(1, XDATA, add(CFA_XSP16, literal(-2)))
          CFI ?BRET_EXT load(1, XDATA, add(CFA_XSP16, literal(-3)))
          CFI ?RET_HIGH load(1, XDATA, add(CFA_XSP16, literal(-4)))
          CFI ?RET_LOW load(1, XDATA, add(CFA_XSP16, literal(-5)))
          CFI R7 load(1, XDATA, add(CFA_XSP16, literal(-6)))
          CFI V10 load(1, XDATA, add(CFA_XSP16, literal(-7)))
          CFI V9 load(1, XDATA, add(CFA_XSP16, literal(-8)))
          CFI V8 load(1, XDATA, add(CFA_XSP16, literal(-9)))
          CFI V7 load(1, XDATA, add(CFA_XSP16, literal(-10)))
          CFI V6 load(1, XDATA, add(CFA_XSP16, literal(-11)))
          CFI V5 load(1, XDATA, add(CFA_XSP16, literal(-12)))
          CFI V4 load(1, XDATA, add(CFA_XSP16, literal(-13)))
          CFI V3 load(1, XDATA, add(CFA_XSP16, literal(-14)))
          CFI V2 load(1, XDATA, add(CFA_XSP16, literal(-15)))
          CFI V1 load(1, XDATA, add(CFA_XSP16, literal(-16)))
          CFI V0 load(1, XDATA, add(CFA_XSP16, literal(-17)))
          CFI VB load(1, XDATA, add(CFA_XSP16, literal(-18)))
          CFI R6 load(1, XDATA, add(CFA_XSP16, literal(-19)))
          CFI CFA_SP SP+0
          CFI CFA_XSP16 add(XSP16, 19)
        ; Saved register size: 19
        ; Auto size: 0
        MOV     ?V4,R1
        MOV     ?V6,R2
        MOV     ?V5,R3
        MOV     ?V2,R4
        MOV     ?V3,R5
// 2264   osal_event_hdr_t *msgPtr;
// 2265 
// 2266   // Send the address to the task
// 2267   msgPtr = (osal_event_hdr_t *)osal_msg_allocate( len );
        MOV     R6,?V5
        ; Setup parameters for call to function osal_msg_allocate
        MOV     A,R6
        MOV     R2,A
        MOV     R3,#0x0
        LCALL   `??osal_msg_allocate::?relay`; Banked call to: osal_msg_allocate
        MOV     ?V0,R2
        MOV     ?V1,R3
// 2268   if ( msgPtr )
        MOV     A,R2
        ORL     A,?V1
        JZ      ??ZDApp_SendMsg_0
// 2269   {
// 2270     if ( (len > 0) && (buf != NULL) )
        MOV     A,R6
        JZ      ??ZDApp_SendMsg_1
        MOV     A,?V2
        ORL     A,?V3
        JZ      ??ZDApp_SendMsg_1
// 2271       osal_memcpy( msgPtr, buf, len );
        ; Setup parameters for call to function osal_memcpy
        MOV     ?V8,?V2
        MOV     ?V9,?V3
        MOV     ?V10,#0x0
        MOV     R0,#?V8
        LCALL   ?PUSH_XSTACK_I_THREE
          CFI CFA_XSP16 add(XSP16, 22)
        MOV     A,R6
        MOV     R4,A
        MOV     R5,#0x0
        LCALL   `??osal_memcpy::?relay`; Banked call to: osal_memcpy
        MOV     A,#0x3
        LCALL   ?DEALLOC_XSTACK8
          CFI CFA_XSP16 add(XSP16, 19)
// 2272 
// 2273     msgPtr->event = cmd;
??ZDApp_SendMsg_1:
        MOV     DPL,?V0
        MOV     DPH,?V1
        MOV     A,?V6
        MOVX    @DPTR,A
// 2274     osal_msg_send( taskID, (uint8 *)msgPtr );
        ; Setup parameters for call to function osal_msg_send
        MOV     R2,?V0
        MOV     R3,?V1
        MOV     R1,?V4
        LCALL   `??osal_msg_send::?relay`; Banked call to: osal_msg_send
// 2275   }
// 2276 }
??ZDApp_SendMsg_0:
        MOV     R7,#0xb
        LJMP    ?BANKED_LEAVE_XDATA
          CFI R6 SameValue
          CFI VB SameValue
          CFI V0 SameValue
          CFI V1 SameValue
          CFI V2 SameValue
          CFI V3 SameValue
          CFI V4 SameValue
          CFI V5 SameValue
          CFI V6 SameValue
          CFI V7 SameValue
          CFI V8 SameValue
          CFI V9 SameValue
          CFI V10 SameValue
          CFI R7 SameValue
          CFI ?RET_LOW Frame(CFA_SP, 1)
          CFI ?RET_HIGH Frame(CFA_SP, 2)
          CFI ?BRET_EXT Frame(CFA_SP, 3)
          CFI DPL0 SameValue
          CFI DPH0 SameValue
          CFI CFA_SP SP+-3
          CFI CFA_XSP16 XSP16+0
          CFI EndBlock cfiBlock78
// 2277 
// 2278 /*********************************************************************
// 2279  * Call Back Functions from NWK  - API
// 2280  */
// 2281 
// 2282 /*********************************************************************
// 2283  * @fn          ZDO_NetworkDiscoveryConfirmCB
// 2284  *
// 2285  * @brief       This function returns a choice of PAN to join.
// 2286  *
// 2287  * @param       status - return status of the nwk discovery confirm
// 2288  *
// 2289  * @return      ZStatus_t
// 2290  */

        RSEG BANKED_CODE:CODE:NOROOT(0)
// 2291 ZStatus_t ZDO_NetworkDiscoveryConfirmCB(uint8 status)
ZDO_NetworkDiscoveryConfirmCB:
          CFI Block cfiBlock79 Using cfiCommon0
          CFI Function ZDO_NetworkDiscoveryConfirmCB
        CODE
// 2292 {
        FUNCALL ZDO_NetworkDiscoveryConfirmCB, ZDApp_SendMsg
        LOCFRAME ISTACK, 2, STACK
        LOCFRAME PSTACK, 0, STACK
        LOCFRAME XSTACK, 3, STACK
        LOCFRAME IOVERLAY, 0, STATIC
        LOCFRAME DOVERLAY, 0, STATIC
        ARGFRAME ISTACK, 2, STACK
        ARGFRAME PSTACK, 0, STACK
        ARGFRAME XSTACK, 3, STACK
        ARGFRAME IOVERLAY, 0, STATIC
        ARGFRAME DOVERLAY, 0, STATIC
        PUSH    DPL
          CFI DPL0 Frame(CFA_SP, 4)
          CFI CFA_SP SP+-4
        PUSH    DPH
          CFI DPH0 Frame(CFA_SP, 5)
          CFI CFA_SP SP+-5
        ; Saved register size: 2
        ; Auto size: 3
        MOV     A,#-0x3
        LCALL   ?ALLOC_XSTACK8
          CFI CFA_XSP16 add(XSP16, 3)
        MOV     A,R1
        MOV     DPL,?XSP + 0
        MOV     DPH,?XSP + 1
        MOVX    @DPTR,A
// 2293   osal_event_hdr_t msg;
// 2294 
// 2295   // If Scan is initiated by ZDO_MGMT_NWK_DISC_REQ
// 2296   // Send ZDO_MGMT_NWK_DISC_RSP back
// 2297 #if defined ( ZDO_MGMT_NWKDISC_RESPONSE )
// 2298   if ( zdappMgmtNwkDiscReqInProgress )
// 2299   {
// 2300     zdappMgmtNwkDiscReqInProgress = false;
// 2301     ZDO_FinishProcessingMgmtNwkDiscReq();
// 2302   }
// 2303   else
// 2304 #endif
// 2305   {
// 2306     // Pass the confirm to another task if it registers the callback
// 2307     // Otherwise, pass the confirm to ZDApp.
// 2308     if (zdoCBFunc[ZDO_NWK_DISCOVERY_CNF_CBID] != NULL )
        MOV     DPTR,#zdoCBFunc + 4
        LCALL   ?Subroutine18 & 0xFFFF
??CrossCallReturnLabel_14:
        JZ      ??ZDO_NetworkDiscoveryConfirmCB_0
// 2309     {
// 2310       zdoCBFunc[ZDO_NWK_DISCOVERY_CNF_CBID]( (void*)&status );
        ; Setup parameters for indirect call
        MOV     R2,?XSP + 0
        MOV     R3,?XSP + 1
        LCALL   ?CALL_IND
        SJMP    ??ZDO_NetworkDiscoveryConfirmCB_1
// 2311     }
// 2312     else
// 2313     {
// 2314       // Otherwise, send scan confirm to ZDApp task to proceed
// 2315       msg.status = ZDO_SUCCESS;
??ZDO_NetworkDiscoveryConfirmCB_0:
        MOV     A,#0x2
        LCALL   ?XSTACK_DISP0_8
        CLR     A
        MOVX    @DPTR,A
// 2316       ZDApp_SendMsg( ZDAppTaskID, ZDO_NWK_DISC_CNF, sizeof(osal_event_hdr_t), (uint8 *)&msg );
        ; Setup parameters for call to function ZDApp_SendMsg
        INC     A
        LCALL   ?XSTACK_DISP102_8
        MOV     R3,#0x2
        MOV     R2,#0x1
        MOV     DPTR,#ZDAppTaskID
        MOVX    A,@DPTR
        MOV     R1,A
        LCALL   `??ZDApp_SendMsg::?relay`; Banked call to: ZDApp_SendMsg
// 2317     }
// 2318   }
// 2319   return (ZSuccess);
??ZDO_NetworkDiscoveryConfirmCB_1:
        MOV     R1,#0x0
        MOV     A,#0x3
        LJMP    ?Subroutine3 & 0xFFFF
// 2320 }  // ZDO_NetworkDiscoveryConfirmCB
          CFI EndBlock cfiBlock79
// 2321 
// 2322 /*********************************************************************
// 2323  * @fn          ZDApp_NwkDescListProcessing
// 2324  *
// 2325  * @brief       This function process the network discovery result and select
// 2326  *              a parent device to join itself.
// 2327  *
// 2328  * @param       none
// 2329  *
// 2330  * @return      ZStatus_t
// 2331  */
// 2332 #define STACK_PROFILE_MAX 2

        RSEG BANKED_CODE:CODE:NOROOT(0)
// 2333 networkDesc_t* ZDApp_NwkDescListProcessing(void)
ZDApp_NwkDescListProcessing:
          CFI Block cfiBlock80 Using cfiCommon0
          CFI Function ZDApp_NwkDescListProcessing
        CODE
// 2334 {
        FUNCALL ZDApp_NwkDescListProcessing, nwk_getNwkDescList
        LOCFRAME ISTACK, 0, STACK
        LOCFRAME PSTACK, 0, STACK
        LOCFRAME XSTACK, 14, STACK
        LOCFRAME IOVERLAY, 0, STATIC
        LOCFRAME DOVERLAY, 0, STATIC
        ARGFRAME ISTACK, 0, STACK
        ARGFRAME PSTACK, 0, STACK
        ARGFRAME XSTACK, 14, STACK
        ARGFRAME IOVERLAY, 0, STATIC
        ARGFRAME DOVERLAY, 0, STATIC
        FUNCALL ZDApp_NwkDescListProcessing, nwk_getNwkDescList
        LOCFRAME ISTACK, 0, STACK
        LOCFRAME PSTACK, 0, STACK
        LOCFRAME XSTACK, 14, STACK
        LOCFRAME IOVERLAY, 0, STATIC
        LOCFRAME DOVERLAY, 0, STATIC
        ARGFRAME ISTACK, 0, STACK
        ARGFRAME PSTACK, 0, STACK
        ARGFRAME XSTACK, 14, STACK
        ARGFRAME IOVERLAY, 0, STATIC
        ARGFRAME DOVERLAY, 0, STATIC
        FUNCALL ZDApp_NwkDescListProcessing, nwk_ExtPANIDValid
        LOCFRAME ISTACK, 0, STACK
        LOCFRAME PSTACK, 0, STACK
        LOCFRAME XSTACK, 14, STACK
        LOCFRAME IOVERLAY, 0, STATIC
        LOCFRAME DOVERLAY, 0, STATIC
        ARGFRAME ISTACK, 0, STACK
        ARGFRAME PSTACK, 0, STACK
        ARGFRAME XSTACK, 14, STACK
        ARGFRAME IOVERLAY, 0, STATIC
        ARGFRAME DOVERLAY, 0, STATIC
        FUNCALL ZDApp_NwkDescListProcessing, sAddrExtCmp
        LOCFRAME ISTACK, 0, STACK
        LOCFRAME PSTACK, 0, STACK
        LOCFRAME XSTACK, 14, STACK
        LOCFRAME IOVERLAY, 0, STATIC
        LOCFRAME DOVERLAY, 0, STATIC
        ARGFRAME ISTACK, 0, STACK
        ARGFRAME PSTACK, 0, STACK
        ARGFRAME XSTACK, 14, STACK
        ARGFRAME IOVERLAY, 0, STATIC
        ARGFRAME DOVERLAY, 0, STATIC
        FUNCALL ZDApp_NwkDescListProcessing, nwk_desc_list_free
        LOCFRAME ISTACK, 0, STACK
        LOCFRAME PSTACK, 0, STACK
        LOCFRAME XSTACK, 14, STACK
        LOCFRAME IOVERLAY, 0, STATIC
        LOCFRAME DOVERLAY, 0, STATIC
        ARGFRAME ISTACK, 0, STACK
        ARGFRAME PSTACK, 0, STACK
        ARGFRAME XSTACK, 14, STACK
        ARGFRAME IOVERLAY, 0, STATIC
        ARGFRAME DOVERLAY, 0, STATIC
        REQUIRE ?V0
        REQUIRE ?V1
        REQUIRE ?V2
        REQUIRE ?V3
        REQUIRE ?V4
        REQUIRE ?V5
        MOV     A,#-0xe
        LCALL   ?BANKED_ENTER_XDATA
          CFI DPH0 load(1, XDATA, add(CFA_XSP16, literal(-1)))
          CFI DPL0 load(1, XDATA, add(CFA_XSP16, literal(-2)))
          CFI ?BRET_EXT load(1, XDATA, add(CFA_XSP16, literal(-3)))
          CFI ?RET_HIGH load(1, XDATA, add(CFA_XSP16, literal(-4)))
          CFI ?RET_LOW load(1, XDATA, add(CFA_XSP16, literal(-5)))
          CFI R7 load(1, XDATA, add(CFA_XSP16, literal(-6)))
          CFI V5 load(1, XDATA, add(CFA_XSP16, literal(-7)))
          CFI V4 load(1, XDATA, add(CFA_XSP16, literal(-8)))
          CFI V3 load(1, XDATA, add(CFA_XSP16, literal(-9)))
          CFI V2 load(1, XDATA, add(CFA_XSP16, literal(-10)))
          CFI V1 load(1, XDATA, add(CFA_XSP16, literal(-11)))
          CFI V0 load(1, XDATA, add(CFA_XSP16, literal(-12)))
          CFI VB load(1, XDATA, add(CFA_XSP16, literal(-13)))
          CFI R6 load(1, XDATA, add(CFA_XSP16, literal(-14)))
          CFI CFA_SP SP+0
          CFI CFA_XSP16 add(XSP16, 14)
        ; Saved register size: 14
        ; Auto size: 0
// 2335   networkDesc_t *pNwkDesc;
// 2336   uint8 i, ResultCount = 0;
        MOV     ?V1,#0x0
// 2337   uint8 stackProfile;
// 2338   uint8 stackProfilePro;
// 2339   uint8 selected;
// 2340 
// 2341   // Count the number of nwk descriptors in the list
// 2342   pNwkDesc = nwk_getNwkDescList();
        ; Setup parameters for call to function nwk_getNwkDescList
        LCALL   `??nwk_getNwkDescList::?relay`; Banked call to: nwk_getNwkDescList
        MOV     ?V2,R2
        MOV     ?V3,R3
        MOV     R6,?V2
        MOV     R7,?V3
        SJMP    ??CrossCallReturnLabel_67
// 2343   while (pNwkDesc)
// 2344   {
// 2345     ResultCount++;
??ZDApp_NwkDescListProcessing_0:
        INC     ?V1
// 2346     pNwkDesc = pNwkDesc->nextDesc;
        LCALL   ?Subroutine25 & 0xFFFF
// 2347   }
??CrossCallReturnLabel_67:
        MOV     A,R6
        ORL     A,R7
        JNZ     ??ZDApp_NwkDescListProcessing_0
// 2348 
// 2349   // process discovery results
// 2350   stackProfilePro = FALSE;
        MOV     ?V0,#0x0
// 2351   selected = FALSE;
// 2352 
// 2353 
// 2354   for ( stackProfile = 0; stackProfile < STACK_PROFILE_MAX; stackProfile++ )
        MOV     ?V2,#0x0
// 2355   {
// 2356     pNwkDesc = nwk_getNwkDescList();
??ZDApp_NwkDescListProcessing_1:
        ; Setup parameters for call to function nwk_getNwkDescList
        LCALL   `??nwk_getNwkDescList::?relay`; Banked call to: nwk_getNwkDescList
        MOV     ?V4,R2
        MOV     ?V5,R3
        MOV     R6,?V4
        MOV     R7,?V5
// 2357     for ( i = 0; i < ResultCount; i++, pNwkDesc = pNwkDesc->nextDesc )
        MOV     ?V3,#0x0
        SJMP    ??CrossCallReturnLabel_68
// 2358     {
// 2359        if ( nwk_ExtPANIDValid( ZDO_UseExtendedPANID ) == true )
// 2360       {
// 2361         // If the extended Pan ID is commissioned to a non zero value
// 2362         // Only join the Pan that has match EPID
// 2363         if ( osal_ExtAddrEqual( ZDO_UseExtendedPANID, pNwkDesc->extendedPANID) == false )
// 2364           continue;
// 2365 
// 2366       }
// 2367       else if ( zgConfigPANID != 0xFFFF )
// 2368       {
// 2369         // PAN Id is preconfigured. check if it matches
// 2370         if ( pNwkDesc->panId != zgConfigPANID )
// 2371           continue;
// 2372       }
// 2373 
// 2374       if ( pNwkDesc->chosenRouter != _NIB.nwkCoordAddress || _NIB.nwkCoordAddress == INVALID_NODE_ADDR )
// 2375       {
// 2376         // check that network is allowing joining
// 2377         if ( ZSTACK_ROUTER_BUILD )
// 2378         {
// 2379           if ( stackProfilePro == FALSE )
// 2380           {
// 2381             if ( !pNwkDesc->routerCapacity )
// 2382             {
// 2383               continue;
// 2384             }
// 2385           }
// 2386           else
// 2387           {
// 2388             if ( !pNwkDesc->deviceCapacity )
// 2389             {
// 2390               continue;
// 2391             }
// 2392           }
// 2393         }
// 2394         else if ( ZSTACK_END_DEVICE_BUILD )
// 2395         {
// 2396           if ( !pNwkDesc->deviceCapacity )
// 2397           {
// 2398             continue;
// 2399           }
// 2400         }
// 2401       }
// 2402 
// 2403       // check version of zigbee protocol
// 2404       if ( pNwkDesc->version != _NIB.nwkProtocolVersion )
// 2405         continue;
// 2406 
// 2407       // check version of stack profile
// 2408       if ( pNwkDesc->stackProfile != zgStackProfile  )
// 2409       {
// 2410         if ( ((zgStackProfile == HOME_CONTROLS) && (pNwkDesc->stackProfile == ZIGBEEPRO_PROFILE))
// 2411             || ((zgStackProfile == ZIGBEEPRO_PROFILE) && (pNwkDesc->stackProfile == HOME_CONTROLS))  )
??ZDApp_NwkDescListProcessing_2:
        MOVX    A,@DPTR
        XRL     A,#0x2
        JNZ     ??ZDApp_NwkDescListProcessing_3
        MOV     A,#0x1
        XRL     A,R0
        JNZ     ??ZDApp_NwkDescListProcessing_3
// 2412         {
// 2413           stackProfilePro = TRUE;
??ZDApp_NwkDescListProcessing_4:
        MOV     ?V0,#0x1
// 2414         }
// 2415 
// 2416         if ( stackProfile == 0 )
??ZDApp_NwkDescListProcessing_3:
        MOV     A,?V2
        JZ      $+5
        LJMP    ??ZDApp_NwkDescListProcessing_5 & 0xFFFF
??ZDApp_NwkDescListProcessing_6:
        INC     ?V3
        LCALL   ?Subroutine25 & 0xFFFF
??CrossCallReturnLabel_68:
        MOV     A,?V3
        CLR     C
        SUBB    A,?V1
        JC      $+5
        LJMP    ??ZDApp_NwkDescListProcessing_7 & 0xFFFF
        ; Setup parameters for call to function nwk_ExtPANIDValid
        MOV     R2,#ZDO_UseExtendedPANID & 0xff
        MOV     R3,#(ZDO_UseExtendedPANID >> 8) & 0xff
        LCALL   `??nwk_ExtPANIDValid::?relay`; Banked call to: nwk_ExtPANIDValid
        MOV     A,R1
        XRL     A,#0x1
        JNZ     ??ZDApp_NwkDescListProcessing_8
        ; Setup parameters for call to function sAddrExtCmp
        MOV     A,R6
        ADD     A,#0xb
        MOV     R4,A
        CLR     A
        ADDC    A,R7
        MOV     R5,A
        MOV     R2,#ZDO_UseExtendedPANID & 0xff
        MOV     R3,#(ZDO_UseExtendedPANID >> 8) & 0xff
        LCALL   `??sAddrExtCmp::?relay`; Banked call to: sAddrExtCmp
        MOV     A,R1
        JNZ     ??ZDApp_NwkDescListProcessing_9
        SJMP    ??ZDApp_NwkDescListProcessing_6
??ZDApp_NwkDescListProcessing_8:
        MOV     DPTR,#zgConfigPANID
        MOVX    A,@DPTR
        CPL     A
        JNZ     ??ZDApp_NwkDescListProcessing_10
        INC     DPTR
        MOVX    A,@DPTR
        CPL     A
??ZDApp_NwkDescListProcessing_10:
        JZ      ??ZDApp_NwkDescListProcessing_9
        LCALL   ?Subroutine24 & 0xFFFF
??CrossCallReturnLabel_81:
        MOV     DPTR,#zgConfigPANID
        MOVX    A,@DPTR
        XRL     A,R0
        JNZ     ??ZDApp_NwkDescListProcessing_11
        INC     DPTR
        MOVX    A,@DPTR
        XRL     A,R1
??ZDApp_NwkDescListProcessing_11:
        JNZ     ??ZDApp_NwkDescListProcessing_6
??ZDApp_NwkDescListProcessing_9:
        MOV     DPTR,#_NIB + 23
        LCALL   ?Subroutine23 & 0xFFFF
??CrossCallReturnLabel_25:
        INC     DPTR
        MOVX    A,@DPTR
        XRL     A,R0
        JNZ     ??ZDApp_NwkDescListProcessing_12
        INC     DPTR
        MOVX    A,@DPTR
        XRL     A,R1
??ZDApp_NwkDescListProcessing_12:
        JNZ     ??ZDApp_NwkDescListProcessing_13
        MOV     A,#-0x2
        XRL     A,R0
        JNZ     ??ZDApp_NwkDescListProcessing_14
        MOV     A,#-0x1
        XRL     A,R1
??ZDApp_NwkDescListProcessing_14:
        JNZ     ??ZDApp_NwkDescListProcessing_15
??ZDApp_NwkDescListProcessing_13:
        MOV     DPL,R6
        MOV     DPH,R7
        INC     DPTR
        INC     DPTR
        INC     DPTR
        INC     DPTR
        MOVX    A,@DPTR
        JZ      ??ZDApp_NwkDescListProcessing_6
??ZDApp_NwkDescListProcessing_15:
        MOV     DPL,R6
        MOV     DPH,R7
        INC     DPTR
        INC     DPTR
        INC     DPTR
        INC     DPTR
        INC     DPTR
        MOVX    A,@DPTR
        MOV     R0,A
        MOV     DPTR,#_NIB + 17
        MOVX    A,@DPTR
        XRL     A,R0
        JNZ     ??ZDApp_NwkDescListProcessing_6
        MOV     DPL,R6
        MOV     DPH,R7
        INC     DPTR
        INC     DPTR
        INC     DPTR
        INC     DPTR
        INC     DPTR
        INC     DPTR
        MOVX    A,@DPTR
        MOV     R0,A
        MOV     DPTR,#zgStackProfile
        MOVX    A,@DPTR
        XRL     A,R0
        JZ      ??ZDApp_NwkDescListProcessing_5
        MOVX    A,@DPTR
        XRL     A,#0x1
        JZ      $+5
        LJMP    ??ZDApp_NwkDescListProcessing_2 & 0xFFFF
        MOV     A,#0x2
        XRL     A,R0
        JZ      $+5
        LJMP    ??ZDApp_NwkDescListProcessing_3 & 0xFFFF
        LJMP    ??ZDApp_NwkDescListProcessing_4 & 0xFFFF
// 2417         {
// 2418           continue;
// 2419         }
// 2420       }
// 2421 
// 2422       break;
// 2423     }
// 2424 
// 2425     if (i < ResultCount)
// 2426     {
// 2427      selected = TRUE;
// 2428       break;
// 2429     }
// 2430 
// 2431     // break if selected or stack profile pro wasn't found
// 2432     if ( (selected == TRUE) || (stackProfilePro == FALSE) )
??ZDApp_NwkDescListProcessing_7:
        MOV     A,?V0
        JZ      ??ZDApp_NwkDescListProcessing_16
// 2433     {
// 2434       break;
// 2435     }
// 2436   }
        INC     ?V2
        MOV     A,?V2
        CLR     C
        SUBB    A,#0x2
        JNC     $+5
        LJMP    ??ZDApp_NwkDescListProcessing_1 & 0xFFFF
// 2437 
// 2438   if ( i == ResultCount )
??ZDApp_NwkDescListProcessing_16:
        MOV     A,?V1
        XRL     A,?V3
        JNZ     ??ZDApp_NwkDescListProcessing_5
// 2439   {
// 2440     nwk_desc_list_free();
        ; Setup parameters for call to function nwk_desc_list_free
        LCALL   `??nwk_desc_list_free::?relay`; Banked call to: nwk_desc_list_free
// 2441     return (NULL);   // couldn't find appropriate PAN to join !
        MOV     R2,#0x0
        MOV     R3,#0x0
        SJMP    ??ZDApp_NwkDescListProcessing_17
// 2442   }
// 2443   else
// 2444   {
// 2445     return (pNwkDesc);
??ZDApp_NwkDescListProcessing_5:
        MOV     A,R6
        MOV     R2,A
        MOV     A,R7
        MOV     R3,A
// 2446   }
??ZDApp_NwkDescListProcessing_17:
          CFI EndBlock cfiBlock80
        REQUIRE ?Subroutine1
        ; // Fall through to label ?Subroutine1
// 2447 }// ZDApp_NwkDescListProcessing()

        RSEG BANKED_CODE:CODE:NOROOT(0)
?Subroutine1:
          CFI Block cfiBlock81 Using cfiCommon0
          CFI NoFunction
          CFI CFA_SP SP+0
          CFI CFA_XSP16 add(XSP16, 14)
          CFI VB load(1, XDATA, add(CFA_XSP16, literal(-13)))
          CFI DPL0 load(1, XDATA, add(CFA_XSP16, literal(-2)))
          CFI DPH0 load(1, XDATA, add(CFA_XSP16, literal(-1)))
          CFI R6 load(1, XDATA, add(CFA_XSP16, literal(-14)))
          CFI R7 load(1, XDATA, add(CFA_XSP16, literal(-6)))
          CFI V0 load(1, XDATA, add(CFA_XSP16, literal(-12)))
          CFI V1 load(1, XDATA, add(CFA_XSP16, literal(-11)))
          CFI V2 load(1, XDATA, add(CFA_XSP16, literal(-10)))
          CFI V3 load(1, XDATA, add(CFA_XSP16, literal(-9)))
          CFI V4 load(1, XDATA, add(CFA_XSP16, literal(-8)))
          CFI V5 load(1, XDATA, add(CFA_XSP16, literal(-7)))
          CFI ?BRET_EXT load(1, XDATA, add(CFA_XSP16, literal(-3)))
          CFI ?RET_HIGH load(1, XDATA, add(CFA_XSP16, literal(-4)))
          CFI ?RET_LOW load(1, XDATA, add(CFA_XSP16, literal(-5)))
        MOV     R7,#0x6
        LJMP    ?BANKED_LEAVE_XDATA
          CFI CFA_SP SP+-3
          CFI CFA_XSP16 XSP16+0
          CFI VB SameValue
          CFI DPL0 SameValue
          CFI DPH0 SameValue
          CFI R6 SameValue
          CFI R7 SameValue
          CFI V0 SameValue
          CFI V1 SameValue
          CFI V2 SameValue
          CFI V3 SameValue
          CFI V4 SameValue
          CFI V5 SameValue
          CFI ?BRET_EXT Frame(CFA_SP, 3)
          CFI ?RET_HIGH Frame(CFA_SP, 2)
          CFI ?RET_LOW Frame(CFA_SP, 1)
          CFI EndBlock cfiBlock81
// 2448 
// 2449 /*********************************************************************
// 2450  * @fn          ZDO_NetworkFormationConfirmCB
// 2451  *
// 2452  * @brief       This function reports the results of the request to
// 2453  *              initialize a coordinator in a network.
// 2454  *
// 2455  * @param       Status - Result of NLME_NetworkFormationRequest()
// 2456  *
// 2457  * @return      none
// 2458  */

        RSEG BANKED_CODE:CODE:NOROOT(0)
// 2459 void ZDO_NetworkFormationConfirmCB( ZStatus_t Status )
ZDO_NetworkFormationConfirmCB:
          CFI Block cfiBlock82 Using cfiCommon0
          CFI Function ZDO_NetworkFormationConfirmCB
        CODE
// 2460 {
        FUNCALL ZDO_NetworkFormationConfirmCB, HalLedSet
        LOCFRAME ISTACK, 0, STACK
        LOCFRAME PSTACK, 0, STACK
        LOCFRAME XSTACK, 9, STACK
        LOCFRAME IOVERLAY, 0, STATIC
        LOCFRAME DOVERLAY, 0, STATIC
        ARGFRAME ISTACK, 0, STACK
        ARGFRAME PSTACK, 0, STACK
        ARGFRAME XSTACK, 9, STACK
        ARGFRAME IOVERLAY, 0, STATIC
        ARGFRAME DOVERLAY, 0, STATIC
        FUNCALL ZDO_NetworkFormationConfirmCB, HalLedSet
        LOCFRAME ISTACK, 0, STACK
        LOCFRAME PSTACK, 0, STACK
        LOCFRAME XSTACK, 9, STACK
        LOCFRAME IOVERLAY, 0, STATIC
        LOCFRAME DOVERLAY, 0, STATIC
        ARGFRAME ISTACK, 0, STACK
        ARGFRAME PSTACK, 0, STACK
        ARGFRAME XSTACK, 9, STACK
        ARGFRAME IOVERLAY, 0, STATIC
        ARGFRAME DOVERLAY, 0, STATIC
        FUNCALL ZDO_NetworkFormationConfirmCB, ZDApp_ChangeState
        LOCFRAME ISTACK, 0, STACK
        LOCFRAME PSTACK, 0, STACK
        LOCFRAME XSTACK, 9, STACK
        LOCFRAME IOVERLAY, 0, STATIC
        LOCFRAME DOVERLAY, 0, STATIC
        ARGFRAME ISTACK, 0, STACK
        ARGFRAME PSTACK, 0, STACK
        ARGFRAME XSTACK, 9, STACK
        ARGFRAME IOVERLAY, 0, STATIC
        ARGFRAME DOVERLAY, 0, STATIC
        FUNCALL ZDO_NetworkFormationConfirmCB, HalLedSet
        LOCFRAME ISTACK, 0, STACK
        LOCFRAME PSTACK, 0, STACK
        LOCFRAME XSTACK, 9, STACK
        LOCFRAME IOVERLAY, 0, STATIC
        LOCFRAME DOVERLAY, 0, STATIC
        ARGFRAME ISTACK, 0, STACK
        ARGFRAME PSTACK, 0, STACK
        ARGFRAME XSTACK, 9, STACK
        ARGFRAME IOVERLAY, 0, STATIC
        ARGFRAME DOVERLAY, 0, STATIC
        FUNCALL ZDO_NetworkFormationConfirmCB, osal_set_event
        LOCFRAME ISTACK, 0, STACK
        LOCFRAME PSTACK, 0, STACK
        LOCFRAME XSTACK, 9, STACK
        LOCFRAME IOVERLAY, 0, STATIC
        LOCFRAME DOVERLAY, 0, STATIC
        ARGFRAME ISTACK, 0, STACK
        ARGFRAME PSTACK, 0, STACK
        ARGFRAME XSTACK, 9, STACK
        ARGFRAME IOVERLAY, 0, STATIC
        ARGFRAME DOVERLAY, 0, STATIC
        MOV     A,#-0x9
        LCALL   ?BANKED_ENTER_XDATA
          CFI DPH0 load(1, XDATA, add(CFA_XSP16, literal(-1)))
          CFI DPL0 load(1, XDATA, add(CFA_XSP16, literal(-2)))
          CFI ?BRET_EXT load(1, XDATA, add(CFA_XSP16, literal(-3)))
          CFI ?RET_HIGH load(1, XDATA, add(CFA_XSP16, literal(-4)))
          CFI ?RET_LOW load(1, XDATA, add(CFA_XSP16, literal(-5)))
          CFI R7 load(1, XDATA, add(CFA_XSP16, literal(-6)))
          CFI V0 load(1, XDATA, add(CFA_XSP16, literal(-7)))
          CFI VB load(1, XDATA, add(CFA_XSP16, literal(-8)))
          CFI R6 load(1, XDATA, add(CFA_XSP16, literal(-9)))
          CFI CFA_SP SP+0
          CFI CFA_XSP16 add(XSP16, 9)
        ; Saved register size: 9
        ; Auto size: 0
        MOV     A,R1
// 2461   nwkStatus = (byte)Status;
        MOV     DPTR,#nwkStatus
        MOVX    @DPTR,A
// 2462 
// 2463   if ( Status == ZSUCCESS )
        JNZ     ??ZDO_NetworkFormationConfirmCB_0
// 2464   {
// 2465     // LED on shows Coordinator started
// 2466     HalLedSet ( HAL_LED_3, HAL_LED_MODE_ON );
        ; Setup parameters for call to function HalLedSet
        MOV     R2,#0x1
        MOV     R1,#0x4
        LCALL   `??HalLedSet::?relay`; Banked call to: HalLedSet
// 2467 
// 2468     // LED off forgets HOLD_AUTO_START
// 2469     HalLedSet (HAL_LED_4, HAL_LED_MODE_OFF);
        ; Setup parameters for call to function HalLedSet
        MOV     R2,#0x0
        MOV     R1,#0x8
        LCALL   `??HalLedSet::?relay`; Banked call to: HalLedSet
// 2470 
// 2471 #if defined ( ZBIT )
// 2472     SIM_SetColor(0xd0ffd0);
// 2473 #endif
// 2474 
// 2475     if ( devState == DEV_HOLD )
        MOV     DPTR,#devState
        MOVX    A,@DPTR
        JNZ     ??ZDO_NetworkFormationConfirmCB_1
// 2476     {
// 2477       // Began with HOLD_AUTO_START
// 2478       ZDApp_ChangeState( DEV_COORD_STARTING );
        ; Setup parameters for call to function ZDApp_ChangeState
        MOV     R1,#0x8
        LCALL   `??ZDApp_ChangeState::?relay`; Banked call to: ZDApp_ChangeState
        SJMP    ??ZDO_NetworkFormationConfirmCB_1
// 2479     }
// 2480   }
// 2481 #if defined(BLINK_LEDS)
// 2482   else
// 2483   {
// 2484     HalLedSet ( HAL_LED_3, HAL_LED_MODE_FLASH );  // Flash LED to show failure
??ZDO_NetworkFormationConfirmCB_0:
        ; Setup parameters for call to function HalLedSet
        MOV     R2,#0x4
        MOV     R1,#0x4
        LCALL   `??HalLedSet::?relay`; Banked call to: HalLedSet
// 2485   }
// 2486 #endif
// 2487 
// 2488   osal_set_event( ZDAppTaskID, ZDO_NETWORK_START );
??ZDO_NetworkFormationConfirmCB_1:
        ; Setup parameters for call to function osal_set_event
        MOV     R2,#0x2
        LJMP    ?Subroutine0 & 0xFFFF
// 2489 }
          CFI EndBlock cfiBlock82
// 2490 
// 2491 /****************************************************************************
// 2492  * @fn          ZDApp_beaconIndProcessing
// 2493  *
// 2494  * @brief       This function processes the incoming beacon indication.
// 2495  *
// 2496  *              When another task (MT or App) is registered to process
// 2497  *              beacon indication themselves, this function will parse the
// 2498  *              beacon payload and pass the beacon descriptor to that task
// 2499  *              If no other tasks registered, this function will process
// 2500  *              the beacon payload and generate the network descriptor link
// 2501  *              list.
// 2502  *
// 2503  * @param
// 2504  *
// 2505  * @return      none
// 2506  *
// 2507  */

        RSEG BANKED_CODE:CODE:NOROOT(0)
// 2508 void ZDO_beaconNotifyIndCB( NLME_beaconInd_t *pBeacon )
ZDO_beaconNotifyIndCB:
          CFI Block cfiBlock83 Using cfiCommon0
          CFI Function ZDO_beaconNotifyIndCB
        CODE
// 2509 {
        FUNCALL ZDO_beaconNotifyIndCB, osal_mem_alloc
        LOCFRAME ISTACK, 0, STACK
        LOCFRAME PSTACK, 0, STACK
        LOCFRAME XSTACK, 18, STACK
        LOCFRAME IOVERLAY, 0, STATIC
        LOCFRAME DOVERLAY, 0, STATIC
        ARGFRAME ISTACK, 0, STACK
        ARGFRAME PSTACK, 0, STACK
        ARGFRAME XSTACK, 18, STACK
        ARGFRAME IOVERLAY, 0, STATIC
        ARGFRAME DOVERLAY, 0, STATIC
        FUNCALL ZDO_beaconNotifyIndCB, osal_memset
        LOCFRAME ISTACK, 0, STACK
        LOCFRAME PSTACK, 0, STACK
        LOCFRAME XSTACK, 18, STACK
        LOCFRAME IOVERLAY, 0, STATIC
        LOCFRAME DOVERLAY, 0, STATIC
        ARGFRAME ISTACK, 0, STACK
        ARGFRAME PSTACK, 0, STACK
        ARGFRAME XSTACK, 18, STACK
        ARGFRAME IOVERLAY, 0, STATIC
        ARGFRAME DOVERLAY, 0, STATIC
        FUNCALL ZDO_beaconNotifyIndCB, sAddrExtCpy
        LOCFRAME ISTACK, 0, STACK
        LOCFRAME PSTACK, 0, STACK
        LOCFRAME XSTACK, 18, STACK
        LOCFRAME IOVERLAY, 0, STATIC
        LOCFRAME DOVERLAY, 0, STATIC
        ARGFRAME ISTACK, 0, STACK
        ARGFRAME PSTACK, 0, STACK
        ARGFRAME XSTACK, 18, STACK
        ARGFRAME IOVERLAY, 0, STATIC
        ARGFRAME DOVERLAY, 0, STATIC
        FUNCALL ZDO_beaconNotifyIndCB, osal_memset
        LOCFRAME ISTACK, 0, STACK
        LOCFRAME PSTACK, 0, STACK
        LOCFRAME XSTACK, 18, STACK
        LOCFRAME IOVERLAY, 0, STATIC
        LOCFRAME DOVERLAY, 0, STATIC
        ARGFRAME ISTACK, 0, STACK
        ARGFRAME PSTACK, 0, STACK
        ARGFRAME XSTACK, 18, STACK
        ARGFRAME IOVERLAY, 0, STATIC
        ARGFRAME DOVERLAY, 0, STATIC
        REQUIRE ?V0
        REQUIRE ?V1
        REQUIRE ?V2
        REQUIRE ?V3
        REQUIRE ?V4
        REQUIRE ?V5
        REQUIRE ?V6
        REQUIRE ?V7
        REQUIRE ?V8
        REQUIRE ?V9
        MOV     A,#-0x12
        LCALL   ?BANKED_ENTER_XDATA
          CFI DPH0 load(1, XDATA, add(CFA_XSP16, literal(-1)))
          CFI DPL0 load(1, XDATA, add(CFA_XSP16, literal(-2)))
          CFI ?BRET_EXT load(1, XDATA, add(CFA_XSP16, literal(-3)))
          CFI ?RET_HIGH load(1, XDATA, add(CFA_XSP16, literal(-4)))
          CFI ?RET_LOW load(1, XDATA, add(CFA_XSP16, literal(-5)))
          CFI R7 load(1, XDATA, add(CFA_XSP16, literal(-6)))
          CFI V9 load(1, XDATA, add(CFA_XSP16, literal(-7)))
          CFI V8 load(1, XDATA, add(CFA_XSP16, literal(-8)))
          CFI V7 load(1, XDATA, add(CFA_XSP16, literal(-9)))
          CFI V6 load(1, XDATA, add(CFA_XSP16, literal(-10)))
          CFI V5 load(1, XDATA, add(CFA_XSP16, literal(-11)))
          CFI V4 load(1, XDATA, add(CFA_XSP16, literal(-12)))
          CFI V3 load(1, XDATA, add(CFA_XSP16, literal(-13)))
          CFI V2 load(1, XDATA, add(CFA_XSP16, literal(-14)))
          CFI V1 load(1, XDATA, add(CFA_XSP16, literal(-15)))
          CFI V0 load(1, XDATA, add(CFA_XSP16, literal(-16)))
          CFI VB load(1, XDATA, add(CFA_XSP16, literal(-17)))
          CFI R6 load(1, XDATA, add(CFA_XSP16, literal(-18)))
          CFI CFA_SP SP+0
          CFI CFA_XSP16 add(XSP16, 18)
        ; Saved register size: 18
        ; Auto size: 0
        MOV     ?V0,R2
        MOV     ?V1,R3
// 2510   // Pass the beacon Indication to another task if it registers the callback
// 2511   // Otherwise, process the beacon notification here.
// 2512   if (zdoCBFunc[ZDO_BEACON_NOTIFY_IND_CBID] != NULL )
        MOV     DPTR,#zdoCBFunc + 6
        LCALL   ?Subroutine18 & 0xFFFF
??CrossCallReturnLabel_15:
        JZ      ??ZDO_beaconNotifyIndCB_0
// 2513   {
// 2514     zdoCBFunc[ZDO_BEACON_NOTIFY_IND_CBID]( (void*)pBeacon );
        ; Setup parameters for indirect call
        LCALL   ?CALL_IND
        LJMP    ??ZDO_beaconNotifyIndCB_1 & 0xFFFF
// 2515   }
// 2516   else
// 2517   {
// 2518     networkDesc_t *pNwkDesc;
// 2519     networkDesc_t *pLastNwkDesc;
// 2520     uint8 found = false;
// 2521 
// 2522     // Add the network to the Network Descriptor List
// 2523     pNwkDesc = NwkDescList;
??ZDO_beaconNotifyIndCB_0:
        MOV     DPTR,#NwkDescList
        LCALL   ??Subroutine44_0 & 0xFFFF
// 2524     pLastNwkDesc = NwkDescList;
??CrossCallReturnLabel_64:
        MOV     DPTR,#NwkDescList
        MOVX    A,@DPTR
        MOV     ?V2,A
        INC     DPTR
        MOVX    A,@DPTR
        MOV     ?V3,A
        MOV     A,R2
        ADD     A,#0x4
        MOV     ?V6,A
        CLR     A
        ADDC    A,?V1
        MOV     ?V7,A
        MOV     A,R2
        ADD     A,#0x2
        MOV     ?V4,A
        CLR     A
        ADDC    A,?V1
        MOV     ?V5,A
        SJMP    ??CrossCallReturnLabel_69
// 2525     while (pNwkDesc)
// 2526     {
// 2527       if ((pNwkDesc->panId == pBeacon->panID) &&
// 2528           (pNwkDesc->logicalChannel == pBeacon->logicalChannel))
??ZDO_beaconNotifyIndCB_2:
        LCALL   ?Subroutine24 & 0xFFFF
??CrossCallReturnLabel_82:
        MOV     DPL,?V4
        MOV     DPH,?V5
        MOVX    A,@DPTR
        XRL     A,R0
        JNZ     ??ZDO_beaconNotifyIndCB_3
        INC     DPTR
        MOVX    A,@DPTR
        XRL     A,R1
??ZDO_beaconNotifyIndCB_3:
        JNZ     ??ZDO_beaconNotifyIndCB_4
        MOV     DPL,R6
        MOV     DPH,R7
        INC     DPTR
        INC     DPTR
        MOVX    A,@DPTR
        MOV     R0,A
        MOV     DPL,?V6
        MOV     DPH,?V7
        MOVX    A,@DPTR
        XRL     A,R0
        JZ      ??ZDO_beaconNotifyIndCB_5
// 2529       {
// 2530         found = true;
// 2531         break;
// 2532       }
// 2533       pLastNwkDesc = pNwkDesc;
??ZDO_beaconNotifyIndCB_4:
        MOV     ?V2,R6
        MOV     ?V3,R7
// 2534       pNwkDesc = pNwkDesc->nextDesc;
        LCALL   ?Subroutine25 & 0xFFFF
// 2535     }
??CrossCallReturnLabel_69:
        MOV     A,R6
        ORL     A,R7
        JNZ     ??ZDO_beaconNotifyIndCB_2
// 2536 
// 2537     // If no existing descriptor found, make a new one and add to the list
// 2538     if (found == false)
// 2539     {
// 2540       pNwkDesc = osal_mem_alloc( sizeof(networkDesc_t)  );
        ; Setup parameters for call to function osal_mem_alloc
        MOV     R2,#0x16
        MOV     R3,#0x0
        LCALL   `??osal_mem_alloc::?relay`; Banked call to: osal_mem_alloc
        MOV     ?V8,R2
        MOV     ?V9,R3
        MOV     R6,?V8
        MOV     R7,?V9
// 2541       if ( !pNwkDesc )
        MOV     A,R6
        ORL     A,R7
        JNZ     $+5
        LJMP    ??ZDO_beaconNotifyIndCB_1 & 0xFFFF
// 2542       {
// 2543         // Memory alloc failed, discard this beacon
// 2544         return;
// 2545       }
// 2546 
// 2547       // Clear the network descriptor
// 2548       osal_memset( pNwkDesc, 0, sizeof(networkDesc_t)  );
        ; Setup parameters for call to function osal_memset
        MOV     R4,#0x16
        MOV     R5,#0x0
        MOV     R1,#0x0
        LCALL   `??osal_memset::?relay`; Banked call to: osal_memset
// 2549 
// 2550       // Initialize the descriptor
// 2551       pNwkDesc->chosenRouter = INVALID_NODE_ADDR;
        MOV     DPL,R6
        MOV     DPH,R7
        INC     DPTR
        INC     DPTR
        INC     DPTR
        INC     DPTR
        INC     DPTR
        INC     DPTR
        INC     DPTR
        MOV     A,#-0x2
        MOVX    @DPTR,A
        INC     DPTR
        INC     A
        MOVX    @DPTR,A
// 2552       pNwkDesc->chosenRouterDepth = 0xFF;
        MOV     DPL,R6
        MOV     DPH,R7
        INC     DPTR
        INC     DPTR
        INC     DPTR
        INC     DPTR
        INC     DPTR
        INC     DPTR
        INC     DPTR
        INC     DPTR
        INC     DPTR
        INC     DPTR
        MOVX    @DPTR,A
// 2553 
// 2554       // Save new entry into the descriptor list
// 2555       if ( !NwkDescList )
        MOV     DPTR,#NwkDescList
        LCALL   ??Subroutine51_0 & 0xFFFF
??CrossCallReturnLabel_85:
        JNZ     ??ZDO_beaconNotifyIndCB_6
// 2556       {
// 2557         NwkDescList = pNwkDesc;
        MOV     DPTR,#NwkDescList
        SJMP    ??ZDO_beaconNotifyIndCB_7
// 2558       }
// 2559       else
// 2560       {
// 2561         pLastNwkDesc->nextDesc = pNwkDesc;
??ZDO_beaconNotifyIndCB_6:
        MOV     A,?V2
        ADD     A,#0x14
        MOV     DPL,A
        CLR     A
        ADDC    A,?V3
        MOV     DPH,A
??ZDO_beaconNotifyIndCB_7:
        MOV     A,R6
        MOVX    @DPTR,A
        INC     DPTR
        MOV     A,R7
        MOVX    @DPTR,A
// 2562       }
// 2563     }
// 2564 
// 2565     // Update the descriptor with the incoming beacon
// 2566     pNwkDesc->stackProfile   = pBeacon->stackProfile;
??ZDO_beaconNotifyIndCB_5:
        MOV     DPL,?V0
        MOV     DPH,?V1
        INC     DPTR
        INC     DPTR
        INC     DPTR
        INC     DPTR
        INC     DPTR
        INC     DPTR
        INC     DPTR
        INC     DPTR
        INC     DPTR
        LCALL   ?Subroutine26 & 0xFFFF
??CrossCallReturnLabel_27:
        INC     DPTR
        MOVX    @DPTR,A
// 2567     pNwkDesc->version        = pBeacon->protocolVersion;
        MOV     A,?V0
        ADD     A,#0x8
        MOV     R0,A
        CLR     A
        ADDC    A,?V1
        MOV     R1,A
        MOV     DPL,R0
        MOV     DPH,R1
        LCALL   ?Subroutine26 & 0xFFFF
??CrossCallReturnLabel_28:
        MOVX    @DPTR,A
// 2568     pNwkDesc->logicalChannel = pBeacon->logicalChannel;
        MOV     DPL,?V6
        MOV     DPH,?V7
        MOVX    A,@DPTR
        MOV     DPL,R6
        MOV     DPH,R7
        INC     DPTR
        INC     DPTR
        MOVX    @DPTR,A
// 2569     pNwkDesc->panId          = pBeacon->panID;
        MOV     DPL,?V4
        MOV     DPH,?V5
        LCALL   ??Subroutine47_0 & 0xFFFF
??CrossCallReturnLabel_71:
        MOV     DPL,R6
        MOV     DPH,R7
        LCALL   ??Subroutine52_0 & 0xFFFF
// 2570     pNwkDesc->updateId       = pBeacon->updateID;
??CrossCallReturnLabel_99:
        MOV     A,?V0
        ADD     A,#0xc
        MOV     DPL,A
        CLR     A
        ADDC    A,?V1
        MOV     DPH,A
        MOVX    A,@DPTR
        PUSH    A
          CFI CFA_SP SP+-1
        MOV     A,R6
        ADD     A,#0x13
        MOV     DPL,A
        CLR     A
        ADDC    A,R7
        MOV     DPH,A
        POP     A
          CFI CFA_SP SP+0
        MOVX    @DPTR,A
// 2571 
// 2572     // Save the extended PAN ID from the beacon payload only if 1.1 version network
// 2573     if ( pBeacon->protocolVersion != ZB_PROT_V1_0 )
        MOV     A,R6
        ADD     A,#0xb
        MOV     R2,A
        CLR     A
        ADDC    A,R7
        MOV     R3,A
        MOV     DPL,R0
        MOV     DPH,R1
        MOVX    A,@DPTR
        XRL     A,#0x1
        JZ      ??ZDO_beaconNotifyIndCB_8
// 2574     {
// 2575       osal_cpyExtAddr( pNwkDesc->extendedPANID, pBeacon->extendedPanID );
        ; Setup parameters for call to function sAddrExtCpy
        MOV     A,?V0
        ADD     A,#0xd
        MOV     R4,A
        CLR     A
        ADDC    A,?V1
        MOV     R5,A
        LCALL   `??sAddrExtCpy::?relay`; Banked call to: sAddrExtCpy
        SJMP    ??ZDO_beaconNotifyIndCB_9
// 2576     }
// 2577     else
// 2578     {
// 2579       osal_memset( pNwkDesc->extendedPANID, 0xFF, Z_EXTADDR_LEN );
??ZDO_beaconNotifyIndCB_8:
        ; Setup parameters for call to function osal_memset
        MOV     R4,#0x8
        MOV     R5,#0x0
        MOV     R1,#-0x1
        LCALL   `??osal_memset::?relay`; Banked call to: osal_memset
// 2580     }
// 2581 
// 2582     // check if this device is a better choice to join...
// 2583     // ...dont bother checking assocPermit flag is doing a rejoin
// 2584     if ( ( pBeacon->LQI > gMIN_TREE_LQI ) &&
// 2585         ( ( pBeacon->permitJoining == TRUE ) || ( _tmpRejoinState ) ) )
??ZDO_beaconNotifyIndCB_9:
        MOV     A,?V0
        ADD     A,#0xa
        MOV     R0,A
        CLR     A
        ADDC    A,?V1
        MOV     R1,A
        MOV     DPL,R0
        MOV     DPH,R1
        MOVX    A,@DPTR
        MOV     ?V4,A
        MOV     DPTR,#gMIN_TREE_LQI
        MOVX    A,@DPTR
        CLR     C
        SUBB    A,?V4
        JC      $+5
        LJMP    ??ZDO_beaconNotifyIndCB_1 & 0xFFFF
        MOV     DPL,?V0
        MOV     DPH,?V1
        INC     DPTR
        INC     DPTR
        INC     DPTR
        INC     DPTR
        INC     DPTR
        MOVX    A,@DPTR
        XRL     A,#0x1
        JZ      ??ZDO_beaconNotifyIndCB_10
        MOV     DPTR,#_tmpRejoinState
        MOVX    A,@DPTR
        JNZ     $+5
        LJMP    ??ZDO_beaconNotifyIndCB_1 & 0xFFFF
// 2586     {
// 2587       uint8 selected = FALSE;
??ZDO_beaconNotifyIndCB_10:
        CLR     B.0
// 2588       uint8 capacity = FALSE;
// 2589 
// 2590 #if defined ( ZIGBEEPRO )
// 2591       if ( ((pBeacon->LQI   > pNwkDesc->chosenRouterLinkQuality) &&
// 2592             (pBeacon->depth < MAX_NODE_DEPTH)) ||
// 2593           ((pBeacon->LQI   == pNwkDesc->chosenRouterLinkQuality) &&
// 2594            (pBeacon->depth < pNwkDesc->chosenRouterDepth)) )
        MOV     A,R6
        ADD     A,#0x9
        MOV     R2,A
        CLR     A
        ADDC    A,R7
        MOV     R3,A
        MOV     DPL,R2
        MOV     DPH,R3
        MOVX    A,@DPTR
        MOV     ?V5,A
        MOV     A,R6
        ADD     A,#0xa
        MOV     R4,A
        CLR     A
        ADDC    A,R7
        MOV     R5,A
        MOV     A,?V0
        ADD     A,#0xb
        MOV     ?V2,A
        CLR     A
        ADDC    A,?V1
        MOV     ?V3,A
        MOV     A,?V5
        CLR     C
        SUBB    A,?V4
        JNC     ??ZDO_beaconNotifyIndCB_11
        MOV     DPL,?V2
        MOV     DPH,?V3
        MOVX    A,@DPTR
        CLR     C
        SUBB    A,#0x14
        JC      ??ZDO_beaconNotifyIndCB_12
        SJMP    ??ZDO_beaconNotifyIndCB_13
??ZDO_beaconNotifyIndCB_11:
        MOV     A,?V5
        XRL     A,?V4
        JNZ     ??ZDO_beaconNotifyIndCB_13
        MOV     DPL,R4
        MOV     DPH,R5
        MOVX    A,@DPTR
        MOV     ?V4,A
        MOV     DPL,?V2
        MOV     DPH,?V3
        MOVX    A,@DPTR
        CLR     C
        SUBB    A,?V4
        JNC     ??ZDO_beaconNotifyIndCB_13
// 2595       {
// 2596         selected = TRUE;
??ZDO_beaconNotifyIndCB_12:
        SETB    B.0
// 2597       }
// 2598 #else
// 2599       if ( pBeacon->depth < pNwkDesc->chosenRouterDepth )
// 2600       {
// 2601         selected = TRUE;
// 2602       }
// 2603 #endif
// 2604 
// 2605       if ( ZSTACK_ROUTER_BUILD )
// 2606       {
// 2607         capacity = pBeacon->routerCapacity;
// 2608       }
// 2609       else if ( ZSTACK_END_DEVICE_BUILD )
// 2610       {
// 2611         capacity = pBeacon->deviceCapacity;
// 2612       }
// 2613 
// 2614       if ( ( (capacity) || ( pBeacon->sourceAddr == _NIB.nwkCoordAddress ) ) && (selected) )
??ZDO_beaconNotifyIndCB_13:
        MOV     A,?V0
        ADD     A,#0x7
        MOV     ?V4,A
        CLR     A
        ADDC    A,?V1
        MOV     ?V5,A
        MOV     DPL,?V4
        MOV     DPH,A
        MOVX    A,@DPTR
        JNZ     ??ZDO_beaconNotifyIndCB_14
        MOV     DPL,?V0
        MOV     DPH,?V1
        MOVX    A,@DPTR
        MOV     ?V6,A
        INC     DPTR
        MOVX    A,@DPTR
        MOV     ?V7,A
        MOV     DPTR,#_NIB + 23
        MOVX    A,@DPTR
        XRL     A,?V6
        JNZ     ??ZDO_beaconNotifyIndCB_15
        INC     DPTR
        MOVX    A,@DPTR
        XRL     A,?V7
??ZDO_beaconNotifyIndCB_15:
        JNZ     ??ZDO_beaconNotifyIndCB_16
??ZDO_beaconNotifyIndCB_14:
        MOV     C,B.0
        JNC     ??ZDO_beaconNotifyIndCB_17
// 2615       {
// 2616         // this is the new chosen router for joining...
// 2617         pNwkDesc->chosenRouter            = pBeacon->sourceAddr;
        MOV     DPL,?V0
        MOV     DPH,?V1
        MOVX    A,@DPTR
        MOV     ?V6,A
        INC     DPTR
        MOVX    A,@DPTR
        MOV     ?V7,A
        MOV     DPL,R6
        MOV     DPH,R7
        INC     DPTR
        INC     DPTR
        INC     DPTR
        INC     DPTR
        INC     DPTR
        INC     DPTR
        INC     DPTR
        MOV     A,?V6
        MOVX    @DPTR,A
        INC     DPTR
        MOV     A,?V7
        MOVX    @DPTR,A
// 2618         pNwkDesc->chosenRouterLinkQuality = pBeacon->LQI;
        MOV     DPL,R0
        MOV     DPH,R1
        MOVX    A,@DPTR
        MOV     DPL,R2
        MOV     DPH,R3
        LCALL   ?Subroutine17 & 0xFFFF
// 2619         pNwkDesc->chosenRouterDepth       = pBeacon->depth;
// 2620       }
??CrossCallReturnLabel_12:
        MOV     DPL,R4
        MOV     DPH,R5
        MOVX    @DPTR,A
// 2621 
// 2622       if ( pBeacon->deviceCapacity )
??ZDO_beaconNotifyIndCB_17:
        MOV     DPL,?V4
        MOV     DPH,?V5
        MOVX    A,@DPTR
        JZ      ??ZDO_beaconNotifyIndCB_16
// 2623         pNwkDesc->deviceCapacity = 1;
        MOV     DPL,R6
        MOV     DPH,R7
        INC     DPTR
        INC     DPTR
        INC     DPTR
        INC     DPTR
        MOV     A,#0x1
        MOVX    @DPTR,A
// 2624 
// 2625       if ( pBeacon->routerCapacity )
??ZDO_beaconNotifyIndCB_16:
        MOV     DPL,?V0
        MOV     DPH,?V1
        INC     DPTR
        INC     DPTR
        INC     DPTR
        INC     DPTR
        INC     DPTR
        INC     DPTR
        MOVX    A,@DPTR
        JZ      ??ZDO_beaconNotifyIndCB_1
// 2626         pNwkDesc->routerCapacity = 1;
        MOV     DPL,R6
        MOV     DPH,R7
        INC     DPTR
        INC     DPTR
        INC     DPTR
        MOV     A,#0x1
        MOVX    @DPTR,A
// 2627     }
// 2628   }
// 2629 }
??ZDO_beaconNotifyIndCB_1:
        MOV     R7,#0xa
        LJMP    ?BANKED_LEAVE_XDATA
          CFI R6 SameValue
          CFI VB SameValue
          CFI V0 SameValue
          CFI V1 SameValue
          CFI V2 SameValue
          CFI V3 SameValue
          CFI V4 SameValue
          CFI V5 SameValue
          CFI V6 SameValue
          CFI V7 SameValue
          CFI V8 SameValue
          CFI V9 SameValue
          CFI R7 SameValue
          CFI ?RET_LOW Frame(CFA_SP, 1)
          CFI ?RET_HIGH Frame(CFA_SP, 2)
          CFI ?BRET_EXT Frame(CFA_SP, 3)
          CFI DPL0 SameValue
          CFI DPH0 SameValue
          CFI CFA_SP SP+-3
          CFI CFA_XSP16 XSP16+0
          CFI EndBlock cfiBlock83

        RSEG BANKED_CODE:CODE:NOROOT(0)
?Subroutine26:
          CFI Block cfiCond84 Using cfiCommon0
          CFI Function ZDO_beaconNotifyIndCB
          CFI Conditional ??CrossCallReturnLabel_27
          CFI R6 load(1, XDATA, add(CFA_XSP16, literal(-18)))
          CFI VB load(1, XDATA, add(CFA_XSP16, literal(-17)))
          CFI V0 load(1, XDATA, add(CFA_XSP16, literal(-16)))
          CFI V1 load(1, XDATA, add(CFA_XSP16, literal(-15)))
          CFI V2 load(1, XDATA, add(CFA_XSP16, literal(-14)))
          CFI V3 load(1, XDATA, add(CFA_XSP16, literal(-13)))
          CFI V4 load(1, XDATA, add(CFA_XSP16, literal(-12)))
          CFI V5 load(1, XDATA, add(CFA_XSP16, literal(-11)))
          CFI V6 load(1, XDATA, add(CFA_XSP16, literal(-10)))
          CFI V7 load(1, XDATA, add(CFA_XSP16, literal(-9)))
          CFI V8 load(1, XDATA, add(CFA_XSP16, literal(-8)))
          CFI V9 load(1, XDATA, add(CFA_XSP16, literal(-7)))
          CFI R7 load(1, XDATA, add(CFA_XSP16, literal(-6)))
          CFI ?RET_LOW load(1, XDATA, add(CFA_XSP16, literal(-5)))
          CFI ?RET_HIGH load(1, XDATA, add(CFA_XSP16, literal(-4)))
          CFI ?BRET_EXT load(1, XDATA, add(CFA_XSP16, literal(-3)))
          CFI DPL0 load(1, XDATA, add(CFA_XSP16, literal(-2)))
          CFI DPH0 load(1, XDATA, add(CFA_XSP16, literal(-1)))
          CFI CFA_SP SP+-2
          CFI CFA_XSP16 add(XSP16, 18)
          CFI Block cfiCond85 Using cfiCommon0
          CFI (cfiCond85) Function ZDO_beaconNotifyIndCB
          CFI (cfiCond85) Conditional ??CrossCallReturnLabel_28
          CFI (cfiCond85) R6 load(1, XDATA, add(CFA_XSP16, literal(-18)))
          CFI (cfiCond85) VB load(1, XDATA, add(CFA_XSP16, literal(-17)))
          CFI (cfiCond85) V0 load(1, XDATA, add(CFA_XSP16, literal(-16)))
          CFI (cfiCond85) V1 load(1, XDATA, add(CFA_XSP16, literal(-15)))
          CFI (cfiCond85) V2 load(1, XDATA, add(CFA_XSP16, literal(-14)))
          CFI (cfiCond85) V3 load(1, XDATA, add(CFA_XSP16, literal(-13)))
          CFI (cfiCond85) V4 load(1, XDATA, add(CFA_XSP16, literal(-12)))
          CFI (cfiCond85) V5 load(1, XDATA, add(CFA_XSP16, literal(-11)))
          CFI (cfiCond85) V6 load(1, XDATA, add(CFA_XSP16, literal(-10)))
          CFI (cfiCond85) V7 load(1, XDATA, add(CFA_XSP16, literal(-9)))
          CFI (cfiCond85) V8 load(1, XDATA, add(CFA_XSP16, literal(-8)))
          CFI (cfiCond85) V9 load(1, XDATA, add(CFA_XSP16, literal(-7)))
          CFI (cfiCond85) R7 load(1, XDATA, add(CFA_XSP16, literal(-6)))
          CFI (cfiCond85) ?RET_LOW load(1, XDATA, add(CFA_XSP16, literal(-5)))
          CFI (cfiCond85) ?RET_HIGH load(1, XDATA, add(CFA_XSP16, literal(-4)))
          CFI (cfiCond85) ?BRET_EXT load(1, XDATA, add(CFA_XSP16, literal(-3)))
          CFI (cfiCond85) DPL0 load(1, XDATA, add(CFA_XSP16, literal(-2)))
          CFI (cfiCond85) DPH0 load(1, XDATA, add(CFA_XSP16, literal(-1)))
          CFI (cfiCond85) CFA_SP SP+-2
          CFI (cfiCond85) CFA_XSP16 add(XSP16, 18)
          CFI Block cfiPicker86 Using cfiCommon1
          CFI (cfiPicker86) NoFunction
          CFI (cfiPicker86) Picker
        MOVX    A,@DPTR
        MOV     DPL,R6
        MOV     DPH,R7
        INC     DPTR
        INC     DPTR
        INC     DPTR
        INC     DPTR
        INC     DPTR
        RET
          CFI (cfiCond84) CFA_SP SP+0
          CFI (cfiCond85) CFA_SP SP+0
          CFI (cfiPicker86) CFA_SP SP+0
          CFI EndBlock cfiCond84
          CFI EndBlock cfiCond85
          CFI EndBlock cfiPicker86
// 2630 
// 2631 /*********************************************************************
// 2632  * @fn          ZDO_StartRouterConfirmCB
// 2633  *
// 2634  * @brief       This function reports the results of the request to
// 2635  *              start functioning as a router in a network.
// 2636  *
// 2637  * @param       Status - Result of NLME_StartRouterRequest()
// 2638  *
// 2639  * @return      none
// 2640  */

        RSEG BANKED_CODE:CODE:NOROOT(0)
// 2641 void ZDO_StartRouterConfirmCB( ZStatus_t Status )
ZDO_StartRouterConfirmCB:
          CFI Block cfiBlock87 Using cfiCommon0
          CFI Function ZDO_StartRouterConfirmCB
        CODE
// 2642 {
        FUNCALL ZDO_StartRouterConfirmCB, HalLedSet
        LOCFRAME ISTACK, 0, STACK
        LOCFRAME PSTACK, 0, STACK
        LOCFRAME XSTACK, 9, STACK
        LOCFRAME IOVERLAY, 0, STATIC
        LOCFRAME DOVERLAY, 0, STATIC
        ARGFRAME ISTACK, 0, STACK
        ARGFRAME PSTACK, 0, STACK
        ARGFRAME XSTACK, 9, STACK
        ARGFRAME IOVERLAY, 0, STATIC
        ARGFRAME DOVERLAY, 0, STATIC
        FUNCALL ZDO_StartRouterConfirmCB, HalLedSet
        LOCFRAME ISTACK, 0, STACK
        LOCFRAME PSTACK, 0, STACK
        LOCFRAME XSTACK, 9, STACK
        LOCFRAME IOVERLAY, 0, STATIC
        LOCFRAME DOVERLAY, 0, STATIC
        ARGFRAME ISTACK, 0, STACK
        ARGFRAME PSTACK, 0, STACK
        ARGFRAME XSTACK, 9, STACK
        ARGFRAME IOVERLAY, 0, STATIC
        ARGFRAME DOVERLAY, 0, STATIC
        FUNCALL ZDO_StartRouterConfirmCB, ZDApp_ChangeState
        LOCFRAME ISTACK, 0, STACK
        LOCFRAME PSTACK, 0, STACK
        LOCFRAME XSTACK, 9, STACK
        LOCFRAME IOVERLAY, 0, STATIC
        LOCFRAME DOVERLAY, 0, STATIC
        ARGFRAME ISTACK, 0, STACK
        ARGFRAME PSTACK, 0, STACK
        ARGFRAME XSTACK, 9, STACK
        ARGFRAME IOVERLAY, 0, STATIC
        ARGFRAME DOVERLAY, 0, STATIC
        FUNCALL ZDO_StartRouterConfirmCB, HalLedSet
        LOCFRAME ISTACK, 0, STACK
        LOCFRAME PSTACK, 0, STACK
        LOCFRAME XSTACK, 9, STACK
        LOCFRAME IOVERLAY, 0, STATIC
        LOCFRAME DOVERLAY, 0, STATIC
        ARGFRAME ISTACK, 0, STACK
        ARGFRAME PSTACK, 0, STACK
        ARGFRAME XSTACK, 9, STACK
        ARGFRAME IOVERLAY, 0, STATIC
        ARGFRAME DOVERLAY, 0, STATIC
        FUNCALL ZDO_StartRouterConfirmCB, osal_set_event
        LOCFRAME ISTACK, 0, STACK
        LOCFRAME PSTACK, 0, STACK
        LOCFRAME XSTACK, 9, STACK
        LOCFRAME IOVERLAY, 0, STATIC
        LOCFRAME DOVERLAY, 0, STATIC
        ARGFRAME ISTACK, 0, STACK
        ARGFRAME PSTACK, 0, STACK
        ARGFRAME XSTACK, 9, STACK
        ARGFRAME IOVERLAY, 0, STATIC
        ARGFRAME DOVERLAY, 0, STATIC
        MOV     A,#-0x9
        LCALL   ?BANKED_ENTER_XDATA
          CFI DPH0 load(1, XDATA, add(CFA_XSP16, literal(-1)))
          CFI DPL0 load(1, XDATA, add(CFA_XSP16, literal(-2)))
          CFI ?BRET_EXT load(1, XDATA, add(CFA_XSP16, literal(-3)))
          CFI ?RET_HIGH load(1, XDATA, add(CFA_XSP16, literal(-4)))
          CFI ?RET_LOW load(1, XDATA, add(CFA_XSP16, literal(-5)))
          CFI R7 load(1, XDATA, add(CFA_XSP16, literal(-6)))
          CFI V0 load(1, XDATA, add(CFA_XSP16, literal(-7)))
          CFI VB load(1, XDATA, add(CFA_XSP16, literal(-8)))
          CFI R6 load(1, XDATA, add(CFA_XSP16, literal(-9)))
          CFI CFA_SP SP+0
          CFI CFA_XSP16 add(XSP16, 9)
        ; Saved register size: 9
        ; Auto size: 0
        MOV     A,R1
// 2643   nwkStatus = (byte)Status;
        MOV     DPTR,#nwkStatus
        MOVX    @DPTR,A
// 2644 
// 2645   if ( Status == ZSUCCESS )
        JNZ     ??ZDO_StartRouterConfirmCB_0
// 2646   {
// 2647     // LED on shows Router started
// 2648     HalLedSet ( HAL_LED_3, HAL_LED_MODE_ON );
        ; Setup parameters for call to function HalLedSet
        MOV     R2,#0x1
        MOV     R1,#0x4
        LCALL   `??HalLedSet::?relay`; Banked call to: HalLedSet
// 2649     // LED off forgets HOLD_AUTO_START
// 2650     HalLedSet ( HAL_LED_4, HAL_LED_MODE_OFF);
        ; Setup parameters for call to function HalLedSet
        MOV     R2,#0x0
        MOV     R1,#0x8
        LCALL   `??HalLedSet::?relay`; Banked call to: HalLedSet
// 2651     if ( devState == DEV_HOLD )
        MOV     DPTR,#devState
        MOVX    A,@DPTR
        JNZ     ??ZDO_StartRouterConfirmCB_1
// 2652     {
// 2653       // Began with HOLD_AUTO_START
// 2654       ZDApp_ChangeState( DEV_END_DEVICE );
        ; Setup parameters for call to function ZDApp_ChangeState
        MOV     R1,#0x6
        LCALL   `??ZDApp_ChangeState::?relay`; Banked call to: ZDApp_ChangeState
        SJMP    ??ZDO_StartRouterConfirmCB_1
// 2655     }
// 2656   }
// 2657 #if defined(BLINK_LEDS)
// 2658   else
// 2659   {
// 2660     HalLedSet( HAL_LED_3, HAL_LED_MODE_FLASH );  // Flash LED to show failure
??ZDO_StartRouterConfirmCB_0:
        ; Setup parameters for call to function HalLedSet
        MOV     R2,#0x4
        MOV     R1,#0x4
        LCALL   `??HalLedSet::?relay`; Banked call to: HalLedSet
// 2661   }
// 2662 #endif
// 2663 
// 2664   osal_set_event( ZDAppTaskID, ZDO_ROUTER_START );
??ZDO_StartRouterConfirmCB_1:
        ; Setup parameters for call to function osal_set_event
        MOV     R2,#0x20
        LJMP    ?Subroutine0 & 0xFFFF
// 2665 }
          CFI EndBlock cfiBlock87
// 2666 
// 2667 /*********************************************************************
// 2668  * @fn          ZDO_JoinConfirmCB
// 2669  *
// 2670  * @brief       This function allows the next higher layer to be notified
// 2671  *              of the results of its request to join itself or another
// 2672  *              device to a network.
// 2673  *
// 2674  * @param       Status - Result of NLME_JoinRequest()
// 2675  *
// 2676  * @return      none
// 2677  */

        RSEG BANKED_CODE:CODE:NOROOT(0)
// 2678 void ZDO_JoinConfirmCB( uint16 PanId, ZStatus_t Status )
ZDO_JoinConfirmCB:
          CFI Block cfiBlock88 Using cfiCommon0
          CFI Function ZDO_JoinConfirmCB
        CODE
// 2679 {
        FUNCALL ZDO_JoinConfirmCB, nwkNeighborInitTable
        LOCFRAME ISTACK, 0, STACK
        LOCFRAME PSTACK, 0, STACK
        LOCFRAME XSTACK, 17, STACK
        LOCFRAME IOVERLAY, 0, STATIC
        LOCFRAME DOVERLAY, 0, STATIC
        ARGFRAME ISTACK, 0, STACK
        ARGFRAME PSTACK, 0, STACK
        ARGFRAME XSTACK, 17, STACK
        ARGFRAME IOVERLAY, 0, STATIC
        ARGFRAME DOVERLAY, 0, STATIC
        FUNCALL ZDO_JoinConfirmCB, nwkNeighborFindEmptySlot
        LOCFRAME ISTACK, 0, STACK
        LOCFRAME PSTACK, 0, STACK
        LOCFRAME XSTACK, 17, STACK
        LOCFRAME IOVERLAY, 0, STATIC
        LOCFRAME DOVERLAY, 0, STATIC
        ARGFRAME ISTACK, 0, STACK
        ARGFRAME PSTACK, 0, STACK
        ARGFRAME XSTACK, 17, STACK
        ARGFRAME IOVERLAY, 0, STATIC
        ARGFRAME DOVERLAY, 0, STATIC
        FUNCALL ZDO_JoinConfirmCB, osal_memset
        LOCFRAME ISTACK, 0, STACK
        LOCFRAME PSTACK, 0, STACK
        LOCFRAME XSTACK, 17, STACK
        LOCFRAME IOVERLAY, 0, STATIC
        LOCFRAME DOVERLAY, 0, STATIC
        ARGFRAME ISTACK, 0, STACK
        ARGFRAME PSTACK, 0, STACK
        ARGFRAME XSTACK, 17, STACK
        ARGFRAME IOVERLAY, 0, STATIC
        ARGFRAME DOVERLAY, 0, STATIC
        FUNCALL ZDO_JoinConfirmCB, sAddrExtCpy
        LOCFRAME ISTACK, 0, STACK
        LOCFRAME PSTACK, 0, STACK
        LOCFRAME XSTACK, 17, STACK
        LOCFRAME IOVERLAY, 0, STATIC
        LOCFRAME DOVERLAY, 0, STATIC
        ARGFRAME ISTACK, 0, STACK
        ARGFRAME PSTACK, 0, STACK
        ARGFRAME XSTACK, 17, STACK
        ARGFRAME IOVERLAY, 0, STATIC
        ARGFRAME DOVERLAY, 0, STATIC
        FUNCALL ZDO_JoinConfirmCB, HalLedSet
        LOCFRAME ISTACK, 0, STACK
        LOCFRAME PSTACK, 0, STACK
        LOCFRAME XSTACK, 17, STACK
        LOCFRAME IOVERLAY, 0, STATIC
        LOCFRAME DOVERLAY, 0, STATIC
        ARGFRAME ISTACK, 0, STACK
        ARGFRAME PSTACK, 0, STACK
        ARGFRAME XSTACK, 17, STACK
        ARGFRAME IOVERLAY, 0, STATIC
        ARGFRAME DOVERLAY, 0, STATIC
        FUNCALL ZDO_JoinConfirmCB, HalLedSet
        LOCFRAME ISTACK, 0, STACK
        LOCFRAME PSTACK, 0, STACK
        LOCFRAME XSTACK, 17, STACK
        LOCFRAME IOVERLAY, 0, STATIC
        LOCFRAME DOVERLAY, 0, STATIC
        ARGFRAME ISTACK, 0, STACK
        ARGFRAME PSTACK, 0, STACK
        ARGFRAME XSTACK, 17, STACK
        ARGFRAME IOVERLAY, 0, STATIC
        ARGFRAME DOVERLAY, 0, STATIC
        FUNCALL ZDO_JoinConfirmCB, ZDApp_ChangeState
        LOCFRAME ISTACK, 0, STACK
        LOCFRAME PSTACK, 0, STACK
        LOCFRAME XSTACK, 17, STACK
        LOCFRAME IOVERLAY, 0, STATIC
        LOCFRAME DOVERLAY, 0, STATIC
        ARGFRAME ISTACK, 0, STACK
        ARGFRAME PSTACK, 0, STACK
        ARGFRAME XSTACK, 17, STACK
        ARGFRAME IOVERLAY, 0, STATIC
        ARGFRAME DOVERLAY, 0, STATIC
        FUNCALL ZDO_JoinConfirmCB, HalLedSet
        LOCFRAME ISTACK, 0, STACK
        LOCFRAME PSTACK, 0, STACK
        LOCFRAME XSTACK, 17, STACK
        LOCFRAME IOVERLAY, 0, STATIC
        LOCFRAME DOVERLAY, 0, STATIC
        ARGFRAME ISTACK, 0, STACK
        ARGFRAME PSTACK, 0, STACK
        ARGFRAME XSTACK, 17, STACK
        ARGFRAME IOVERLAY, 0, STATIC
        ARGFRAME DOVERLAY, 0, STATIC
        FUNCALL ZDO_JoinConfirmCB, ZDApp_SendMsg
        LOCFRAME ISTACK, 0, STACK
        LOCFRAME PSTACK, 0, STACK
        LOCFRAME XSTACK, 17, STACK
        LOCFRAME IOVERLAY, 0, STATIC
        LOCFRAME DOVERLAY, 0, STATIC
        ARGFRAME ISTACK, 0, STACK
        ARGFRAME PSTACK, 0, STACK
        ARGFRAME XSTACK, 17, STACK
        ARGFRAME IOVERLAY, 0, STATIC
        ARGFRAME DOVERLAY, 0, STATIC
        REQUIRE ?V0
        REQUIRE ?V2
        REQUIRE ?V3
        MOV     A,#-0xc
        LCALL   ?BANKED_ENTER_XDATA
          CFI DPH0 load(1, XDATA, add(CFA_XSP16, literal(-1)))
          CFI DPL0 load(1, XDATA, add(CFA_XSP16, literal(-2)))
          CFI ?BRET_EXT load(1, XDATA, add(CFA_XSP16, literal(-3)))
          CFI ?RET_HIGH load(1, XDATA, add(CFA_XSP16, literal(-4)))
          CFI ?RET_LOW load(1, XDATA, add(CFA_XSP16, literal(-5)))
          CFI R7 load(1, XDATA, add(CFA_XSP16, literal(-6)))
          CFI V3 load(1, XDATA, add(CFA_XSP16, literal(-7)))
          CFI V2 load(1, XDATA, add(CFA_XSP16, literal(-8)))
          CFI V1 load(1, XDATA, add(CFA_XSP16, literal(-9)))
          CFI V0 load(1, XDATA, add(CFA_XSP16, literal(-10)))
          CFI VB load(1, XDATA, add(CFA_XSP16, literal(-11)))
          CFI R6 load(1, XDATA, add(CFA_XSP16, literal(-12)))
          CFI CFA_SP SP+0
          CFI CFA_XSP16 add(XSP16, 12)
        ; Saved register size: 12
        ; Auto size: 5
        MOV     A,#-0x5
        LCALL   ?ALLOC_XSTACK8
          CFI CFA_XSP16 add(XSP16, 17)
        MOV     ?V0,R1
// 2680   (void)PanId;  // remove if this parameter is used.
// 2681 
// 2682   nwkStatus = (byte)Status;
        MOV     A,R1
        MOV     DPTR,#nwkStatus
        MOVX    @DPTR,A
// 2683 
// 2684   if ( Status == ZSUCCESS )
        JZ      $+5
        LJMP    ??ZDO_JoinConfirmCB_0 & 0xFFFF
// 2685   {
// 2686     if ( ZSTACK_END_DEVICE_BUILD
// 2687       || (ZSTACK_ROUTER_BUILD && BUILD_FLEXABLE && ((_NIB.CapabilityFlags & ZMAC_ASSOC_CAPINFO_FFD_TYPE) == 0)))
// 2688     {
// 2689       neighborEntry_t *pItem;
// 2690 
// 2691       // We don't need the neighbor table entries.
// 2692       // Clear the neighbor Table to remove beacon information
// 2693       nwkNeighborInitTable();
        ; Setup parameters for call to function nwkNeighborInitTable
        LCALL   `??nwkNeighborInitTable::?relay`; Banked call to: nwkNeighborInitTable
// 2694 
// 2695       // Force a neighbor table entry for the parent
// 2696       pItem = nwkNeighborFindEmptySlot();
        ; Setup parameters for call to function nwkNeighborFindEmptySlot
        LCALL   `??nwkNeighborFindEmptySlot::?relay`; Banked call to: nwkNeighborFindEmptySlot
        MOV     ?V2,R2
        MOV     ?V3,R3
        MOV     R6,?V2
        MOV     R7,?V3
// 2697       if ( pItem != NULL )
        MOV     A,R6
        ORL     A,R7
        JZ      ??ZDO_JoinConfirmCB_1
// 2698       {
// 2699         osal_memset( pItem, 0x00, sizeof ( neighborEntry_t  )  );
        ; Setup parameters for call to function osal_memset
        MOV     R4,#0x17
        MOV     R5,#0x0
        MOV     R1,#0x0
        LCALL   `??osal_memset::?relay`; Banked call to: osal_memset
// 2700         pItem->neighborAddress = _NIB.nwkCoordAddress;
        MOV     DPTR,#_NIB + 23
        LCALL   ??Subroutine48_0 & 0xFFFF
??CrossCallReturnLabel_79:
        MOV     DPL,R6
        MOV     DPH,R7
        LCALL   ??Subroutine43_0 & 0xFFFF
// 2701         osal_cpyExtAddr( pItem ->neighborExtAddr, _NIB. nwkCoordExtAddress );
??CrossCallReturnLabel_61:
        ; Setup parameters for call to function sAddrExtCpy
        MOV     R4,#(_NIB + 25) & 0xff
        MOV     R5,#((_NIB + 25) >> 8) & 0xff
        LCALL   ?Subroutine31 & 0xFFFF
??CrossCallReturnLabel_38:
        LCALL   `??sAddrExtCpy::?relay`; Banked call to: sAddrExtCpy
// 2702         pItem->panId = _NIB. nwkPanId;
        MOV     DPTR,#_NIB + 33
        LCALL   ?Subroutine23 & 0xFFFF
??CrossCallReturnLabel_26:
        LCALL   ?Subroutine16 & 0xFFFF
// 2703         pItem->linkInfo.rxLqi = DEF_LQI;
??CrossCallReturnLabel_62:
        LCALL   ?Subroutine32 & 0xFFFF
??CrossCallReturnLabel_41:
        MOV     A,#-0x56
        MOVX    @DPTR,A
// 2704         pItem->linkInfo.txCounter = DEF_LINK_COUNTER;
        MOV     DPTR,#gLINK_DOWN_TRIGGER
        CLR     A
        MOVC    A,@A+DPTR
        MOV     R1,#0x0
        ADD     A,#0x1
        MOV     R0,A
        JNC     ??ZDO_JoinConfirmCB_2
        INC     R1
??ZDO_JoinConfirmCB_2:
        MOV     R2,#0x2
        MOV     R3,#0x0
        LCALL   ?S_DIV_MOD
        MOV     A,R6
        ADD     A,#0xd
        MOV     DPL,A
        CLR     A
        ADDC    A,R7
        MOV     DPH,A
        MOV     A,R0
        MOVX    @DPTR,A
// 2705         pItem->linkInfo.txCost = DEF_LINK_COST;
        LCALL   ?Subroutine34 & 0xFFFF
// 2706       }
// 2707     }
??CrossCallReturnLabel_45:
        MOV     A,#0x1
        MOVX    @DPTR,A
// 2708 
// 2709     // LED on shows device joined
// 2710     HalLedSet ( HAL_LED_3, HAL_LED_MODE_ON );
??ZDO_JoinConfirmCB_1:
        ; Setup parameters for call to function HalLedSet
        MOV     R2,#0x1
        MOV     R1,#0x4
        LCALL   `??HalLedSet::?relay`; Banked call to: HalLedSet
// 2711     // LED off forgets HOLD_AUTO_START
// 2712     HalLedSet ( HAL_LED_4, HAL_LED_MODE_OFF);
        ; Setup parameters for call to function HalLedSet
        MOV     R2,#0x0
        MOV     R1,#0x8
        LCALL   `??HalLedSet::?relay`; Banked call to: HalLedSet
// 2713     if ( (devState == DEV_HOLD) )
        MOV     DPTR,#devState
        MOVX    A,@DPTR
        JNZ     ??ZDO_JoinConfirmCB_3
// 2714     {
// 2715       // Began with HOLD_AUTO_START
// 2716       ZDApp_ChangeState( DEV_NWK_JOINING );
        ; Setup parameters for call to function ZDApp_ChangeState
        MOV     R1,#0x3
        LCALL   `??ZDApp_ChangeState::?relay`; Banked call to: ZDApp_ChangeState
        SJMP    ??ZDO_JoinConfirmCB_3
// 2717     }
// 2718 
// 2719     if ( !ZG_SECURE_ENABLED )
// 2720     {
// 2721       // Notify to save info into NV
// 2722       ZDApp_NVUpdate();
// 2723     }
// 2724   }
// 2725   else
// 2726   {
// 2727 #if defined(BLINK_LEDS)
// 2728     HalLedSet ( HAL_LED_3, HAL_LED_MODE_FLASH );  // Flash LED to show failure
??ZDO_JoinConfirmCB_0:
        ; Setup parameters for call to function HalLedSet
        MOV     R2,#0x4
        MOV     R1,#0x4
        LCALL   `??HalLedSet::?relay`; Banked call to: HalLedSet
// 2729 #endif
// 2730   }
// 2731 
// 2732   // Pass the join confirm to higher layer if callback registered
// 2733   if (zdoCBFunc[ZDO_JOIN_CNF_CBID] != NULL )
??ZDO_JoinConfirmCB_3:
        MOV     DPTR,#zdoCBFunc + 8
        LCALL   ??Subroutine51_0 & 0xFFFF
??CrossCallReturnLabel_86:
        JZ      ??ZDO_JoinConfirmCB_4
// 2734   {
// 2735     zdoJoinCnf_t joinCnf;
// 2736 
// 2737     joinCnf.status = Status;
        MOV     DPL,?XSP + 0
        MOV     DPH,?XSP + 1
        MOV     A,?V0
        MOVX    @DPTR,A
// 2738     joinCnf.deviceAddr = _NIB.nwkDevAddress;
        MOV     DPTR,#_NIB + 20
        LCALL   ??Subroutine47_0 & 0xFFFF
??CrossCallReturnLabel_72:
        MOV     A,#0x1
        LCALL   ?XSTACK_DISP0_8
        LCALL   ??Subroutine52_0 & 0xFFFF
// 2739     joinCnf.parentAddr = _NIB.nwkCoordAddress;
??CrossCallReturnLabel_100:
        MOV     DPTR,#_NIB + 23
        LCALL   ??Subroutine47_0 & 0xFFFF
??CrossCallReturnLabel_73:
        MOV     A,#0x3
        LCALL   ?XSTACK_DISP0_8
        LCALL   ??Subroutine52_0 & 0xFFFF
// 2740 
// 2741     zdoCBFunc[ZDO_JOIN_CNF_CBID]( (void*)&joinCnf );
??CrossCallReturnLabel_101:
        ; Setup parameters for indirect call
        MOV     R2,?XSP + 0
        MOV     R3,?XSP + 1
        MOV     DPL,R0
        MOV     DPH,R1
        LCALL   ?CALL_IND
// 2742   }
// 2743 
// 2744   // Notify ZDApp
// 2745   ZDApp_SendMsg( ZDAppTaskID, ZDO_NWK_JOIN_IND, sizeof(osal_event_hdr_t), (byte*)NULL );
??ZDO_JoinConfirmCB_4:
        ; Setup parameters for call to function ZDApp_SendMsg
        MOV     R4,#0x0
        MOV     R5,#0x0
        MOV     R3,#0x2
        MOV     R2,#0x2
        MOV     DPTR,#ZDAppTaskID
        MOVX    A,@DPTR
        MOV     R1,A
        LCALL   `??ZDApp_SendMsg::?relay`; Banked call to: ZDApp_SendMsg
// 2746 
// 2747 }
        MOV     A,#0x5
        LJMP    ??Subroutine53_0 & 0xFFFF
          CFI EndBlock cfiBlock88

        RSEG BANKED_CODE:CODE:NOROOT(0)
?Subroutine23:
          CFI Block cfiCond89 Using cfiCommon0
          CFI Function ZDApp_NwkDescListProcessing
          CFI Conditional ??CrossCallReturnLabel_25
          CFI R6 load(1, XDATA, add(CFA_XSP16, literal(-14)))
          CFI VB load(1, XDATA, add(CFA_XSP16, literal(-13)))
          CFI V0 load(1, XDATA, add(CFA_XSP16, literal(-12)))
          CFI V1 load(1, XDATA, add(CFA_XSP16, literal(-11)))
          CFI V2 load(1, XDATA, add(CFA_XSP16, literal(-10)))
          CFI V3 load(1, XDATA, add(CFA_XSP16, literal(-9)))
          CFI V4 load(1, XDATA, add(CFA_XSP16, literal(-8)))
          CFI V5 load(1, XDATA, add(CFA_XSP16, literal(-7)))
          CFI R7 load(1, XDATA, add(CFA_XSP16, literal(-6)))
          CFI ?RET_LOW load(1, XDATA, add(CFA_XSP16, literal(-5)))
          CFI ?RET_HIGH load(1, XDATA, add(CFA_XSP16, literal(-4)))
          CFI ?BRET_EXT load(1, XDATA, add(CFA_XSP16, literal(-3)))
          CFI DPL0 load(1, XDATA, add(CFA_XSP16, literal(-2)))
          CFI DPH0 load(1, XDATA, add(CFA_XSP16, literal(-1)))
          CFI CFA_SP SP+-2
          CFI CFA_XSP16 add(XSP16, 14)
          CFI Block cfiCond90 Using cfiCommon0
          CFI (cfiCond90) Function ZDO_JoinConfirmCB
          CFI (cfiCond90) Conditional ??CrossCallReturnLabel_26
          CFI (cfiCond90) R6 load(1, XDATA, add(CFA_XSP16, literal(-12)))
          CFI (cfiCond90) VB load(1, XDATA, add(CFA_XSP16, literal(-11)))
          CFI (cfiCond90) V0 load(1, XDATA, add(CFA_XSP16, literal(-10)))
          CFI (cfiCond90) V1 load(1, XDATA, add(CFA_XSP16, literal(-9)))
          CFI (cfiCond90) V2 load(1, XDATA, add(CFA_XSP16, literal(-8)))
          CFI (cfiCond90) V3 load(1, XDATA, add(CFA_XSP16, literal(-7)))
          CFI (cfiCond90) R7 load(1, XDATA, add(CFA_XSP16, literal(-6)))
          CFI (cfiCond90) ?RET_LOW load(1, XDATA, add(CFA_XSP16, literal(-5)))
          CFI (cfiCond90) ?RET_HIGH load(1, XDATA, add(CFA_XSP16, literal(-4)))
          CFI (cfiCond90) ?BRET_EXT load(1, XDATA, add(CFA_XSP16, literal(-3)))
          CFI (cfiCond90) DPL0 load(1, XDATA, add(CFA_XSP16, literal(-2)))
          CFI (cfiCond90) DPH0 load(1, XDATA, add(CFA_XSP16, literal(-1)))
          CFI (cfiCond90) CFA_SP SP+-2
          CFI (cfiCond90) CFA_XSP16 add(XSP16, 17)
          CFI Block cfiPicker91 Using cfiCommon1
          CFI (cfiPicker91) NoFunction
          CFI (cfiPicker91) Picker
        LCALL   ?Subroutine36 & 0xFFFF
??CrossCallReturnLabel_96:
        MOV     DPL,R6
        MOV     DPH,R7
        INC     DPTR
        INC     DPTR
        INC     DPTR
        INC     DPTR
        INC     DPTR
        INC     DPTR
        RET
          CFI (cfiCond89) CFA_SP SP+0
          CFI (cfiCond90) CFA_SP SP+0
          CFI (cfiPicker91) CFA_SP SP+0
          CFI EndBlock cfiCond89
          CFI EndBlock cfiCond90
          CFI EndBlock cfiPicker91

        RSEG BANKED_CODE:CODE:NOROOT(0)
?Subroutine16:
          CFI Block cfiCond92 Using cfiCommon0
          CFI Function ZDO_JoinConfirmCB
          CFI Conditional ??CrossCallReturnLabel_62
          CFI R6 load(1, XDATA, add(CFA_XSP16, literal(-12)))
          CFI VB load(1, XDATA, add(CFA_XSP16, literal(-11)))
          CFI V0 load(1, XDATA, add(CFA_XSP16, literal(-10)))
          CFI V1 load(1, XDATA, add(CFA_XSP16, literal(-9)))
          CFI V2 load(1, XDATA, add(CFA_XSP16, literal(-8)))
          CFI V3 load(1, XDATA, add(CFA_XSP16, literal(-7)))
          CFI R7 load(1, XDATA, add(CFA_XSP16, literal(-6)))
          CFI ?RET_LOW load(1, XDATA, add(CFA_XSP16, literal(-5)))
          CFI ?RET_HIGH load(1, XDATA, add(CFA_XSP16, literal(-4)))
          CFI ?BRET_EXT load(1, XDATA, add(CFA_XSP16, literal(-3)))
          CFI DPL0 load(1, XDATA, add(CFA_XSP16, literal(-2)))
          CFI DPH0 load(1, XDATA, add(CFA_XSP16, literal(-1)))
          CFI CFA_SP SP+-2
          CFI CFA_XSP16 add(XSP16, 17)
          CFI Block cfiCond93 Using cfiCommon0
          CFI (cfiCond93) Function ZDO_JoinIndicationCB
          CFI (cfiCond93) Conditional ??CrossCallReturnLabel_63
          CFI (cfiCond93) R6 load(1, XDATA, add(CFA_XSP16, literal(-16)))
          CFI (cfiCond93) VB load(1, XDATA, add(CFA_XSP16, literal(-15)))
          CFI (cfiCond93) V0 load(1, XDATA, add(CFA_XSP16, literal(-14)))
          CFI (cfiCond93) V1 load(1, XDATA, add(CFA_XSP16, literal(-13)))
          CFI (cfiCond93) V2 load(1, XDATA, add(CFA_XSP16, literal(-12)))
          CFI (cfiCond93) V3 load(1, XDATA, add(CFA_XSP16, literal(-11)))
          CFI (cfiCond93) V4 load(1, XDATA, add(CFA_XSP16, literal(-10)))
          CFI (cfiCond93) V5 load(1, XDATA, add(CFA_XSP16, literal(-9)))
          CFI (cfiCond93) V6 load(1, XDATA, add(CFA_XSP16, literal(-8)))
          CFI (cfiCond93) V7 load(1, XDATA, add(CFA_XSP16, literal(-7)))
          CFI (cfiCond93) R7 load(1, XDATA, add(CFA_XSP16, literal(-6)))
          CFI (cfiCond93) ?RET_LOW load(1, XDATA, add(CFA_XSP16, literal(-5)))
          CFI (cfiCond93) ?RET_HIGH load(1, XDATA, add(CFA_XSP16, literal(-4)))
          CFI (cfiCond93) ?BRET_EXT load(1, XDATA, add(CFA_XSP16, literal(-3)))
          CFI (cfiCond93) DPL0 load(1, XDATA, add(CFA_XSP16, literal(-2)))
          CFI (cfiCond93) DPH0 load(1, XDATA, add(CFA_XSP16, literal(-1)))
          CFI (cfiCond93) CFA_SP SP+-2
          CFI (cfiCond93) CFA_XSP16 add(XSP16, 16)
          CFI Block cfiPicker94 Using cfiCommon1
          CFI (cfiPicker94) NoFunction
          CFI (cfiPicker94) Picker
        INC     DPTR
        INC     DPTR
        INC     DPTR
        INC     DPTR
          CFI EndBlock cfiCond92
          CFI EndBlock cfiCond93
          CFI EndBlock cfiPicker94
        REQUIRE ??Subroutine43_0
        ; // Fall through to label ??Subroutine43_0

        RSEG BANKED_CODE:CODE:NOROOT(0)
??Subroutine43_0:
          CFI Block cfiCond95 Using cfiCommon0
          CFI Function ZDApp_SecInit
          CFI Conditional ??CrossCallReturnLabel_58
          CFI R6 load(1, XDATA, add(CFA_XSP16, literal(-9)))
          CFI VB load(1, XDATA, add(CFA_XSP16, literal(-8)))
          CFI V0 load(1, XDATA, add(CFA_XSP16, literal(-7)))
          CFI R7 load(1, XDATA, add(CFA_XSP16, literal(-6)))
          CFI ?RET_LOW load(1, XDATA, add(CFA_XSP16, literal(-5)))
          CFI ?RET_HIGH load(1, XDATA, add(CFA_XSP16, literal(-4)))
          CFI ?BRET_EXT load(1, XDATA, add(CFA_XSP16, literal(-3)))
          CFI DPL0 load(1, XDATA, add(CFA_XSP16, literal(-2)))
          CFI DPH0 load(1, XDATA, add(CFA_XSP16, literal(-1)))
          CFI CFA_SP SP+-2
          CFI CFA_XSP16 add(XSP16, 25)
          CFI Block cfiCond96 Using cfiCommon0
          CFI (cfiCond96) Function ZDApp_ProcessOSALMsg
          CFI (cfiCond96) Conditional ??CrossCallReturnLabel_59
          CFI (cfiCond96) R6 load(1, XDATA, add(CFA_XSP16, literal(-12)))
          CFI (cfiCond96) VB load(1, XDATA, add(CFA_XSP16, literal(-11)))
          CFI (cfiCond96) V0 load(1, XDATA, add(CFA_XSP16, literal(-10)))
          CFI (cfiCond96) V1 load(1, XDATA, add(CFA_XSP16, literal(-9)))
          CFI (cfiCond96) V2 load(1, XDATA, add(CFA_XSP16, literal(-8)))
          CFI (cfiCond96) V3 load(1, XDATA, add(CFA_XSP16, literal(-7)))
          CFI (cfiCond96) R7 load(1, XDATA, add(CFA_XSP16, literal(-6)))
          CFI (cfiCond96) ?RET_LOW load(1, XDATA, add(CFA_XSP16, literal(-5)))
          CFI (cfiCond96) ?RET_HIGH load(1, XDATA, add(CFA_XSP16, literal(-4)))
          CFI (cfiCond96) ?BRET_EXT load(1, XDATA, add(CFA_XSP16, literal(-3)))
          CFI (cfiCond96) DPL0 load(1, XDATA, add(CFA_XSP16, literal(-2)))
          CFI (cfiCond96) DPH0 load(1, XDATA, add(CFA_XSP16, literal(-1)))
          CFI (cfiCond96) CFA_SP SP+-2
          CFI (cfiCond96) CFA_XSP16 add(XSP16, 15)
          CFI Block cfiCond97 Using cfiCommon0
          CFI (cfiCond97) Function ZDApp_ProcessOSALMsg
          CFI (cfiCond97) Conditional ??CrossCallReturnLabel_60
          CFI (cfiCond97) R6 load(1, XDATA, add(CFA_XSP16, literal(-12)))
          CFI (cfiCond97) VB load(1, XDATA, add(CFA_XSP16, literal(-11)))
          CFI (cfiCond97) V0 load(1, XDATA, add(CFA_XSP16, literal(-10)))
          CFI (cfiCond97) V1 load(1, XDATA, add(CFA_XSP16, literal(-9)))
          CFI (cfiCond97) V2 load(1, XDATA, add(CFA_XSP16, literal(-8)))
          CFI (cfiCond97) V3 load(1, XDATA, add(CFA_XSP16, literal(-7)))
          CFI (cfiCond97) R7 load(1, XDATA, add(CFA_XSP16, literal(-6)))
          CFI (cfiCond97) ?RET_LOW load(1, XDATA, add(CFA_XSP16, literal(-5)))
          CFI (cfiCond97) ?RET_HIGH load(1, XDATA, add(CFA_XSP16, literal(-4)))
          CFI (cfiCond97) ?BRET_EXT load(1, XDATA, add(CFA_XSP16, literal(-3)))
          CFI (cfiCond97) DPL0 load(1, XDATA, add(CFA_XSP16, literal(-2)))
          CFI (cfiCond97) DPH0 load(1, XDATA, add(CFA_XSP16, literal(-1)))
          CFI (cfiCond97) CFA_SP SP+-2
          CFI (cfiCond97) CFA_XSP16 add(XSP16, 15)
          CFI Block cfiCond98 Using cfiCommon0
          CFI (cfiCond98) Function ZDO_JoinConfirmCB
          CFI (cfiCond98) Conditional ??CrossCallReturnLabel_61
          CFI (cfiCond98) R6 load(1, XDATA, add(CFA_XSP16, literal(-12)))
          CFI (cfiCond98) VB load(1, XDATA, add(CFA_XSP16, literal(-11)))
          CFI (cfiCond98) V0 load(1, XDATA, add(CFA_XSP16, literal(-10)))
          CFI (cfiCond98) V1 load(1, XDATA, add(CFA_XSP16, literal(-9)))
          CFI (cfiCond98) V2 load(1, XDATA, add(CFA_XSP16, literal(-8)))
          CFI (cfiCond98) V3 load(1, XDATA, add(CFA_XSP16, literal(-7)))
          CFI (cfiCond98) R7 load(1, XDATA, add(CFA_XSP16, literal(-6)))
          CFI (cfiCond98) ?RET_LOW load(1, XDATA, add(CFA_XSP16, literal(-5)))
          CFI (cfiCond98) ?RET_HIGH load(1, XDATA, add(CFA_XSP16, literal(-4)))
          CFI (cfiCond98) ?BRET_EXT load(1, XDATA, add(CFA_XSP16, literal(-3)))
          CFI (cfiCond98) DPL0 load(1, XDATA, add(CFA_XSP16, literal(-2)))
          CFI (cfiCond98) DPH0 load(1, XDATA, add(CFA_XSP16, literal(-1)))
          CFI (cfiCond98) CFA_SP SP+-2
          CFI (cfiCond98) CFA_XSP16 add(XSP16, 17)
          CFI Block cfiCond99 Using cfiCommon0
          CFI (cfiCond99) Function ZDO_JoinConfirmCB
          CFI (cfiCond99) Conditional ??CrossCallReturnLabel_62
          CFI (cfiCond99) R6 load(1, XDATA, add(CFA_XSP16, literal(-12)))
          CFI (cfiCond99) VB load(1, XDATA, add(CFA_XSP16, literal(-11)))
          CFI (cfiCond99) V0 load(1, XDATA, add(CFA_XSP16, literal(-10)))
          CFI (cfiCond99) V1 load(1, XDATA, add(CFA_XSP16, literal(-9)))
          CFI (cfiCond99) V2 load(1, XDATA, add(CFA_XSP16, literal(-8)))
          CFI (cfiCond99) V3 load(1, XDATA, add(CFA_XSP16, literal(-7)))
          CFI (cfiCond99) R7 load(1, XDATA, add(CFA_XSP16, literal(-6)))
          CFI (cfiCond99) ?RET_LOW load(1, XDATA, add(CFA_XSP16, literal(-5)))
          CFI (cfiCond99) ?RET_HIGH load(1, XDATA, add(CFA_XSP16, literal(-4)))
          CFI (cfiCond99) ?BRET_EXT load(1, XDATA, add(CFA_XSP16, literal(-3)))
          CFI (cfiCond99) DPL0 load(1, XDATA, add(CFA_XSP16, literal(-2)))
          CFI (cfiCond99) DPH0 load(1, XDATA, add(CFA_XSP16, literal(-1)))
          CFI (cfiCond99) CFA_SP SP+-2
          CFI (cfiCond99) CFA_XSP16 add(XSP16, 17)
          CFI Block cfiCond100 Using cfiCommon0
          CFI (cfiCond100) Function ZDO_JoinIndicationCB
          CFI (cfiCond100) Conditional ??CrossCallReturnLabel_63
          CFI (cfiCond100) R6 load(1, XDATA, add(CFA_XSP16, literal(-16)))
          CFI (cfiCond100) VB load(1, XDATA, add(CFA_XSP16, literal(-15)))
          CFI (cfiCond100) V0 load(1, XDATA, add(CFA_XSP16, literal(-14)))
          CFI (cfiCond100) V1 load(1, XDATA, add(CFA_XSP16, literal(-13)))
          CFI (cfiCond100) V2 load(1, XDATA, add(CFA_XSP16, literal(-12)))
          CFI (cfiCond100) V3 load(1, XDATA, add(CFA_XSP16, literal(-11)))
          CFI (cfiCond100) V4 load(1, XDATA, add(CFA_XSP16, literal(-10)))
          CFI (cfiCond100) V5 load(1, XDATA, add(CFA_XSP16, literal(-9)))
          CFI (cfiCond100) V6 load(1, XDATA, add(CFA_XSP16, literal(-8)))
          CFI (cfiCond100) V7 load(1, XDATA, add(CFA_XSP16, literal(-7)))
          CFI (cfiCond100) R7 load(1, XDATA, add(CFA_XSP16, literal(-6)))
          CFI (cfiCond100) ?RET_LOW load(1, XDATA, add(CFA_XSP16, literal(-5)))
          CFI (cfiCond100) ?RET_HIGH load(1, XDATA, add(CFA_XSP16, literal(-4)))
          CFI (cfiCond100) ?BRET_EXT load(1, XDATA, add(CFA_XSP16, literal(-3)))
          CFI (cfiCond100) DPL0 load(1, XDATA, add(CFA_XSP16, literal(-2)))
          CFI (cfiCond100) DPH0 load(1, XDATA, add(CFA_XSP16, literal(-1)))
          CFI (cfiCond100) CFA_SP SP+-2
          CFI (cfiCond100) CFA_XSP16 add(XSP16, 16)
          CFI Block cfiPicker101 Using cfiCommon1
          CFI (cfiPicker101) NoFunction
          CFI (cfiPicker101) Picker
        MOV     A,R0
        MOVX    @DPTR,A
        INC     DPTR
        MOV     A,R1
        MOVX    @DPTR,A
        RET
          CFI (cfiCond95) CFA_SP SP+0
          CFI (cfiCond96) CFA_SP SP+0
          CFI (cfiCond97) CFA_SP SP+0
          CFI (cfiCond98) CFA_SP SP+0
          CFI (cfiCond99) CFA_SP SP+0
          CFI (cfiCond100) CFA_SP SP+0
          CFI (cfiPicker101) CFA_SP SP+0
          CFI EndBlock cfiCond95
          CFI EndBlock cfiCond96
          CFI EndBlock cfiCond97
          CFI EndBlock cfiCond98
          CFI EndBlock cfiCond99
          CFI EndBlock cfiCond100
          CFI EndBlock cfiPicker101
// 2748 
// 2749 /*********************************************************************
// 2750  * @fn          ZDO_PermitJoinCB
// 2751  *
// 2752  * @brief      This function is called when there is a change in the
// 2753  *             device's permit join status.
// 2754  *
// 2755  * @param       duration - the new duration
// 2756  *
// 2757  * @return      none
// 2758  */

        RSEG BANKED_CODE:CODE:NOROOT(0)
// 2759 void ZDO_PermitJoinCB( uint8 duration )
ZDO_PermitJoinCB:
          CFI Block cfiBlock102 Using cfiCommon0
          CFI Function ZDO_PermitJoinCB
        CODE
// 2760 {
        PUSH    DPL
          CFI DPL0 Frame(CFA_SP, 4)
          CFI CFA_SP SP+-4
        PUSH    DPH
          CFI DPH0 Frame(CFA_SP, 5)
          CFI CFA_SP SP+-5
        ; Saved register size: 2
        ; Auto size: 1
        MOV     A,#-0x1
        LCALL   ?ALLOC_XSTACK8
          CFI CFA_XSP16 add(XSP16, 1)
        MOV     A,R1
        MOV     DPL,?XSP + 0
        MOV     DPH,?XSP + 1
        MOVX    @DPTR,A
// 2761   // Pass the Permit Join status to higher layer if callback registered
// 2762   if (zdoCBFunc[ZDO_PERMIT_JOIN_CBID] != NULL )
        MOV     DPTR,#zdoCBFunc + 14
        LCALL   ?Subroutine18 & 0xFFFF
??CrossCallReturnLabel_16:
        JZ      ??ZDO_PermitJoinCB_0
// 2763   {
// 2764     zdoCBFunc[ZDO_PERMIT_JOIN_CBID]( (void*)&duration );
        ; Setup parameters for indirect call
        MOV     R2,?XSP + 0
        MOV     R3,?XSP + 1
        LCALL   ?CALL_IND
// 2765   }
// 2766 }
??ZDO_PermitJoinCB_0:
        MOV     A,#0x1
        LJMP    ?Subroutine3 & 0xFFFF
          CFI EndBlock cfiBlock102
// 2767 
// 2768 /*********************************************************************
// 2769  * @fn          ZDO_AddrChangeIndicationCB
// 2770  *
// 2771  * @brief       This function notifies the application that this
// 2772  *              device's address has changed.  Could happen in
// 2773  *              a network with stochastic addressing (PRO).
// 2774  *
// 2775  * @param       newAddr - the new address
// 2776  *
// 2777  * @return      none
// 2778  */

        RSEG BANKED_CODE:CODE:NOROOT(0)
// 2779 void ZDO_AddrChangeIndicationCB( uint16 newAddr )
ZDO_AddrChangeIndicationCB:
          CFI Block cfiBlock103 Using cfiCommon0
          CFI Function ZDO_AddrChangeIndicationCB
        CODE
// 2780 {
        FUNCALL ZDO_AddrChangeIndicationCB, osal_set_event
        LOCFRAME ISTACK, 0, STACK
        LOCFRAME PSTACK, 0, STACK
        LOCFRAME XSTACK, 14, STACK
        LOCFRAME IOVERLAY, 0, STATIC
        LOCFRAME DOVERLAY, 0, STATIC
        ARGFRAME ISTACK, 0, STACK
        ARGFRAME PSTACK, 0, STACK
        ARGFRAME XSTACK, 14, STACK
        ARGFRAME IOVERLAY, 0, STATIC
        ARGFRAME DOVERLAY, 0, STATIC
        FUNCALL ZDO_AddrChangeIndicationCB, osal_msg_allocate
        LOCFRAME ISTACK, 0, STACK
        LOCFRAME PSTACK, 0, STACK
        LOCFRAME XSTACK, 14, STACK
        LOCFRAME IOVERLAY, 0, STATIC
        LOCFRAME DOVERLAY, 0, STATIC
        ARGFRAME ISTACK, 0, STACK
        ARGFRAME PSTACK, 0, STACK
        ARGFRAME XSTACK, 14, STACK
        ARGFRAME IOVERLAY, 0, STATIC
        ARGFRAME DOVERLAY, 0, STATIC
        FUNCALL ZDO_AddrChangeIndicationCB, osal_msg_send
        LOCFRAME ISTACK, 0, STACK
        LOCFRAME PSTACK, 0, STACK
        LOCFRAME XSTACK, 14, STACK
        LOCFRAME IOVERLAY, 0, STATIC
        LOCFRAME DOVERLAY, 0, STATIC
        ARGFRAME ISTACK, 0, STACK
        ARGFRAME PSTACK, 0, STACK
        ARGFRAME XSTACK, 14, STACK
        ARGFRAME IOVERLAY, 0, STATIC
        ARGFRAME DOVERLAY, 0, STATIC
        FUNCALL ZDO_AddrChangeIndicationCB, ZDApp_AnnounceNewAddress
        LOCFRAME ISTACK, 0, STACK
        LOCFRAME PSTACK, 0, STACK
        LOCFRAME XSTACK, 14, STACK
        LOCFRAME IOVERLAY, 0, STATIC
        LOCFRAME DOVERLAY, 0, STATIC
        ARGFRAME ISTACK, 0, STACK
        ARGFRAME PSTACK, 0, STACK
        ARGFRAME XSTACK, 14, STACK
        ARGFRAME IOVERLAY, 0, STATIC
        ARGFRAME DOVERLAY, 0, STATIC
        REQUIRE ?V0
        REQUIRE ?V1
        REQUIRE ?V2
        REQUIRE ?V3
        REQUIRE ?V4
        REQUIRE ?V5
        MOV     A,#-0xe
        LCALL   ?BANKED_ENTER_XDATA
          CFI DPH0 load(1, XDATA, add(CFA_XSP16, literal(-1)))
          CFI DPL0 load(1, XDATA, add(CFA_XSP16, literal(-2)))
          CFI ?BRET_EXT load(1, XDATA, add(CFA_XSP16, literal(-3)))
          CFI ?RET_HIGH load(1, XDATA, add(CFA_XSP16, literal(-4)))
          CFI ?RET_LOW load(1, XDATA, add(CFA_XSP16, literal(-5)))
          CFI R7 load(1, XDATA, add(CFA_XSP16, literal(-6)))
          CFI V5 load(1, XDATA, add(CFA_XSP16, literal(-7)))
          CFI V4 load(1, XDATA, add(CFA_XSP16, literal(-8)))
          CFI V3 load(1, XDATA, add(CFA_XSP16, literal(-9)))
          CFI V2 load(1, XDATA, add(CFA_XSP16, literal(-10)))
          CFI V1 load(1, XDATA, add(CFA_XSP16, literal(-11)))
          CFI V0 load(1, XDATA, add(CFA_XSP16, literal(-12)))
          CFI VB load(1, XDATA, add(CFA_XSP16, literal(-13)))
          CFI R6 load(1, XDATA, add(CFA_XSP16, literal(-14)))
          CFI CFA_SP SP+0
          CFI CFA_XSP16 add(XSP16, 14)
        ; Saved register size: 14
        ; Auto size: 0
        MOV     ?V0,R2
        MOV     ?V1,R3
// 2781   ZDO_AddrChangeInd_t *pZDOAddrChangeMsg;
// 2782   epList_t *pItem = epList;
        MOV     DPTR,#epList
        LCALL   ??Subroutine44_0 & 0xFFFF
// 2783 
// 2784   // Notify to save info into NV
// 2785   ZDApp_NVUpdate();
// 2786 
// 2787   // Notify the applications
// 2788   osal_set_event( ZDAppTaskID, ZDO_STATE_CHANGE_EVT );
??CrossCallReturnLabel_65:
        ; Setup parameters for call to function osal_set_event
        MOV     R2,#0x10
        MOV     R3,#0x0
        MOV     DPTR,#ZDAppTaskID
        MOVX    A,@DPTR
        MOV     R1,A
        LCALL   `??osal_set_event::?relay`; Banked call to: osal_set_event
        SJMP    ??CrossCallReturnLabel_66
// 2789 
// 2790   while (pItem != NULL)
// 2791   {
// 2792     if (pItem->epDesc->endPoint != ZDO_EP)
??ZDO_AddrChangeIndicationCB_0:
        MOV     A,R6
        ADD     A,#0x2
        MOV     R0,A
        CLR     A
        ADDC    A,R7
        MOV     R1,A
        MOV     ?V2,R0
        MOV     ?V3,R1
        MOV     DPL,R0
        MOV     DPH,A
        LCALL   ?Subroutine21 & 0xFFFF
??CrossCallReturnLabel_23:
        JZ      ??ZDO_AddrChangeIndicationCB_1
// 2793     {
// 2794       pZDOAddrChangeMsg = (ZDO_AddrChangeInd_t *)osal_msg_allocate( sizeof( ZDO_AddrChangeInd_t ) );
        ; Setup parameters for call to function osal_msg_allocate
        MOV     R2,#0x4
        MOV     R3,#0x0
        LCALL   `??osal_msg_allocate::?relay`; Banked call to: osal_msg_allocate
// 2795       if (pZDOAddrChangeMsg != NULL)
        MOV     A,R2
        ORL     A,R3
        JZ      ??ZDO_AddrChangeIndicationCB_1
// 2796       {
// 2797         pZDOAddrChangeMsg->hdr.event = ZDO_ADDR_CHANGE_IND;
        MOV     DPL,R2
        MOV     DPH,R3
        MOV     A,#-0x2a
        MOVX    @DPTR,A
// 2798         pZDOAddrChangeMsg->shortAddr = newAddr;
        INC     DPTR
        INC     DPTR
        MOV     A,?V0
        MOVX    @DPTR,A
        INC     DPTR
        MOV     A,?V1
        LCALL   ?Subroutine17 & 0xFFFF
// 2799         osal_msg_send( *(pItem->epDesc->task_id), (uint8 *)pZDOAddrChangeMsg );
// 2800       }
// 2801     }
??CrossCallReturnLabel_13:
        LCALL   ??Subroutine41_0 & 0xFFFF
??CrossCallReturnLabel_55:
        INC     DPTR
        LCALL   ?Subroutine21 & 0xFFFF
??CrossCallReturnLabel_24:
        MOV     R1,A
        LCALL   `??osal_msg_send::?relay`; Banked call to: osal_msg_send
// 2802     pItem = pItem->nextDesc;
??ZDO_AddrChangeIndicationCB_1:
        MOV     DPL,R6
        MOV     DPH,R7
        LCALL   ??Subroutine44_0 & 0xFFFF
// 2803   }
??CrossCallReturnLabel_66:
        MOV     A,R6
        ORL     A,R7
        JNZ     ??ZDO_AddrChangeIndicationCB_0
// 2804 
// 2805   // Send out a device announce
// 2806   ZDApp_AnnounceNewAddress();
        ; Setup parameters for call to function ZDApp_AnnounceNewAddress
        LCALL   `??ZDApp_AnnounceNewAddress::?relay`; Banked call to: ZDApp_AnnounceNewAddress
// 2807 }
        LJMP    ?Subroutine1 & 0xFFFF
          CFI EndBlock cfiBlock103

        RSEG BANKED_CODE:CODE:NOROOT(0)
?Subroutine25:
          CFI Block cfiCond104 Using cfiCommon0
          CFI Function ZDApp_NwkDescListProcessing
          CFI Conditional ??CrossCallReturnLabel_67
          CFI R6 load(1, XDATA, add(CFA_XSP16, literal(-14)))
          CFI VB load(1, XDATA, add(CFA_XSP16, literal(-13)))
          CFI V0 load(1, XDATA, add(CFA_XSP16, literal(-12)))
          CFI V1 load(1, XDATA, add(CFA_XSP16, literal(-11)))
          CFI V2 load(1, XDATA, add(CFA_XSP16, literal(-10)))
          CFI V3 load(1, XDATA, add(CFA_XSP16, literal(-9)))
          CFI V4 load(1, XDATA, add(CFA_XSP16, literal(-8)))
          CFI V5 load(1, XDATA, add(CFA_XSP16, literal(-7)))
          CFI R7 load(1, XDATA, add(CFA_XSP16, literal(-6)))
          CFI ?RET_LOW load(1, XDATA, add(CFA_XSP16, literal(-5)))
          CFI ?RET_HIGH load(1, XDATA, add(CFA_XSP16, literal(-4)))
          CFI ?BRET_EXT load(1, XDATA, add(CFA_XSP16, literal(-3)))
          CFI DPL0 load(1, XDATA, add(CFA_XSP16, literal(-2)))
          CFI DPH0 load(1, XDATA, add(CFA_XSP16, literal(-1)))
          CFI CFA_SP SP+-2
          CFI CFA_XSP16 add(XSP16, 14)
          CFI Block cfiCond105 Using cfiCommon0
          CFI (cfiCond105) Function ZDApp_NwkDescListProcessing
          CFI (cfiCond105) Conditional ??CrossCallReturnLabel_68
          CFI (cfiCond105) R6 load(1, XDATA, add(CFA_XSP16, literal(-14)))
          CFI (cfiCond105) VB load(1, XDATA, add(CFA_XSP16, literal(-13)))
          CFI (cfiCond105) V0 load(1, XDATA, add(CFA_XSP16, literal(-12)))
          CFI (cfiCond105) V1 load(1, XDATA, add(CFA_XSP16, literal(-11)))
          CFI (cfiCond105) V2 load(1, XDATA, add(CFA_XSP16, literal(-10)))
          CFI (cfiCond105) V3 load(1, XDATA, add(CFA_XSP16, literal(-9)))
          CFI (cfiCond105) V4 load(1, XDATA, add(CFA_XSP16, literal(-8)))
          CFI (cfiCond105) V5 load(1, XDATA, add(CFA_XSP16, literal(-7)))
          CFI (cfiCond105) R7 load(1, XDATA, add(CFA_XSP16, literal(-6)))
          CFI (cfiCond105) ?RET_LOW load(1, XDATA, add(CFA_XSP16, literal(-5)))
          CFI (cfiCond105) ?RET_HIGH load(1, XDATA, add(CFA_XSP16, literal(-4)))
          CFI (cfiCond105) ?BRET_EXT load(1, XDATA, add(CFA_XSP16, literal(-3)))
          CFI (cfiCond105) DPL0 load(1, XDATA, add(CFA_XSP16, literal(-2)))
          CFI (cfiCond105) DPH0 load(1, XDATA, add(CFA_XSP16, literal(-1)))
          CFI (cfiCond105) CFA_SP SP+-2
          CFI (cfiCond105) CFA_XSP16 add(XSP16, 14)
          CFI Block cfiCond106 Using cfiCommon0
          CFI (cfiCond106) Function ZDO_beaconNotifyIndCB
          CFI (cfiCond106) Conditional ??CrossCallReturnLabel_69
          CFI (cfiCond106) R6 load(1, XDATA, add(CFA_XSP16, literal(-18)))
          CFI (cfiCond106) VB load(1, XDATA, add(CFA_XSP16, literal(-17)))
          CFI (cfiCond106) V0 load(1, XDATA, add(CFA_XSP16, literal(-16)))
          CFI (cfiCond106) V1 load(1, XDATA, add(CFA_XSP16, literal(-15)))
          CFI (cfiCond106) V2 load(1, XDATA, add(CFA_XSP16, literal(-14)))
          CFI (cfiCond106) V3 load(1, XDATA, add(CFA_XSP16, literal(-13)))
          CFI (cfiCond106) V4 load(1, XDATA, add(CFA_XSP16, literal(-12)))
          CFI (cfiCond106) V5 load(1, XDATA, add(CFA_XSP16, literal(-11)))
          CFI (cfiCond106) V6 load(1, XDATA, add(CFA_XSP16, literal(-10)))
          CFI (cfiCond106) V7 load(1, XDATA, add(CFA_XSP16, literal(-9)))
          CFI (cfiCond106) V8 load(1, XDATA, add(CFA_XSP16, literal(-8)))
          CFI (cfiCond106) V9 load(1, XDATA, add(CFA_XSP16, literal(-7)))
          CFI (cfiCond106) R7 load(1, XDATA, add(CFA_XSP16, literal(-6)))
          CFI (cfiCond106) ?RET_LOW load(1, XDATA, add(CFA_XSP16, literal(-5)))
          CFI (cfiCond106) ?RET_HIGH load(1, XDATA, add(CFA_XSP16, literal(-4)))
          CFI (cfiCond106) ?BRET_EXT load(1, XDATA, add(CFA_XSP16, literal(-3)))
          CFI (cfiCond106) DPL0 load(1, XDATA, add(CFA_XSP16, literal(-2)))
          CFI (cfiCond106) DPH0 load(1, XDATA, add(CFA_XSP16, literal(-1)))
          CFI (cfiCond106) CFA_SP SP+-2
          CFI (cfiCond106) CFA_XSP16 add(XSP16, 18)
          CFI Block cfiPicker107 Using cfiCommon1
          CFI (cfiPicker107) NoFunction
          CFI (cfiPicker107) Picker
        MOV     A,R6
        ADD     A,#0x14
        MOV     DPL,A
        CLR     A
        ADDC    A,R7
        MOV     DPH,A
          CFI EndBlock cfiCond104
          CFI EndBlock cfiCond105
          CFI EndBlock cfiCond106
          CFI EndBlock cfiPicker107
        REQUIRE ??Subroutine44_0
        ; // Fall through to label ??Subroutine44_0

        RSEG BANKED_CODE:CODE:NOROOT(0)
??Subroutine44_0:
          CFI Block cfiCond108 Using cfiCommon0
          CFI Function ZDO_beaconNotifyIndCB
          CFI Conditional ??CrossCallReturnLabel_64
          CFI R6 load(1, XDATA, add(CFA_XSP16, literal(-18)))
          CFI VB load(1, XDATA, add(CFA_XSP16, literal(-17)))
          CFI V0 load(1, XDATA, add(CFA_XSP16, literal(-16)))
          CFI V1 load(1, XDATA, add(CFA_XSP16, literal(-15)))
          CFI V2 load(1, XDATA, add(CFA_XSP16, literal(-14)))
          CFI V3 load(1, XDATA, add(CFA_XSP16, literal(-13)))
          CFI V4 load(1, XDATA, add(CFA_XSP16, literal(-12)))
          CFI V5 load(1, XDATA, add(CFA_XSP16, literal(-11)))
          CFI V6 load(1, XDATA, add(CFA_XSP16, literal(-10)))
          CFI V7 load(1, XDATA, add(CFA_XSP16, literal(-9)))
          CFI V8 load(1, XDATA, add(CFA_XSP16, literal(-8)))
          CFI V9 load(1, XDATA, add(CFA_XSP16, literal(-7)))
          CFI R7 load(1, XDATA, add(CFA_XSP16, literal(-6)))
          CFI ?RET_LOW load(1, XDATA, add(CFA_XSP16, literal(-5)))
          CFI ?RET_HIGH load(1, XDATA, add(CFA_XSP16, literal(-4)))
          CFI ?BRET_EXT load(1, XDATA, add(CFA_XSP16, literal(-3)))
          CFI DPL0 load(1, XDATA, add(CFA_XSP16, literal(-2)))
          CFI DPH0 load(1, XDATA, add(CFA_XSP16, literal(-1)))
          CFI CFA_SP SP+-2
          CFI CFA_XSP16 add(XSP16, 18)
          CFI Block cfiCond109 Using cfiCommon0
          CFI (cfiCond109) Function ZDO_AddrChangeIndicationCB
          CFI (cfiCond109) Conditional ??CrossCallReturnLabel_65
          CFI (cfiCond109) R6 load(1, XDATA, add(CFA_XSP16, literal(-14)))
          CFI (cfiCond109) VB load(1, XDATA, add(CFA_XSP16, literal(-13)))
          CFI (cfiCond109) V0 load(1, XDATA, add(CFA_XSP16, literal(-12)))
          CFI (cfiCond109) V1 load(1, XDATA, add(CFA_XSP16, literal(-11)))
          CFI (cfiCond109) V2 load(1, XDATA, add(CFA_XSP16, literal(-10)))
          CFI (cfiCond109) V3 load(1, XDATA, add(CFA_XSP16, literal(-9)))
          CFI (cfiCond109) V4 load(1, XDATA, add(CFA_XSP16, literal(-8)))
          CFI (cfiCond109) V5 load(1, XDATA, add(CFA_XSP16, literal(-7)))
          CFI (cfiCond109) R7 load(1, XDATA, add(CFA_XSP16, literal(-6)))
          CFI (cfiCond109) ?RET_LOW load(1, XDATA, add(CFA_XSP16, literal(-5)))
          CFI (cfiCond109) ?RET_HIGH load(1, XDATA, add(CFA_XSP16, literal(-4)))
          CFI (cfiCond109) ?BRET_EXT load(1, XDATA, add(CFA_XSP16, literal(-3)))
          CFI (cfiCond109) DPL0 load(1, XDATA, add(CFA_XSP16, literal(-2)))
          CFI (cfiCond109) DPH0 load(1, XDATA, add(CFA_XSP16, literal(-1)))
          CFI (cfiCond109) CFA_SP SP+-2
          CFI (cfiCond109) CFA_XSP16 add(XSP16, 14)
          CFI Block cfiCond110 Using cfiCommon0
          CFI (cfiCond110) Function ZDO_AddrChangeIndicationCB
          CFI (cfiCond110) Conditional ??CrossCallReturnLabel_66
          CFI (cfiCond110) R6 load(1, XDATA, add(CFA_XSP16, literal(-14)))
          CFI (cfiCond110) VB load(1, XDATA, add(CFA_XSP16, literal(-13)))
          CFI (cfiCond110) V0 load(1, XDATA, add(CFA_XSP16, literal(-12)))
          CFI (cfiCond110) V1 load(1, XDATA, add(CFA_XSP16, literal(-11)))
          CFI (cfiCond110) V2 load(1, XDATA, add(CFA_XSP16, literal(-10)))
          CFI (cfiCond110) V3 load(1, XDATA, add(CFA_XSP16, literal(-9)))
          CFI (cfiCond110) V4 load(1, XDATA, add(CFA_XSP16, literal(-8)))
          CFI (cfiCond110) V5 load(1, XDATA, add(CFA_XSP16, literal(-7)))
          CFI (cfiCond110) R7 load(1, XDATA, add(CFA_XSP16, literal(-6)))
          CFI (cfiCond110) ?RET_LOW load(1, XDATA, add(CFA_XSP16, literal(-5)))
          CFI (cfiCond110) ?RET_HIGH load(1, XDATA, add(CFA_XSP16, literal(-4)))
          CFI (cfiCond110) ?BRET_EXT load(1, XDATA, add(CFA_XSP16, literal(-3)))
          CFI (cfiCond110) DPL0 load(1, XDATA, add(CFA_XSP16, literal(-2)))
          CFI (cfiCond110) DPH0 load(1, XDATA, add(CFA_XSP16, literal(-1)))
          CFI (cfiCond110) CFA_SP SP+-2
          CFI (cfiCond110) CFA_XSP16 add(XSP16, 14)
          CFI Block cfiCond111 Using cfiCommon0
          CFI (cfiCond111) Function ZDApp_NwkDescListProcessing
          CFI (cfiCond111) Conditional ??CrossCallReturnLabel_67
          CFI (cfiCond111) R6 load(1, XDATA, add(CFA_XSP16, literal(-14)))
          CFI (cfiCond111) VB load(1, XDATA, add(CFA_XSP16, literal(-13)))
          CFI (cfiCond111) V0 load(1, XDATA, add(CFA_XSP16, literal(-12)))
          CFI (cfiCond111) V1 load(1, XDATA, add(CFA_XSP16, literal(-11)))
          CFI (cfiCond111) V2 load(1, XDATA, add(CFA_XSP16, literal(-10)))
          CFI (cfiCond111) V3 load(1, XDATA, add(CFA_XSP16, literal(-9)))
          CFI (cfiCond111) V4 load(1, XDATA, add(CFA_XSP16, literal(-8)))
          CFI (cfiCond111) V5 load(1, XDATA, add(CFA_XSP16, literal(-7)))
          CFI (cfiCond111) R7 load(1, XDATA, add(CFA_XSP16, literal(-6)))
          CFI (cfiCond111) ?RET_LOW load(1, XDATA, add(CFA_XSP16, literal(-5)))
          CFI (cfiCond111) ?RET_HIGH load(1, XDATA, add(CFA_XSP16, literal(-4)))
          CFI (cfiCond111) ?BRET_EXT load(1, XDATA, add(CFA_XSP16, literal(-3)))
          CFI (cfiCond111) DPL0 load(1, XDATA, add(CFA_XSP16, literal(-2)))
          CFI (cfiCond111) DPH0 load(1, XDATA, add(CFA_XSP16, literal(-1)))
          CFI (cfiCond111) CFA_SP SP+-2
          CFI (cfiCond111) CFA_XSP16 add(XSP16, 14)
          CFI Block cfiCond112 Using cfiCommon0
          CFI (cfiCond112) Function ZDApp_NwkDescListProcessing
          CFI (cfiCond112) Conditional ??CrossCallReturnLabel_68
          CFI (cfiCond112) R6 load(1, XDATA, add(CFA_XSP16, literal(-14)))
          CFI (cfiCond112) VB load(1, XDATA, add(CFA_XSP16, literal(-13)))
          CFI (cfiCond112) V0 load(1, XDATA, add(CFA_XSP16, literal(-12)))
          CFI (cfiCond112) V1 load(1, XDATA, add(CFA_XSP16, literal(-11)))
          CFI (cfiCond112) V2 load(1, XDATA, add(CFA_XSP16, literal(-10)))
          CFI (cfiCond112) V3 load(1, XDATA, add(CFA_XSP16, literal(-9)))
          CFI (cfiCond112) V4 load(1, XDATA, add(CFA_XSP16, literal(-8)))
          CFI (cfiCond112) V5 load(1, XDATA, add(CFA_XSP16, literal(-7)))
          CFI (cfiCond112) R7 load(1, XDATA, add(CFA_XSP16, literal(-6)))
          CFI (cfiCond112) ?RET_LOW load(1, XDATA, add(CFA_XSP16, literal(-5)))
          CFI (cfiCond112) ?RET_HIGH load(1, XDATA, add(CFA_XSP16, literal(-4)))
          CFI (cfiCond112) ?BRET_EXT load(1, XDATA, add(CFA_XSP16, literal(-3)))
          CFI (cfiCond112) DPL0 load(1, XDATA, add(CFA_XSP16, literal(-2)))
          CFI (cfiCond112) DPH0 load(1, XDATA, add(CFA_XSP16, literal(-1)))
          CFI (cfiCond112) CFA_SP SP+-2
          CFI (cfiCond112) CFA_XSP16 add(XSP16, 14)
          CFI Block cfiCond113 Using cfiCommon0
          CFI (cfiCond113) Function ZDO_beaconNotifyIndCB
          CFI (cfiCond113) Conditional ??CrossCallReturnLabel_69
          CFI (cfiCond113) R6 load(1, XDATA, add(CFA_XSP16, literal(-18)))
          CFI (cfiCond113) VB load(1, XDATA, add(CFA_XSP16, literal(-17)))
          CFI (cfiCond113) V0 load(1, XDATA, add(CFA_XSP16, literal(-16)))
          CFI (cfiCond113) V1 load(1, XDATA, add(CFA_XSP16, literal(-15)))
          CFI (cfiCond113) V2 load(1, XDATA, add(CFA_XSP16, literal(-14)))
          CFI (cfiCond113) V3 load(1, XDATA, add(CFA_XSP16, literal(-13)))
          CFI (cfiCond113) V4 load(1, XDATA, add(CFA_XSP16, literal(-12)))
          CFI (cfiCond113) V5 load(1, XDATA, add(CFA_XSP16, literal(-11)))
          CFI (cfiCond113) V6 load(1, XDATA, add(CFA_XSP16, literal(-10)))
          CFI (cfiCond113) V7 load(1, XDATA, add(CFA_XSP16, literal(-9)))
          CFI (cfiCond113) V8 load(1, XDATA, add(CFA_XSP16, literal(-8)))
          CFI (cfiCond113) V9 load(1, XDATA, add(CFA_XSP16, literal(-7)))
          CFI (cfiCond113) R7 load(1, XDATA, add(CFA_XSP16, literal(-6)))
          CFI (cfiCond113) ?RET_LOW load(1, XDATA, add(CFA_XSP16, literal(-5)))
          CFI (cfiCond113) ?RET_HIGH load(1, XDATA, add(CFA_XSP16, literal(-4)))
          CFI (cfiCond113) ?BRET_EXT load(1, XDATA, add(CFA_XSP16, literal(-3)))
          CFI (cfiCond113) DPL0 load(1, XDATA, add(CFA_XSP16, literal(-2)))
          CFI (cfiCond113) DPH0 load(1, XDATA, add(CFA_XSP16, literal(-1)))
          CFI (cfiCond113) CFA_SP SP+-2
          CFI (cfiCond113) CFA_XSP16 add(XSP16, 18)
          CFI Block cfiPicker114 Using cfiCommon1
          CFI (cfiPicker114) NoFunction
          CFI (cfiPicker114) Picker
        MOVX    A,@DPTR
        MOV     R6,A
        INC     DPTR
        MOVX    A,@DPTR
        MOV     R7,A
        RET
          CFI (cfiCond108) CFA_SP SP+0
          CFI (cfiCond109) CFA_SP SP+0
          CFI (cfiCond110) CFA_SP SP+0
          CFI (cfiCond111) CFA_SP SP+0
          CFI (cfiCond112) CFA_SP SP+0
          CFI (cfiCond113) CFA_SP SP+0
          CFI (cfiPicker114) CFA_SP SP+0
          CFI EndBlock cfiCond108
          CFI EndBlock cfiCond109
          CFI EndBlock cfiCond110
          CFI EndBlock cfiCond111
          CFI EndBlock cfiCond112
          CFI EndBlock cfiCond113
          CFI EndBlock cfiPicker114

        RSEG BANKED_CODE:CODE:NOROOT(0)
?Subroutine21:
          CFI Block cfiCond115 Using cfiCommon0
          CFI Function ZDApp_SecInit
          CFI Conditional ??CrossCallReturnLabel_22
          CFI R6 load(1, XDATA, add(CFA_XSP16, literal(-9)))
          CFI VB load(1, XDATA, add(CFA_XSP16, literal(-8)))
          CFI V0 load(1, XDATA, add(CFA_XSP16, literal(-7)))
          CFI R7 load(1, XDATA, add(CFA_XSP16, literal(-6)))
          CFI ?RET_LOW load(1, XDATA, add(CFA_XSP16, literal(-5)))
          CFI ?RET_HIGH load(1, XDATA, add(CFA_XSP16, literal(-4)))
          CFI ?BRET_EXT load(1, XDATA, add(CFA_XSP16, literal(-3)))
          CFI DPL0 load(1, XDATA, add(CFA_XSP16, literal(-2)))
          CFI DPH0 load(1, XDATA, add(CFA_XSP16, literal(-1)))
          CFI CFA_SP SP+-2
          CFI CFA_XSP16 add(XSP16, 25)
          CFI Block cfiCond116 Using cfiCommon0
          CFI (cfiCond116) Function ZDO_AddrChangeIndicationCB
          CFI (cfiCond116) Conditional ??CrossCallReturnLabel_23
          CFI (cfiCond116) R6 load(1, XDATA, add(CFA_XSP16, literal(-14)))
          CFI (cfiCond116) VB load(1, XDATA, add(CFA_XSP16, literal(-13)))
          CFI (cfiCond116) V0 load(1, XDATA, add(CFA_XSP16, literal(-12)))
          CFI (cfiCond116) V1 load(1, XDATA, add(CFA_XSP16, literal(-11)))
          CFI (cfiCond116) V2 load(1, XDATA, add(CFA_XSP16, literal(-10)))
          CFI (cfiCond116) V3 load(1, XDATA, add(CFA_XSP16, literal(-9)))
          CFI (cfiCond116) V4 load(1, XDATA, add(CFA_XSP16, literal(-8)))
          CFI (cfiCond116) V5 load(1, XDATA, add(CFA_XSP16, literal(-7)))
          CFI (cfiCond116) R7 load(1, XDATA, add(CFA_XSP16, literal(-6)))
          CFI (cfiCond116) ?RET_LOW load(1, XDATA, add(CFA_XSP16, literal(-5)))
          CFI (cfiCond116) ?RET_HIGH load(1, XDATA, add(CFA_XSP16, literal(-4)))
          CFI (cfiCond116) ?BRET_EXT load(1, XDATA, add(CFA_XSP16, literal(-3)))
          CFI (cfiCond116) DPL0 load(1, XDATA, add(CFA_XSP16, literal(-2)))
          CFI (cfiCond116) DPH0 load(1, XDATA, add(CFA_XSP16, literal(-1)))
          CFI (cfiCond116) CFA_SP SP+-2
          CFI (cfiCond116) CFA_XSP16 add(XSP16, 14)
          CFI Block cfiCond117 Using cfiCommon0
          CFI (cfiCond117) Function ZDO_AddrChangeIndicationCB
          CFI (cfiCond117) Conditional ??CrossCallReturnLabel_24
          CFI (cfiCond117) R6 load(1, XDATA, add(CFA_XSP16, literal(-14)))
          CFI (cfiCond117) VB load(1, XDATA, add(CFA_XSP16, literal(-13)))
          CFI (cfiCond117) V0 load(1, XDATA, add(CFA_XSP16, literal(-12)))
          CFI (cfiCond117) V1 load(1, XDATA, add(CFA_XSP16, literal(-11)))
          CFI (cfiCond117) V2 load(1, XDATA, add(CFA_XSP16, literal(-10)))
          CFI (cfiCond117) V3 load(1, XDATA, add(CFA_XSP16, literal(-9)))
          CFI (cfiCond117) V4 load(1, XDATA, add(CFA_XSP16, literal(-8)))
          CFI (cfiCond117) V5 load(1, XDATA, add(CFA_XSP16, literal(-7)))
          CFI (cfiCond117) R7 load(1, XDATA, add(CFA_XSP16, literal(-6)))
          CFI (cfiCond117) ?RET_LOW load(1, XDATA, add(CFA_XSP16, literal(-5)))
          CFI (cfiCond117) ?RET_HIGH load(1, XDATA, add(CFA_XSP16, literal(-4)))
          CFI (cfiCond117) ?BRET_EXT load(1, XDATA, add(CFA_XSP16, literal(-3)))
          CFI (cfiCond117) DPL0 load(1, XDATA, add(CFA_XSP16, literal(-2)))
          CFI (cfiCond117) DPH0 load(1, XDATA, add(CFA_XSP16, literal(-1)))
          CFI (cfiCond117) CFA_SP SP+-2
          CFI (cfiCond117) CFA_XSP16 add(XSP16, 14)
          CFI Block cfiPicker118 Using cfiCommon1
          CFI (cfiPicker118) NoFunction
          CFI (cfiPicker118) Picker
        LCALL   ?Subroutine37 & 0xFFFF
??CrossCallReturnLabel_57:
        MOVX    A,@DPTR
        RET
          CFI (cfiCond115) CFA_SP SP+0
          CFI (cfiCond116) CFA_SP SP+0
          CFI (cfiCond117) CFA_SP SP+0
          CFI (cfiPicker118) CFA_SP SP+0
          CFI EndBlock cfiCond115
          CFI EndBlock cfiCond116
          CFI EndBlock cfiCond117
          CFI EndBlock cfiPicker118

        RSEG BANKED_CODE:CODE:NOROOT(0)
?Subroutine17:
          CFI Block cfiCond119 Using cfiCommon0
          CFI Function ZDO_beaconNotifyIndCB
          CFI Conditional ??CrossCallReturnLabel_12
          CFI R6 load(1, XDATA, add(CFA_XSP16, literal(-18)))
          CFI VB load(1, XDATA, add(CFA_XSP16, literal(-17)))
          CFI V0 load(1, XDATA, add(CFA_XSP16, literal(-16)))
          CFI V1 load(1, XDATA, add(CFA_XSP16, literal(-15)))
          CFI V2 load(1, XDATA, add(CFA_XSP16, literal(-14)))
          CFI V3 load(1, XDATA, add(CFA_XSP16, literal(-13)))
          CFI V4 load(1, XDATA, add(CFA_XSP16, literal(-12)))
          CFI V5 load(1, XDATA, add(CFA_XSP16, literal(-11)))
          CFI V6 load(1, XDATA, add(CFA_XSP16, literal(-10)))
          CFI V7 load(1, XDATA, add(CFA_XSP16, literal(-9)))
          CFI V8 load(1, XDATA, add(CFA_XSP16, literal(-8)))
          CFI V9 load(1, XDATA, add(CFA_XSP16, literal(-7)))
          CFI R7 load(1, XDATA, add(CFA_XSP16, literal(-6)))
          CFI ?RET_LOW load(1, XDATA, add(CFA_XSP16, literal(-5)))
          CFI ?RET_HIGH load(1, XDATA, add(CFA_XSP16, literal(-4)))
          CFI ?BRET_EXT load(1, XDATA, add(CFA_XSP16, literal(-3)))
          CFI DPL0 load(1, XDATA, add(CFA_XSP16, literal(-2)))
          CFI DPH0 load(1, XDATA, add(CFA_XSP16, literal(-1)))
          CFI CFA_SP SP+-2
          CFI CFA_XSP16 add(XSP16, 18)
          CFI Block cfiCond120 Using cfiCommon0
          CFI (cfiCond120) Function ZDO_AddrChangeIndicationCB
          CFI (cfiCond120) Conditional ??CrossCallReturnLabel_13
          CFI (cfiCond120) R6 load(1, XDATA, add(CFA_XSP16, literal(-14)))
          CFI (cfiCond120) VB load(1, XDATA, add(CFA_XSP16, literal(-13)))
          CFI (cfiCond120) V0 load(1, XDATA, add(CFA_XSP16, literal(-12)))
          CFI (cfiCond120) V1 load(1, XDATA, add(CFA_XSP16, literal(-11)))
          CFI (cfiCond120) V2 load(1, XDATA, add(CFA_XSP16, literal(-10)))
          CFI (cfiCond120) V3 load(1, XDATA, add(CFA_XSP16, literal(-9)))
          CFI (cfiCond120) V4 load(1, XDATA, add(CFA_XSP16, literal(-8)))
          CFI (cfiCond120) V5 load(1, XDATA, add(CFA_XSP16, literal(-7)))
          CFI (cfiCond120) R7 load(1, XDATA, add(CFA_XSP16, literal(-6)))
          CFI (cfiCond120) ?RET_LOW load(1, XDATA, add(CFA_XSP16, literal(-5)))
          CFI (cfiCond120) ?RET_HIGH load(1, XDATA, add(CFA_XSP16, literal(-4)))
          CFI (cfiCond120) ?BRET_EXT load(1, XDATA, add(CFA_XSP16, literal(-3)))
          CFI (cfiCond120) DPL0 load(1, XDATA, add(CFA_XSP16, literal(-2)))
          CFI (cfiCond120) DPH0 load(1, XDATA, add(CFA_XSP16, literal(-1)))
          CFI (cfiCond120) CFA_SP SP+-2
          CFI (cfiCond120) CFA_XSP16 add(XSP16, 14)
          CFI Block cfiPicker121 Using cfiCommon1
          CFI (cfiPicker121) NoFunction
          CFI (cfiPicker121) Picker
        MOVX    @DPTR,A
        ; Setup parameters for call to function osal_msg_send
        MOV     DPL,?V2
        MOV     DPH,?V3
        MOVX    A,@DPTR
        RET
          CFI (cfiCond119) CFA_SP SP+0
          CFI (cfiCond120) CFA_SP SP+0
          CFI (cfiPicker121) CFA_SP SP+0
          CFI EndBlock cfiCond119
          CFI EndBlock cfiCond120
          CFI EndBlock cfiPicker121
// 2808 
// 2809 /*********************************************************************
// 2810  * @fn          ZDO_JoinIndicationCB
// 2811  *
// 2812  * @brief       This function allows the next higher layer of a
// 2813  *              coordinator to be notified of a remote join request.
// 2814  *
// 2815  * @param       ShortAddress - 16-bit address
// 2816  * @param       ExtendedAddress - IEEE (64-bit) address
// 2817  * @param       CapabilityFlags - Association Capability Flags
// 2818  * @param       type - of joining -
// 2819  *                          NWK_ASSOC_JOIN
// 2820  *                          NWK_ASSOC_REJOIN_UNSECURE
// 2821  *                          NWK_ASSOC_REJOIN_SECURE
// 2822  *
// 2823  * @return      ZStatus_t
// 2824  */

        RSEG BANKED_CODE:CODE:NOROOT(0)
// 2825 ZStatus_t ZDO_JoinIndicationCB(uint16 ShortAddress, uint8 *ExtendedAddress,
ZDO_JoinIndicationCB:
          CFI Block cfiBlock122 Using cfiCommon0
          CFI Function ZDO_JoinIndicationCB
        CODE
// 2826                                 uint8 CapabilityFlags, uint8 type)
// 2827 {
        FUNCALL ZDO_JoinIndicationCB, osal_mem_alloc
        LOCFRAME ISTACK, 0, STACK
        LOCFRAME PSTACK, 0, STACK
        LOCFRAME XSTACK, 16, STACK
        LOCFRAME IOVERLAY, 0, STATIC
        LOCFRAME DOVERLAY, 0, STATIC
        ARGFRAME ISTACK, 0, STACK
        ARGFRAME PSTACK, 0, STACK
        ARGFRAME XSTACK, 16, STACK
        ARGFRAME IOVERLAY, 0, STATIC
        ARGFRAME DOVERLAY, 0, STATIC
        FUNCALL ZDO_JoinIndicationCB, osal_get_timeoutEx
        LOCFRAME ISTACK, 0, STACK
        LOCFRAME PSTACK, 0, STACK
        LOCFRAME XSTACK, 16, STACK
        LOCFRAME IOVERLAY, 0, STATIC
        LOCFRAME DOVERLAY, 0, STATIC
        ARGFRAME ISTACK, 0, STACK
        ARGFRAME PSTACK, 0, STACK
        ARGFRAME XSTACK, 16, STACK
        ARGFRAME IOVERLAY, 0, STATIC
        ARGFRAME DOVERLAY, 0, STATIC
        FUNCALL ZDO_JoinIndicationCB, osal_start_timerEx
        LOCFRAME ISTACK, 0, STACK
        LOCFRAME PSTACK, 0, STACK
        LOCFRAME XSTACK, 20, STACK
        LOCFRAME IOVERLAY, 0, STATIC
        LOCFRAME DOVERLAY, 0, STATIC
        ARGFRAME ISTACK, 0, STACK
        ARGFRAME PSTACK, 0, STACK
        ARGFRAME XSTACK, 20, STACK
        ARGFRAME IOVERLAY, 0, STATIC
        ARGFRAME DOVERLAY, 0, STATIC
        REQUIRE ?V0
        REQUIRE ?V1
        REQUIRE ?V2
        REQUIRE ?V3
        REQUIRE ?V4
        REQUIRE ?V5
        REQUIRE ?V6
        REQUIRE ?V7
        MOV     A,#-0x10
        LCALL   ?BANKED_ENTER_XDATA
          CFI DPH0 load(1, XDATA, add(CFA_XSP16, literal(-1)))
          CFI DPL0 load(1, XDATA, add(CFA_XSP16, literal(-2)))
          CFI ?BRET_EXT load(1, XDATA, add(CFA_XSP16, literal(-3)))
          CFI ?RET_HIGH load(1, XDATA, add(CFA_XSP16, literal(-4)))
          CFI ?RET_LOW load(1, XDATA, add(CFA_XSP16, literal(-5)))
          CFI R7 load(1, XDATA, add(CFA_XSP16, literal(-6)))
          CFI V7 load(1, XDATA, add(CFA_XSP16, literal(-7)))
          CFI V6 load(1, XDATA, add(CFA_XSP16, literal(-8)))
          CFI V5 load(1, XDATA, add(CFA_XSP16, literal(-9)))
          CFI V4 load(1, XDATA, add(CFA_XSP16, literal(-10)))
          CFI V3 load(1, XDATA, add(CFA_XSP16, literal(-11)))
          CFI V2 load(1, XDATA, add(CFA_XSP16, literal(-12)))
          CFI V1 load(1, XDATA, add(CFA_XSP16, literal(-13)))
          CFI V0 load(1, XDATA, add(CFA_XSP16, literal(-14)))
          CFI VB load(1, XDATA, add(CFA_XSP16, literal(-15)))
          CFI R6 load(1, XDATA, add(CFA_XSP16, literal(-16)))
          CFI CFA_SP SP+0
          CFI CFA_XSP16 add(XSP16, 16)
        ; Saved register size: 16
        ; Auto size: 0
        MOV     ?V0,R2
        MOV     ?V1,R3
        MOV     A,#0x10
        LCALL   ?XSTACK_DISP0_8
        MOVX    A,@DPTR
        MOV     R0,A
// 2828   (void)ExtendedAddress;
// 2829 #if ZDO_NV_SAVE_RFDs
// 2830   (void)CapabilityFlags;
// 2831 
// 2832 #else  // if !ZDO_NV_SAVE_RFDs
// 2833   if (CapabilityFlags & CAPINFO_DEVICETYPE_FFD)
// 2834 #endif
// 2835   {
// 2836     ZDApp_NVUpdate();  // Notify to save info into NV.
// 2837   }
// 2838 
// 2839   if (ZG_SECURE_ENABLED)  // Send notification to TC of new device.
// 2840   {
// 2841     if ( type == NWK_ASSOC_JOIN ||
// 2842          type == NWK_ASSOC_REJOIN_UNSECURE ||
// 2843          type == NWK_ASSOC_REJOIN_SECURE )
        JZ      ??ZDO_JoinIndicationCB_0
        MOV     A,#0x1
        XRL     A,R0
        JZ      ??ZDO_JoinIndicationCB_0
        MOV     A,#0x2
        XRL     A,R0
        JZ      $+5
        LJMP    ??ZDO_JoinIndicationCB_1 & 0xFFFF
// 2844     {
// 2845       uint16 timeToFire;
// 2846       ZDAppNewDevice_t *pNewDevice, *pDeviceList;
// 2847 
// 2848       pNewDevice = (ZDAppNewDevice_t *) osal_mem_alloc( sizeof(ZDAppNewDevice_t) );
??ZDO_JoinIndicationCB_0:
        ; Setup parameters for call to function osal_mem_alloc
        MOV     R2,#0x6
        MOV     R3,#0x0
        LCALL   `??osal_mem_alloc::?relay`; Banked call to: osal_mem_alloc
        MOV     ?V2,R2
        MOV     ?V3,R3
        MOV     R6,?V2
        MOV     R7,?V3
// 2849 
// 2850       if ( pNewDevice == NULL )
        MOV     A,R6
        ORL     A,R7
        JNZ     ??ZDO_JoinIndicationCB_2
// 2851       {
// 2852         // Memory alloc failed
// 2853         return ZMemError;
        MOV     R1,#0x10
        LJMP    ??ZDO_JoinIndicationCB_3 & 0xFFFF
// 2854       }
// 2855 
// 2856       // Add the new device to the New Device List
// 2857       if ( ZDApp_NewDeviceList == NULL )
??ZDO_JoinIndicationCB_2:
        MOV     DPTR,#ZDApp_NewDeviceList
        LCALL   ??Subroutine51_0 & 0xFFFF
??CrossCallReturnLabel_87:
        MOV     DPTR,#ZDApp_NewDeviceList
        JNZ     ??ZDO_JoinIndicationCB_4
// 2858       {
// 2859         // The list is empty, add the first element
// 2860         ZDApp_NewDeviceList = pNewDevice;
        MOV     A,R6
        MOVX    @DPTR,A
        INC     DPTR
        MOV     A,R7
        SJMP    ??ZDO_JoinIndicationCB_5
// 2861       }
// 2862       else
// 2863       {
// 2864         pDeviceList = ZDApp_NewDeviceList;
??ZDO_JoinIndicationCB_4:
        MOVX    A,@DPTR
        MOV     R2,A
        INC     DPTR
        MOVX    A,@DPTR
        SJMP    ??ZDO_JoinIndicationCB_6
// 2865 
// 2866         // Walk the list to last element
// 2867         while ( pDeviceList->next )
// 2868         {
// 2869           pDeviceList = (ZDAppNewDevice_t *) pDeviceList->next;
??ZDO_JoinIndicationCB_7:
        MOV     A,R0
        MOV     R2,A
        MOV     A,R1
??ZDO_JoinIndicationCB_6:
        MOV     R3,A
// 2870         }
        MOV     DPL,R2
        MOV     DPH,R3
        LCALL   ??Subroutine51_0 & 0xFFFF
??CrossCallReturnLabel_88:
        JNZ     ??ZDO_JoinIndicationCB_7
// 2871 
// 2872         // Add new device at the end
// 2873         pDeviceList->next = pNewDevice;
        MOV     A,R6
        MOV     R0,A
        MOV     A,R7
        MOV     R1,A
        MOV     DPL,R2
        MOV     DPH,R3
        MOV     A,R0
        MOVX    @DPTR,A
        INC     DPTR
        MOV     A,R1
??ZDO_JoinIndicationCB_5:
        MOVX    @DPTR,A
// 2874       }
// 2875 
// 2876       // get the remaining time of the timer
// 2877       timeToFire = osal_get_timeoutEx( ZDAppTaskID, ZDO_NEW_DEVICE );
        ; Setup parameters for call to function osal_get_timeoutEx
        MOV     R2,#0x40
        MOV     R3,#0x0
        MOV     DPTR,#ZDAppTaskID
        MOVX    A,@DPTR
        MOV     R1,A
        LCALL   `??osal_get_timeoutEx::?relay`; Banked call to: osal_get_timeoutEx
        MOV     ?V4,R2
        MOV     ?V5,R3
// 2878 
// 2879       pNewDevice->next = NULL;
        MOV     DPL,R6
        MOV     DPH,R7
        CLR     A
        MOVX    @DPTR,A
        INC     DPTR
        MOVX    @DPTR,A
// 2880       pNewDevice->shortAddr = ShortAddress;
        MOV     DPL,R6
        MOV     DPH,R7
        INC     DPTR
        INC     DPTR
        MOV     A,?V0
        MOVX    @DPTR,A
        INC     DPTR
        MOV     A,?V1
        MOVX    @DPTR,A
// 2881       pNewDevice->timeDelta = ZDAPP_NEW_DEVICE_TIME - timeToFire;
        MOV     A,#0x58
        CLR     C
        SUBB    A,?V4
        MOV     R0,A
        MOV     A,#0x2
        SUBB    A,?V5
        MOV     R1,A
        MOV     DPL,R6
        MOV     DPH,R7
        LCALL   ?Subroutine16 & 0xFFFF
// 2882 
// 2883       // Start the timer only if there is no pending timer
// 2884       if ( pNewDevice->timeDelta == ZDAPP_NEW_DEVICE_TIME )
??CrossCallReturnLabel_63:
        MOV     A,#0x58
        XRL     A,R0
        JNZ     ??ZDO_JoinIndicationCB_8
        MOV     A,#0x2
        XRL     A,R1
??ZDO_JoinIndicationCB_8:
        JNZ     ??ZDO_JoinIndicationCB_1
// 2885       {
// 2886         osal_start_timerEx( ZDAppTaskID, ZDO_NEW_DEVICE, ZDAPP_NEW_DEVICE_TIME );
        ; Setup parameters for call to function osal_start_timerEx
        MOV     DPTR,#__Constant_258
        LCALL   ?PUSH_XSTACK8_X_FOUR
          CFI CFA_XSP16 add(XSP16, 20)
        MOV     R2,#0x40
        MOV     R3,#0x0
        MOV     DPTR,#ZDAppTaskID
        MOVX    A,@DPTR
        MOV     R1,A
        LCALL   `??osal_start_timerEx::?relay`; Banked call to: osal_start_timerEx
        MOV     A,#0x4
        LCALL   ?DEALLOC_XSTACK8
          CFI CFA_XSP16 add(XSP16, 16)
// 2887       }
// 2888     }
// 2889   }
// 2890 
// 2891   return ZSuccess;
??ZDO_JoinIndicationCB_1:
        MOV     R1,#0x0
??ZDO_JoinIndicationCB_3:
        MOV     R7,#0x8
        LJMP    ?BANKED_LEAVE_XDATA
          CFI R6 SameValue
          CFI VB SameValue
          CFI V0 SameValue
          CFI V1 SameValue
          CFI V2 SameValue
          CFI V3 SameValue
          CFI V4 SameValue
          CFI V5 SameValue
          CFI V6 SameValue
          CFI V7 SameValue
          CFI R7 SameValue
          CFI ?RET_LOW Frame(CFA_SP, 1)
          CFI ?RET_HIGH Frame(CFA_SP, 2)
          CFI ?BRET_EXT Frame(CFA_SP, 3)
          CFI DPL0 SameValue
          CFI DPH0 SameValue
          CFI CFA_SP SP+-3
          CFI CFA_XSP16 XSP16+0
// 2892 }
          CFI EndBlock cfiBlock122
// 2893 
// 2894 /*********************************************************************
// 2895  * @fn          ZDO_ConcentratorIndicationCB
// 2896  *
// 2897  * @brief       This function allows the next higher layer of a
// 2898  *              device to be notified of existence of the concentrator.
// 2899  *
// 2900  * @param       nwkAddr - 16-bit NWK address of the concentrator
// 2901  * @param       extAddr - pointer to extended Address
// 2902  *                        NULL if not available
// 2903  * @param       pktCost - PktCost from RREQ
// 2904  *
// 2905  * @return      void
// 2906  */

        RSEG BANKED_CODE:CODE:NOROOT(0)
// 2907 void ZDO_ConcentratorIndicationCB( uint16 nwkAddr, uint8 *extAddr, uint8 pktCost )
ZDO_ConcentratorIndicationCB:
          CFI Block cfiBlock123 Using cfiCommon0
          CFI Function ZDO_ConcentratorIndicationCB
        CODE
// 2908 {
        MOV     A,#-0x9
        LCALL   ?BANKED_ENTER_XDATA
          CFI DPH0 load(1, XDATA, add(CFA_XSP16, literal(-1)))
          CFI DPL0 load(1, XDATA, add(CFA_XSP16, literal(-2)))
          CFI ?BRET_EXT load(1, XDATA, add(CFA_XSP16, literal(-3)))
          CFI ?RET_HIGH load(1, XDATA, add(CFA_XSP16, literal(-4)))
          CFI ?RET_LOW load(1, XDATA, add(CFA_XSP16, literal(-5)))
          CFI R7 load(1, XDATA, add(CFA_XSP16, literal(-6)))
          CFI V0 load(1, XDATA, add(CFA_XSP16, literal(-7)))
          CFI VB load(1, XDATA, add(CFA_XSP16, literal(-8)))
          CFI R6 load(1, XDATA, add(CFA_XSP16, literal(-9)))
          CFI CFA_SP SP+0
          CFI CFA_XSP16 add(XSP16, 9)
        ; Saved register size: 9
        ; Auto size: 5
        MOV     A,#-0x5
        LCALL   ?ALLOC_XSTACK8
          CFI CFA_XSP16 add(XSP16, 14)
// 2909   zdoConcentratorInd_t conInd;
// 2910 
// 2911   conInd.nwkAddr = nwkAddr;
        LCALL   ?Subroutine12 & 0xFFFF
// 2912   conInd.extAddr = extAddr;
??CrossCallReturnLabel_104:
        MOV     A,#0x2
        LCALL   ?XSTACK_DISP0_8
        MOV     A,R4
        MOVX    @DPTR,A
        INC     DPTR
        MOV     A,R5
        MOVX    @DPTR,A
// 2913   conInd.pktCost = pktCost;
        MOV     A,#0x4
        LCALL   ?XSTACK_DISP0_8
        MOV     A,R1
        MOVX    @DPTR,A
// 2914 
// 2915   if( zdoCBFunc[ZDO_CONCENTRATOR_IND_CBID] != NULL )
        MOV     DPTR,#zdoCBFunc + 2
        LCALL   ?Subroutine18 & 0xFFFF
??CrossCallReturnLabel_17:
        JZ      ??ZDO_ConcentratorIndicationCB_0
// 2916   {
// 2917     zdoCBFunc[ZDO_CONCENTRATOR_IND_CBID]( (void*)&conInd );
        ; Setup parameters for indirect call
        MOV     R2,?XSP + 0
        MOV     R3,?XSP + 1
        LCALL   ?CALL_IND
// 2918   }
// 2919 }
??ZDO_ConcentratorIndicationCB_0:
          CFI EndBlock cfiBlock123
        REQUIRE ?Subroutine6
        ; // Fall through to label ?Subroutine6

        RSEG BANKED_CODE:CODE:NOROOT(0)
?Subroutine6:
          CFI Block cfiBlock124 Using cfiCommon0
          CFI NoFunction
          CFI CFA_SP SP+0
          CFI CFA_XSP16 add(XSP16, 14)
          CFI VB load(1, XDATA, add(CFA_XSP16, literal(-8)))
          CFI DPL0 load(1, XDATA, add(CFA_XSP16, literal(-2)))
          CFI DPH0 load(1, XDATA, add(CFA_XSP16, literal(-1)))
          CFI R6 load(1, XDATA, add(CFA_XSP16, literal(-9)))
          CFI R7 load(1, XDATA, add(CFA_XSP16, literal(-6)))
          CFI V0 load(1, XDATA, add(CFA_XSP16, literal(-7)))
          CFI ?BRET_EXT load(1, XDATA, add(CFA_XSP16, literal(-3)))
          CFI ?RET_HIGH load(1, XDATA, add(CFA_XSP16, literal(-4)))
          CFI ?RET_LOW load(1, XDATA, add(CFA_XSP16, literal(-5)))
        MOV     A,#0x5
          CFI EndBlock cfiBlock124
        REQUIRE ??Subroutine45_0
        ; // Fall through to label ??Subroutine45_0

        RSEG BANKED_CODE:CODE:NOROOT(0)
??Subroutine45_0:
          CFI Block cfiBlock125 Using cfiCommon0
          CFI NoFunction
          CFI CFA_SP SP+0
          CFI CFA_XSP16 add(XSP16, 25)
          CFI VB load(1, XDATA, add(CFA_XSP16, literal(-8)))
          CFI DPL0 load(1, XDATA, add(CFA_XSP16, literal(-2)))
          CFI DPH0 load(1, XDATA, add(CFA_XSP16, literal(-1)))
          CFI R6 load(1, XDATA, add(CFA_XSP16, literal(-9)))
          CFI R7 load(1, XDATA, add(CFA_XSP16, literal(-6)))
          CFI V0 load(1, XDATA, add(CFA_XSP16, literal(-7)))
          CFI ?BRET_EXT load(1, XDATA, add(CFA_XSP16, literal(-3)))
          CFI ?RET_HIGH load(1, XDATA, add(CFA_XSP16, literal(-4)))
          CFI ?RET_LOW load(1, XDATA, add(CFA_XSP16, literal(-5)))
          CFI Invalid
        LCALL   ?DEALLOC_XSTACK8
          CFI CFA_XSP16 add(XSP16, 9)
          CFI Valid
        SJMP    ??Subroutine46_0
          CFI EndBlock cfiBlock125

        RSEG BANKED_CODE:CODE:NOROOT(0)
?Subroutine18:
          CFI Block cfiCond126 Using cfiCommon0
          CFI Function ZDO_NetworkDiscoveryConfirmCB
          CFI Conditional ??CrossCallReturnLabel_14
          CFI DPL0 Frame(CFA_SP, 4)
          CFI DPH0 Frame(CFA_SP, 5)
          CFI CFA_SP SP+-7
          CFI CFA_XSP16 add(XSP16, 3)
          CFI Block cfiCond127 Using cfiCommon0
          CFI (cfiCond127) Function ZDO_beaconNotifyIndCB
          CFI (cfiCond127) Conditional ??CrossCallReturnLabel_15
          CFI (cfiCond127) R6 load(1, XDATA, add(CFA_XSP16, literal(-18)))
          CFI (cfiCond127) VB load(1, XDATA, add(CFA_XSP16, literal(-17)))
          CFI (cfiCond127) V0 load(1, XDATA, add(CFA_XSP16, literal(-16)))
          CFI (cfiCond127) V1 load(1, XDATA, add(CFA_XSP16, literal(-15)))
          CFI (cfiCond127) V2 load(1, XDATA, add(CFA_XSP16, literal(-14)))
          CFI (cfiCond127) V3 load(1, XDATA, add(CFA_XSP16, literal(-13)))
          CFI (cfiCond127) V4 load(1, XDATA, add(CFA_XSP16, literal(-12)))
          CFI (cfiCond127) V5 load(1, XDATA, add(CFA_XSP16, literal(-11)))
          CFI (cfiCond127) V6 load(1, XDATA, add(CFA_XSP16, literal(-10)))
          CFI (cfiCond127) V7 load(1, XDATA, add(CFA_XSP16, literal(-9)))
          CFI (cfiCond127) V8 load(1, XDATA, add(CFA_XSP16, literal(-8)))
          CFI (cfiCond127) V9 load(1, XDATA, add(CFA_XSP16, literal(-7)))
          CFI (cfiCond127) R7 load(1, XDATA, add(CFA_XSP16, literal(-6)))
          CFI (cfiCond127) ?RET_LOW load(1, XDATA, add(CFA_XSP16, literal(-5)))
          CFI (cfiCond127) ?RET_HIGH load(1, XDATA, add(CFA_XSP16, literal(-4)))
          CFI (cfiCond127) ?BRET_EXT load(1, XDATA, add(CFA_XSP16, literal(-3)))
          CFI (cfiCond127) DPL0 load(1, XDATA, add(CFA_XSP16, literal(-2)))
          CFI (cfiCond127) DPH0 load(1, XDATA, add(CFA_XSP16, literal(-1)))
          CFI (cfiCond127) CFA_SP SP+-2
          CFI (cfiCond127) CFA_XSP16 add(XSP16, 18)
          CFI Block cfiCond128 Using cfiCommon0
          CFI (cfiCond128) Function ZDO_PermitJoinCB
          CFI (cfiCond128) Conditional ??CrossCallReturnLabel_16
          CFI (cfiCond128) DPL0 Frame(CFA_SP, 4)
          CFI (cfiCond128) DPH0 Frame(CFA_SP, 5)
          CFI (cfiCond128) CFA_SP SP+-7
          CFI (cfiCond128) CFA_XSP16 add(XSP16, 1)
          CFI Block cfiCond129 Using cfiCommon0
          CFI (cfiCond129) Function ZDO_ConcentratorIndicationCB
          CFI (cfiCond129) Conditional ??CrossCallReturnLabel_17
          CFI (cfiCond129) R6 load(1, XDATA, add(CFA_XSP16, literal(-9)))
          CFI (cfiCond129) VB load(1, XDATA, add(CFA_XSP16, literal(-8)))
          CFI (cfiCond129) V0 load(1, XDATA, add(CFA_XSP16, literal(-7)))
          CFI (cfiCond129) R7 load(1, XDATA, add(CFA_XSP16, literal(-6)))
          CFI (cfiCond129) ?RET_LOW load(1, XDATA, add(CFA_XSP16, literal(-5)))
          CFI (cfiCond129) ?RET_HIGH load(1, XDATA, add(CFA_XSP16, literal(-4)))
          CFI (cfiCond129) ?BRET_EXT load(1, XDATA, add(CFA_XSP16, literal(-3)))
          CFI (cfiCond129) DPL0 load(1, XDATA, add(CFA_XSP16, literal(-2)))
          CFI (cfiCond129) DPH0 load(1, XDATA, add(CFA_XSP16, literal(-1)))
          CFI (cfiCond129) CFA_SP SP+-2
          CFI (cfiCond129) CFA_XSP16 add(XSP16, 14)
          CFI Block cfiCond130 Using cfiCommon0
          CFI (cfiCond130) Function ZDO_LeaveCnf
          CFI (cfiCond130) Conditional ??CrossCallReturnLabel_18
          CFI (cfiCond130) R6 load(1, XDATA, add(CFA_XSP16, literal(-10)))
          CFI (cfiCond130) VB load(1, XDATA, add(CFA_XSP16, literal(-9)))
          CFI (cfiCond130) V0 load(1, XDATA, add(CFA_XSP16, literal(-8)))
          CFI (cfiCond130) V1 load(1, XDATA, add(CFA_XSP16, literal(-7)))
          CFI (cfiCond130) R7 load(1, XDATA, add(CFA_XSP16, literal(-6)))
          CFI (cfiCond130) ?RET_LOW load(1, XDATA, add(CFA_XSP16, literal(-5)))
          CFI (cfiCond130) ?RET_HIGH load(1, XDATA, add(CFA_XSP16, literal(-4)))
          CFI (cfiCond130) ?BRET_EXT load(1, XDATA, add(CFA_XSP16, literal(-3)))
          CFI (cfiCond130) DPL0 load(1, XDATA, add(CFA_XSP16, literal(-2)))
          CFI (cfiCond130) DPH0 load(1, XDATA, add(CFA_XSP16, literal(-1)))
          CFI (cfiCond130) CFA_SP SP+-2
          CFI (cfiCond130) CFA_XSP16 add(XSP16, 10)
          CFI Block cfiCond131 Using cfiCommon0
          CFI (cfiCond131) Function ZDO_LeaveInd
          CFI (cfiCond131) Conditional ??CrossCallReturnLabel_19
          CFI (cfiCond131) R6 load(1, XDATA, add(CFA_XSP16, literal(-12)))
          CFI (cfiCond131) VB load(1, XDATA, add(CFA_XSP16, literal(-11)))
          CFI (cfiCond131) V0 load(1, XDATA, add(CFA_XSP16, literal(-10)))
          CFI (cfiCond131) V1 load(1, XDATA, add(CFA_XSP16, literal(-9)))
          CFI (cfiCond131) V2 load(1, XDATA, add(CFA_XSP16, literal(-8)))
          CFI (cfiCond131) V3 load(1, XDATA, add(CFA_XSP16, literal(-7)))
          CFI (cfiCond131) R7 load(1, XDATA, add(CFA_XSP16, literal(-6)))
          CFI (cfiCond131) ?RET_LOW load(1, XDATA, add(CFA_XSP16, literal(-5)))
          CFI (cfiCond131) ?RET_HIGH load(1, XDATA, add(CFA_XSP16, literal(-4)))
          CFI (cfiCond131) ?BRET_EXT load(1, XDATA, add(CFA_XSP16, literal(-3)))
          CFI (cfiCond131) DPL0 load(1, XDATA, add(CFA_XSP16, literal(-2)))
          CFI (cfiCond131) DPH0 load(1, XDATA, add(CFA_XSP16, literal(-1)))
          CFI (cfiCond131) CFA_SP SP+-2
          CFI (cfiCond131) CFA_XSP16 add(XSP16, 14)
          CFI Block cfiPicker132 Using cfiCommon1
          CFI (cfiPicker132) NoFunction
          CFI (cfiPicker132) Picker
        LCALL   ?Subroutine36 & 0xFFFF
??CrossCallReturnLabel_95:
        MOV     DPL,R0
        MOV     DPH,R1
        MOV     A,DPL
        ORL     A,DPH
        RET
          CFI (cfiCond126) CFA_SP SP+-5
          CFI (cfiCond127) CFA_SP SP+0
          CFI (cfiCond128) CFA_SP SP+-5
          CFI (cfiCond129) CFA_SP SP+0
          CFI (cfiCond130) CFA_SP SP+0
          CFI (cfiCond131) CFA_SP SP+0
          CFI (cfiPicker132) CFA_SP SP+0
          CFI EndBlock cfiCond126
          CFI EndBlock cfiCond127
          CFI EndBlock cfiCond128
          CFI EndBlock cfiCond129
          CFI EndBlock cfiCond130
          CFI EndBlock cfiCond131
          CFI EndBlock cfiPicker132

        RSEG BANKED_CODE:CODE:NOROOT(0)
?Subroutine0:
          CFI Block cfiBlock133 Using cfiCommon0
          CFI NoFunction
          CFI CFA_SP SP+0
          CFI CFA_XSP16 add(XSP16, 9)
          CFI VB load(1, XDATA, add(CFA_XSP16, literal(-8)))
          CFI DPL0 load(1, XDATA, add(CFA_XSP16, literal(-2)))
          CFI DPH0 load(1, XDATA, add(CFA_XSP16, literal(-1)))
          CFI R6 load(1, XDATA, add(CFA_XSP16, literal(-9)))
          CFI R7 load(1, XDATA, add(CFA_XSP16, literal(-6)))
          CFI V0 load(1, XDATA, add(CFA_XSP16, literal(-7)))
          CFI ?BRET_EXT load(1, XDATA, add(CFA_XSP16, literal(-3)))
          CFI ?RET_HIGH load(1, XDATA, add(CFA_XSP16, literal(-4)))
          CFI ?RET_LOW load(1, XDATA, add(CFA_XSP16, literal(-5)))
        MOV     R3,#0x0
        MOV     DPTR,#ZDAppTaskID
        MOVX    A,@DPTR
        MOV     R1,A
        LCALL   `??osal_set_event::?relay`; Banked call to: osal_set_event
          CFI EndBlock cfiBlock133
        REQUIRE ??Subroutine46_0
        ; // Fall through to label ??Subroutine46_0

        RSEG BANKED_CODE:CODE:NOROOT(0)
??Subroutine46_0:
          CFI Block cfiBlock134 Using cfiCommon0
          CFI NoFunction
          CFI CFA_SP SP+0
          CFI CFA_XSP16 add(XSP16, 9)
          CFI VB load(1, XDATA, add(CFA_XSP16, literal(-8)))
          CFI DPL0 load(1, XDATA, add(CFA_XSP16, literal(-2)))
          CFI DPH0 load(1, XDATA, add(CFA_XSP16, literal(-1)))
          CFI R6 load(1, XDATA, add(CFA_XSP16, literal(-9)))
          CFI R7 load(1, XDATA, add(CFA_XSP16, literal(-6)))
          CFI V0 load(1, XDATA, add(CFA_XSP16, literal(-7)))
          CFI ?BRET_EXT load(1, XDATA, add(CFA_XSP16, literal(-3)))
          CFI ?RET_HIGH load(1, XDATA, add(CFA_XSP16, literal(-4)))
          CFI ?RET_LOW load(1, XDATA, add(CFA_XSP16, literal(-5)))
        MOV     R7,#0x1
        LJMP    ?BANKED_LEAVE_XDATA
          CFI CFA_SP SP+-3
          CFI CFA_XSP16 XSP16+0
          CFI VB SameValue
          CFI DPL0 SameValue
          CFI DPH0 SameValue
          CFI R6 SameValue
          CFI R7 SameValue
          CFI V0 SameValue
          CFI ?BRET_EXT Frame(CFA_SP, 3)
          CFI ?RET_HIGH Frame(CFA_SP, 2)
          CFI ?RET_LOW Frame(CFA_SP, 1)
          CFI EndBlock cfiBlock134
// 2920 
// 2921 /*********************************************************************
// 2922  * @fn          ZDO_LeaveCnf
// 2923  *
// 2924  * @brief       This function allows the next higher layer to be
// 2925  *              notified of the results of its request for this or
// 2926  *              a child device to leave the network.
// 2927  *
// 2928  * @param       cnf - NLME_LeaveCnf_t
// 2929  *
// 2930  * @return      none
// 2931  */

        RSEG BANKED_CODE:CODE:NOROOT(0)
// 2932 void ZDO_LeaveCnf( NLME_LeaveCnf_t* cnf )
ZDO_LeaveCnf:
          CFI Block cfiBlock135 Using cfiCommon0
          CFI Function ZDO_LeaveCnf
        CODE
// 2933 {
        FUNCALL ZDO_LeaveCnf, NLME_GetExtAddr
        LOCFRAME ISTACK, 0, STACK
        LOCFRAME PSTACK, 0, STACK
        LOCFRAME XSTACK, 10, STACK
        LOCFRAME IOVERLAY, 0, STATIC
        LOCFRAME DOVERLAY, 0, STATIC
        ARGFRAME ISTACK, 0, STACK
        ARGFRAME PSTACK, 0, STACK
        ARGFRAME XSTACK, 10, STACK
        ARGFRAME IOVERLAY, 0, STATIC
        ARGFRAME DOVERLAY, 0, STATIC
        FUNCALL ZDO_LeaveCnf, sAddrExtCmp
        LOCFRAME ISTACK, 0, STACK
        LOCFRAME PSTACK, 0, STACK
        LOCFRAME XSTACK, 10, STACK
        LOCFRAME IOVERLAY, 0, STATIC
        LOCFRAME DOVERLAY, 0, STATIC
        ARGFRAME ISTACK, 0, STACK
        ARGFRAME PSTACK, 0, STACK
        ARGFRAME XSTACK, 10, STACK
        ARGFRAME IOVERLAY, 0, STATIC
        ARGFRAME DOVERLAY, 0, STATIC
        FUNCALL ZDO_LeaveCnf, ZDApp_LeaveReset
        LOCFRAME ISTACK, 0, STACK
        LOCFRAME PSTACK, 0, STACK
        LOCFRAME XSTACK, 10, STACK
        LOCFRAME IOVERLAY, 0, STATIC
        LOCFRAME DOVERLAY, 0, STATIC
        ARGFRAME ISTACK, 0, STACK
        ARGFRAME PSTACK, 0, STACK
        ARGFRAME XSTACK, 10, STACK
        ARGFRAME IOVERLAY, 0, STATIC
        ARGFRAME DOVERLAY, 0, STATIC
        REQUIRE ?V0
        REQUIRE ?V1
        MOV     A,#-0xa
        LCALL   ?BANKED_ENTER_XDATA
          CFI DPH0 load(1, XDATA, add(CFA_XSP16, literal(-1)))
          CFI DPL0 load(1, XDATA, add(CFA_XSP16, literal(-2)))
          CFI ?BRET_EXT load(1, XDATA, add(CFA_XSP16, literal(-3)))
          CFI ?RET_HIGH load(1, XDATA, add(CFA_XSP16, literal(-4)))
          CFI ?RET_LOW load(1, XDATA, add(CFA_XSP16, literal(-5)))
          CFI R7 load(1, XDATA, add(CFA_XSP16, literal(-6)))
          CFI V1 load(1, XDATA, add(CFA_XSP16, literal(-7)))
          CFI V0 load(1, XDATA, add(CFA_XSP16, literal(-8)))
          CFI VB load(1, XDATA, add(CFA_XSP16, literal(-9)))
          CFI R6 load(1, XDATA, add(CFA_XSP16, literal(-10)))
          CFI CFA_SP SP+0
          CFI CFA_XSP16 add(XSP16, 10)
        ; Saved register size: 10
        ; Auto size: 0
        MOV     A,R2
        MOV     R6,A
        MOV     A,R3
        MOV     R7,A
// 2934   // Check for this device
// 2935   if ( osal_ExtAddrEqual( cnf->extAddr,
// 2936                           NLME_GetExtAddr() ) == TRUE )
        ; Setup parameters for call to function NLME_GetExtAddr
        LCALL   `??NLME_GetExtAddr::?relay`; Banked call to: NLME_GetExtAddr
        MOV     ?V0,R2
        MOV     ?V1,R3
        MOV     R4,?V0
        MOV     R5,?V1
        ; Setup parameters for call to function sAddrExtCmp
        LCALL   ?Subroutine31 & 0xFFFF
??CrossCallReturnLabel_39:
        LCALL   `??sAddrExtCmp::?relay`; Banked call to: sAddrExtCmp
        MOV     A,R1
        XRL     A,#0x1
        JNZ     ??ZDO_LeaveCnf_0
// 2937   {
// 2938     // Pass the leave confirm to higher layer if callback registered
// 2939     if ( ( zdoCBFunc[ZDO_LEAVE_CNF_CBID] == NULL ) ||
// 2940          ( (*zdoCBFunc[ZDO_LEAVE_CNF_CBID])( cnf ) == NULL ) )
        MOV     DPTR,#zdoCBFunc + 10
        LCALL   ?Subroutine18 & 0xFFFF
??CrossCallReturnLabel_18:
        JZ      ??ZDO_LeaveCnf_1
        ; Setup parameters for indirect call
        MOV     A,R6
        MOV     R2,A
        MOV     A,R7
        MOV     R3,A
        LCALL   ?CALL_IND
        MOV     ?V1,R3
        MOV     A,R2
        ORL     A,?V1
        JNZ     ??ZDO_LeaveCnf_0
// 2941     {
// 2942       // Prepare to leave with reset
// 2943       ZDApp_LeaveReset( cnf->rejoin );
??ZDO_LeaveCnf_1:
        ; Setup parameters for call to function ZDApp_LeaveReset
        LCALL   ?Subroutine30 & 0xFFFF
// 2944     }
// 2945   }
??CrossCallReturnLabel_36:
        LCALL   `??ZDApp_LeaveReset::?relay`; Banked call to: ZDApp_LeaveReset
// 2946   else if ( ZSTACK_ROUTER_BUILD )
// 2947   {
// 2948     // Remove device address(optionally descendents) from data
// 2949     ZDApp_LeaveUpdate( cnf->dstAddr,
// 2950                        cnf->extAddr,
// 2951                        cnf->removeChildren );
// 2952   }
// 2953 }
??ZDO_LeaveCnf_0:
        LJMP    ??Subroutine50_0 & 0xFFFF
          CFI EndBlock cfiBlock135

        RSEG BANKED_CODE:CODE:NOROOT(0)
?Subroutine31:
          CFI Block cfiCond136 Using cfiCommon0
          CFI Function ZDO_JoinConfirmCB
          CFI Conditional ??CrossCallReturnLabel_38
          CFI R6 load(1, XDATA, add(CFA_XSP16, literal(-12)))
          CFI VB load(1, XDATA, add(CFA_XSP16, literal(-11)))
          CFI V0 load(1, XDATA, add(CFA_XSP16, literal(-10)))
          CFI V1 load(1, XDATA, add(CFA_XSP16, literal(-9)))
          CFI V2 load(1, XDATA, add(CFA_XSP16, literal(-8)))
          CFI V3 load(1, XDATA, add(CFA_XSP16, literal(-7)))
          CFI R7 load(1, XDATA, add(CFA_XSP16, literal(-6)))
          CFI ?RET_LOW load(1, XDATA, add(CFA_XSP16, literal(-5)))
          CFI ?RET_HIGH load(1, XDATA, add(CFA_XSP16, literal(-4)))
          CFI ?BRET_EXT load(1, XDATA, add(CFA_XSP16, literal(-3)))
          CFI DPL0 load(1, XDATA, add(CFA_XSP16, literal(-2)))
          CFI DPH0 load(1, XDATA, add(CFA_XSP16, literal(-1)))
          CFI CFA_SP SP+-2
          CFI CFA_XSP16 add(XSP16, 17)
          CFI Block cfiCond137 Using cfiCommon0
          CFI (cfiCond137) Function ZDO_LeaveCnf
          CFI (cfiCond137) Conditional ??CrossCallReturnLabel_39
          CFI (cfiCond137) R6 load(1, XDATA, add(CFA_XSP16, literal(-10)))
          CFI (cfiCond137) VB load(1, XDATA, add(CFA_XSP16, literal(-9)))
          CFI (cfiCond137) V0 load(1, XDATA, add(CFA_XSP16, literal(-8)))
          CFI (cfiCond137) V1 load(1, XDATA, add(CFA_XSP16, literal(-7)))
          CFI (cfiCond137) R7 load(1, XDATA, add(CFA_XSP16, literal(-6)))
          CFI (cfiCond137) ?RET_LOW load(1, XDATA, add(CFA_XSP16, literal(-5)))
          CFI (cfiCond137) ?RET_HIGH load(1, XDATA, add(CFA_XSP16, literal(-4)))
          CFI (cfiCond137) ?BRET_EXT load(1, XDATA, add(CFA_XSP16, literal(-3)))
          CFI (cfiCond137) DPL0 load(1, XDATA, add(CFA_XSP16, literal(-2)))
          CFI (cfiCond137) DPH0 load(1, XDATA, add(CFA_XSP16, literal(-1)))
          CFI (cfiCond137) CFA_SP SP+-2
          CFI (cfiCond137) CFA_XSP16 add(XSP16, 10)
          CFI Block cfiCond138 Using cfiCommon0
          CFI (cfiCond138) Function ZDApp_InMsgCB
          CFI (cfiCond138) Conditional ??CrossCallReturnLabel_40
          CFI (cfiCond138) R6 load(1, XDATA, add(CFA_XSP16, literal(-10)))
          CFI (cfiCond138) VB load(1, XDATA, add(CFA_XSP16, literal(-9)))
          CFI (cfiCond138) V0 load(1, XDATA, add(CFA_XSP16, literal(-8)))
          CFI (cfiCond138) V1 load(1, XDATA, add(CFA_XSP16, literal(-7)))
          CFI (cfiCond138) R7 load(1, XDATA, add(CFA_XSP16, literal(-6)))
          CFI (cfiCond138) ?RET_LOW load(1, XDATA, add(CFA_XSP16, literal(-5)))
          CFI (cfiCond138) ?RET_HIGH load(1, XDATA, add(CFA_XSP16, literal(-4)))
          CFI (cfiCond138) ?BRET_EXT load(1, XDATA, add(CFA_XSP16, literal(-3)))
          CFI (cfiCond138) DPL0 load(1, XDATA, add(CFA_XSP16, literal(-2)))
          CFI (cfiCond138) DPH0 load(1, XDATA, add(CFA_XSP16, literal(-1)))
          CFI (cfiCond138) CFA_SP SP+-2
          CFI (cfiCond138) CFA_XSP16 add(XSP16, 14)
          CFI Block cfiPicker139 Using cfiCommon1
          CFI (cfiPicker139) NoFunction
          CFI (cfiPicker139) Picker
        MOV     A,R6
        ADD     A,#0x2
        MOV     R2,A
        CLR     A
        ADDC    A,R7
        MOV     R3,A
        RET
          CFI (cfiCond136) CFA_SP SP+0
          CFI (cfiCond137) CFA_SP SP+0
          CFI (cfiCond138) CFA_SP SP+0
          CFI (cfiPicker139) CFA_SP SP+0
          CFI EndBlock cfiCond136
          CFI EndBlock cfiCond137
          CFI EndBlock cfiCond138
          CFI EndBlock cfiPicker139
// 2954 
// 2955 /*********************************************************************
// 2956  * @fn          ZDO_LeaveInd
// 2957  *
// 2958  * @brief       This function allows the next higher layer of a
// 2959  *              device to be notified of a remote leave request or
// 2960  *              indication.
// 2961  *
// 2962  * @param       ind - NLME_LeaveInd_t
// 2963  *
// 2964  * @return      none
// 2965  */

        RSEG BANKED_CODE:CODE:NOROOT(0)
// 2966 void ZDO_LeaveInd( NLME_LeaveInd_t* ind )
ZDO_LeaveInd:
          CFI Block cfiBlock140 Using cfiCommon0
          CFI Function ZDO_LeaveInd
        CODE
// 2967 {
        FUNCALL ZDO_LeaveInd, NLME_SetResponseRate
        LOCFRAME ISTACK, 0, STACK
        LOCFRAME PSTACK, 0, STACK
        LOCFRAME XSTACK, 14, STACK
        LOCFRAME IOVERLAY, 0, STATIC
        LOCFRAME DOVERLAY, 0, STATIC
        ARGFRAME ISTACK, 0, STACK
        ARGFRAME PSTACK, 0, STACK
        ARGFRAME XSTACK, 14, STACK
        ARGFRAME IOVERLAY, 0, STATIC
        ARGFRAME DOVERLAY, 0, STATIC
        FUNCALL ZDO_LeaveInd, NLME_SetQueuedPollRate
        LOCFRAME ISTACK, 0, STACK
        LOCFRAME PSTACK, 0, STACK
        LOCFRAME XSTACK, 14, STACK
        LOCFRAME IOVERLAY, 0, STATIC
        LOCFRAME DOVERLAY, 0, STATIC
        ARGFRAME ISTACK, 0, STACK
        ARGFRAME PSTACK, 0, STACK
        ARGFRAME XSTACK, 14, STACK
        ARGFRAME IOVERLAY, 0, STATIC
        ARGFRAME DOVERLAY, 0, STATIC
        FUNCALL ZDO_LeaveInd, NLME_LeaveRsp
        LOCFRAME ISTACK, 0, STACK
        LOCFRAME PSTACK, 0, STACK
        LOCFRAME XSTACK, 14, STACK
        LOCFRAME IOVERLAY, 0, STATIC
        LOCFRAME DOVERLAY, 0, STATIC
        ARGFRAME ISTACK, 0, STACK
        ARGFRAME PSTACK, 0, STACK
        ARGFRAME XSTACK, 14, STACK
        ARGFRAME IOVERLAY, 0, STATIC
        ARGFRAME DOVERLAY, 0, STATIC
        FUNCALL ZDO_LeaveInd, NLME_SetPollRate
        LOCFRAME ISTACK, 0, STACK
        LOCFRAME PSTACK, 0, STACK
        LOCFRAME XSTACK, 14, STACK
        LOCFRAME IOVERLAY, 0, STATIC
        LOCFRAME DOVERLAY, 0, STATIC
        ARGFRAME ISTACK, 0, STACK
        ARGFRAME PSTACK, 0, STACK
        ARGFRAME XSTACK, 14, STACK
        ARGFRAME IOVERLAY, 0, STATIC
        ARGFRAME DOVERLAY, 0, STATIC
        FUNCALL ZDO_LeaveInd, ZDApp_LeaveReset
        LOCFRAME ISTACK, 0, STACK
        LOCFRAME PSTACK, 0, STACK
        LOCFRAME XSTACK, 14, STACK
        LOCFRAME IOVERLAY, 0, STATIC
        LOCFRAME DOVERLAY, 0, STATIC
        ARGFRAME ISTACK, 0, STACK
        ARGFRAME PSTACK, 0, STACK
        ARGFRAME XSTACK, 14, STACK
        ARGFRAME IOVERLAY, 0, STATIC
        ARGFRAME DOVERLAY, 0, STATIC
        FUNCALL ZDO_LeaveInd, NLME_GetCoordShortAddr
        LOCFRAME ISTACK, 0, STACK
        LOCFRAME PSTACK, 0, STACK
        LOCFRAME XSTACK, 14, STACK
        LOCFRAME IOVERLAY, 0, STATIC
        LOCFRAME DOVERLAY, 0, STATIC
        ARGFRAME ISTACK, 0, STACK
        ARGFRAME PSTACK, 0, STACK
        ARGFRAME XSTACK, 14, STACK
        ARGFRAME IOVERLAY, 0, STATIC
        ARGFRAME DOVERLAY, 0, STATIC
        FUNCALL ZDO_LeaveInd, ZDApp_LeaveReset
        LOCFRAME ISTACK, 0, STACK
        LOCFRAME PSTACK, 0, STACK
        LOCFRAME XSTACK, 14, STACK
        LOCFRAME IOVERLAY, 0, STATIC
        LOCFRAME DOVERLAY, 0, STATIC
        ARGFRAME ISTACK, 0, STACK
        ARGFRAME PSTACK, 0, STACK
        ARGFRAME XSTACK, 14, STACK
        ARGFRAME IOVERLAY, 0, STATIC
        ARGFRAME DOVERLAY, 0, STATIC
        FUNCALL ZDO_LeaveInd, ZDApp_LeaveUpdate
        LOCFRAME ISTACK, 0, STACK
        LOCFRAME PSTACK, 0, STACK
        LOCFRAME XSTACK, 14, STACK
        LOCFRAME IOVERLAY, 0, STATIC
        LOCFRAME DOVERLAY, 0, STATIC
        ARGFRAME ISTACK, 0, STACK
        ARGFRAME PSTACK, 0, STACK
        ARGFRAME XSTACK, 14, STACK
        ARGFRAME IOVERLAY, 0, STATIC
        ARGFRAME DOVERLAY, 0, STATIC
        REQUIRE ?V0
        REQUIRE ?V1
        REQUIRE ?V2
        REQUIRE ?V3
        MOV     A,#-0xc
        LCALL   ?BANKED_ENTER_XDATA
          CFI DPH0 load(1, XDATA, add(CFA_XSP16, literal(-1)))
          CFI DPL0 load(1, XDATA, add(CFA_XSP16, literal(-2)))
          CFI ?BRET_EXT load(1, XDATA, add(CFA_XSP16, literal(-3)))
          CFI ?RET_HIGH load(1, XDATA, add(CFA_XSP16, literal(-4)))
          CFI ?RET_LOW load(1, XDATA, add(CFA_XSP16, literal(-5)))
          CFI R7 load(1, XDATA, add(CFA_XSP16, literal(-6)))
          CFI V3 load(1, XDATA, add(CFA_XSP16, literal(-7)))
          CFI V2 load(1, XDATA, add(CFA_XSP16, literal(-8)))
          CFI V1 load(1, XDATA, add(CFA_XSP16, literal(-9)))
          CFI V0 load(1, XDATA, add(CFA_XSP16, literal(-10)))
          CFI VB load(1, XDATA, add(CFA_XSP16, literal(-11)))
          CFI R6 load(1, XDATA, add(CFA_XSP16, literal(-12)))
          CFI CFA_SP SP+0
          CFI CFA_XSP16 add(XSP16, 12)
        ; Saved register size: 12
        ; Auto size: 2
        MOV     A,#-0x2
        LCALL   ?ALLOC_XSTACK8
          CFI CFA_XSP16 add(XSP16, 14)
        MOV     A,R2
        MOV     R6,A
        MOV     A,R3
        MOV     R7,A
// 2968   uint8 leave;
// 2969 
// 2970 
// 2971   // Parent is requesting the leave - NWK layer filters out illegal
// 2972   // requests
// 2973   if ( ind->request == TRUE )
        MOV     A,R6
        ADD     A,#0xc
        MOV     R0,A
        CLR     A
        ADDC    A,R7
        MOV     R1,A
        MOV     ?V0,R0
        MOV     ?V1,R1
        MOV     DPL,R6
        MOV     DPH,R7
        INC     DPTR
        INC     DPTR
        INC     DPTR
        INC     DPTR
        INC     DPTR
        INC     DPTR
        INC     DPTR
        INC     DPTR
        INC     DPTR
        INC     DPTR
        MOVX    A,@DPTR
        XRL     A,#0x1
        JNZ     ??ZDO_LeaveInd_0
// 2974   {
// 2975     // Only respond if we are not rejoining the network
// 2976     if ( ind->rejoin == FALSE )
        MOV     DPL,R0
        MOV     DPH,R1
        MOVX    A,@DPTR
        JNZ     ??ZDO_LeaveInd_1
// 2977     {
// 2978       // Notify network of leave
// 2979       NLME_LeaveRsp_t rsp;
// 2980       rsp.rejoin = ind->rejoin;
        MOV     A,#0x1
        LCALL   ?XSTACK_DISP0_8
        CLR     A
        MOVX    @DPTR,A
// 2981 
// 2982       if ( ZSTACK_ROUTER_BUILD )
// 2983       {
// 2984         rsp.removeChildren = ind->removeChildren;
// 2985       }
// 2986       else if ( ZSTACK_END_DEVICE_BUILD )
// 2987       {
// 2988         NLME_SetResponseRate(0);
        ; Setup parameters for call to function NLME_SetResponseRate
        MOV     R2,A
        MOV     R3,A
        LCALL   `??NLME_SetResponseRate::?relay`; Banked call to: NLME_SetResponseRate
// 2989         NLME_SetQueuedPollRate(0);
        ; Setup parameters for call to function NLME_SetQueuedPollRate
        MOV     R2,#0x0
        MOV     R3,#0x0
        LCALL   `??NLME_SetQueuedPollRate::?relay`; Banked call to: NLME_SetQueuedPollRate
// 2990         rsp.removeChildren = 0;
        MOV     DPL,?XSP + 0
        MOV     DPH,?XSP + 1
        CLR     A
        MOVX    @DPTR,A
// 2991       }
// 2992 
// 2993       NLME_LeaveRsp( &rsp );
        ; Setup parameters for call to function NLME_LeaveRsp
        MOV     R2,?XSP + 0
        MOV     R3,?XSP + 1
        LCALL   `??NLME_LeaveRsp::?relay`; Banked call to: NLME_LeaveRsp
// 2994     }
// 2995 
// 2996     if ( ZSTACK_END_DEVICE_BUILD )
// 2997     {
// 2998       // Stop polling and get ready to reset
// 2999       NLME_SetPollRate( 0 );
??ZDO_LeaveInd_1:
        ; Setup parameters for call to function NLME_SetPollRate
        MOV     DPTR,#__Constant_0
        LCALL   ?XLOAD_R2345
        LCALL   `??NLME_SetPollRate::?relay`; Banked call to: NLME_SetPollRate
// 3000     }
// 3001 
// 3002     // Prepare to leave with reset
// 3003     ZDApp_LeaveReset( ind->rejoin );
        ; Setup parameters for call to function ZDApp_LeaveReset
        SJMP    ??ZDO_LeaveInd_2
// 3004   }
// 3005   else
// 3006   {
// 3007     leave = FALSE;
// 3008 
// 3009     // Check if this device needs to leave as a child or descendent
// 3010     if ( ind->srcAddr == NLME_GetCoordShortAddr() )
??ZDO_LeaveInd_0:
        ; Setup parameters for call to function NLME_GetCoordShortAddr
        LCALL   `??NLME_GetCoordShortAddr::?relay`; Banked call to: NLME_GetCoordShortAddr
        MOV     ?V2,R2
        MOV     ?V3,R3
        LCALL   ?Subroutine30 & 0xFFFF
??CrossCallReturnLabel_37:
        MOV     DPL,R6
        MOV     DPH,R7
        LCALL   ??Subroutine47_0 & 0xFFFF
??CrossCallReturnLabel_74:
        MOV     A,?V2
        XRL     A,R2
        JNZ     ??ZDO_LeaveInd_3
        MOV     A,?V3
        XRL     A,R3
??ZDO_LeaveInd_3:
        JNZ     ??ZDO_LeaveInd_4
// 3011     {
// 3012       if ( ( ind->removeChildren == TRUE               ) ||
// 3013            ( ZDO_Config_Node_Descriptor.LogicalType ==
// 3014              NODETYPE_DEVICE                           )    )
        MOV     A,#0x1
        XRL     A,R1
        JZ      ??ZDO_LeaveInd_2
        MOV     DPTR,#ZDO_Config_Node_Descriptor
        MOVX    A,@DPTR
        ANL     A,#0x7
        XRL     A,#0x2
        JNZ     ??ZDO_LeaveInd_4
// 3015       {
// 3016         leave = TRUE;
// 3017       }
// 3018     }
// 3019     else if ( ind->removeChildren == TRUE )
// 3020     {
// 3021       // Check NWK address allocation algorithm
// 3022       //leave = RTG_ANCESTOR(nwkAddr,thisAddr);
// 3023     }
// 3024 
// 3025     if ( leave == TRUE )
// 3026     {
// 3027       // Prepare to leave with reset
// 3028       ZDApp_LeaveReset( ind->rejoin );
??ZDO_LeaveInd_2:
        ; Setup parameters for call to function ZDApp_LeaveReset
        MOV     DPL,?V0
        MOV     DPH,?V1
        MOVX    A,@DPTR
        MOV     R1,A
        LCALL   `??ZDApp_LeaveReset::?relay`; Banked call to: ZDApp_LeaveReset
        SJMP    ??ZDO_LeaveInd_5
// 3029     }
// 3030     else
// 3031     {
// 3032       // Remove device address(optionally descendents) from data
// 3033       ZDApp_LeaveUpdate( ind->srcAddr,
// 3034                          ind->extAddr,
// 3035                          ind->removeChildren );
??ZDO_LeaveInd_4:
        ; Setup parameters for call to function ZDApp_LeaveUpdate
        MOV     A,R6
        ADD     A,#0x2
        MOV     R4,A
        CLR     A
        ADDC    A,R7
        MOV     R5,A
        LCALL   `??ZDApp_LeaveUpdate::?relay`; Banked call to: ZDApp_LeaveUpdate
// 3036     }
// 3037   }
// 3038 
// 3039   // Pass the leave indication to higher layer if callback registered.
// 3040   if (zdoCBFunc[ZDO_LEAVE_IND_CBID] != NULL)
??ZDO_LeaveInd_5:
        MOV     DPTR,#zdoCBFunc + 12
        LCALL   ?Subroutine18 & 0xFFFF
??CrossCallReturnLabel_19:
        JZ      ??ZDO_LeaveInd_6
// 3041   {
// 3042     (void)zdoCBFunc[ZDO_LEAVE_IND_CBID](ind);
        ; Setup parameters for indirect call
        MOV     A,R6
        MOV     R2,A
        MOV     A,R7
        MOV     R3,A
        LCALL   ?CALL_IND
// 3043   }
// 3044 }
??ZDO_LeaveInd_6:
        LJMP    ?Subroutine2 & 0xFFFF
          CFI EndBlock cfiBlock140

        RSEG BANKED_CODE:CODE:NOROOT(0)
?Subroutine30:
          CFI Block cfiCond141 Using cfiCommon0
          CFI Function ZDO_LeaveCnf
          CFI Conditional ??CrossCallReturnLabel_36
          CFI R6 load(1, XDATA, add(CFA_XSP16, literal(-10)))
          CFI VB load(1, XDATA, add(CFA_XSP16, literal(-9)))
          CFI V0 load(1, XDATA, add(CFA_XSP16, literal(-8)))
          CFI V1 load(1, XDATA, add(CFA_XSP16, literal(-7)))
          CFI R7 load(1, XDATA, add(CFA_XSP16, literal(-6)))
          CFI ?RET_LOW load(1, XDATA, add(CFA_XSP16, literal(-5)))
          CFI ?RET_HIGH load(1, XDATA, add(CFA_XSP16, literal(-4)))
          CFI ?BRET_EXT load(1, XDATA, add(CFA_XSP16, literal(-3)))
          CFI DPL0 load(1, XDATA, add(CFA_XSP16, literal(-2)))
          CFI DPH0 load(1, XDATA, add(CFA_XSP16, literal(-1)))
          CFI CFA_SP SP+-2
          CFI CFA_XSP16 add(XSP16, 10)
          CFI Block cfiCond142 Using cfiCommon0
          CFI (cfiCond142) Function ZDO_LeaveInd
          CFI (cfiCond142) Conditional ??CrossCallReturnLabel_37
          CFI (cfiCond142) R6 load(1, XDATA, add(CFA_XSP16, literal(-12)))
          CFI (cfiCond142) VB load(1, XDATA, add(CFA_XSP16, literal(-11)))
          CFI (cfiCond142) V0 load(1, XDATA, add(CFA_XSP16, literal(-10)))
          CFI (cfiCond142) V1 load(1, XDATA, add(CFA_XSP16, literal(-9)))
          CFI (cfiCond142) V2 load(1, XDATA, add(CFA_XSP16, literal(-8)))
          CFI (cfiCond142) V3 load(1, XDATA, add(CFA_XSP16, literal(-7)))
          CFI (cfiCond142) R7 load(1, XDATA, add(CFA_XSP16, literal(-6)))
          CFI (cfiCond142) ?RET_LOW load(1, XDATA, add(CFA_XSP16, literal(-5)))
          CFI (cfiCond142) ?RET_HIGH load(1, XDATA, add(CFA_XSP16, literal(-4)))
          CFI (cfiCond142) ?BRET_EXT load(1, XDATA, add(CFA_XSP16, literal(-3)))
          CFI (cfiCond142) DPL0 load(1, XDATA, add(CFA_XSP16, literal(-2)))
          CFI (cfiCond142) DPH0 load(1, XDATA, add(CFA_XSP16, literal(-1)))
          CFI (cfiCond142) CFA_SP SP+-2
          CFI (cfiCond142) CFA_XSP16 add(XSP16, 14)
          CFI Block cfiPicker143 Using cfiCommon1
          CFI (cfiPicker143) NoFunction
          CFI (cfiPicker143) Picker
        LCALL   ?Subroutine39 & 0xFFFF
??CrossCallReturnLabel_53:
        MOV     R1,A
        RET
          CFI (cfiCond141) CFA_SP SP+0
          CFI (cfiCond142) CFA_SP SP+0
          CFI (cfiPicker143) CFA_SP SP+0
          CFI EndBlock cfiCond141
          CFI EndBlock cfiCond142
          CFI EndBlock cfiPicker143

        RSEG BANKED_CODE:CODE:NOROOT(0)
?Subroutine22:
          CFI Block cfiCond144 Using cfiCommon0
          CFI Function ZDApp_ProcessMsgCBs
          CFI Conditional ??CrossCallReturnLabel_75
          CFI R6 load(1, XDATA, add(CFA_XSP16, literal(-14)))
          CFI VB load(1, XDATA, add(CFA_XSP16, literal(-13)))
          CFI V0 load(1, XDATA, add(CFA_XSP16, literal(-12)))
          CFI V1 load(1, XDATA, add(CFA_XSP16, literal(-11)))
          CFI V2 load(1, XDATA, add(CFA_XSP16, literal(-10)))
          CFI V3 load(1, XDATA, add(CFA_XSP16, literal(-9)))
          CFI V4 load(1, XDATA, add(CFA_XSP16, literal(-8)))
          CFI V5 load(1, XDATA, add(CFA_XSP16, literal(-7)))
          CFI R7 load(1, XDATA, add(CFA_XSP16, literal(-6)))
          CFI ?RET_LOW load(1, XDATA, add(CFA_XSP16, literal(-5)))
          CFI ?RET_HIGH load(1, XDATA, add(CFA_XSP16, literal(-4)))
          CFI ?BRET_EXT load(1, XDATA, add(CFA_XSP16, literal(-3)))
          CFI DPL0 load(1, XDATA, add(CFA_XSP16, literal(-2)))
          CFI DPH0 load(1, XDATA, add(CFA_XSP16, literal(-1)))
          CFI CFA_SP SP+-2
          CFI CFA_XSP16 add(XSP16, 35)
          CFI Block cfiCond145 Using cfiCommon0
          CFI (cfiCond145) Function ZDApp_ProcessPendingBindReq
          CFI (cfiCond145) Conditional ??CrossCallReturnLabel_76
          CFI (cfiCond145) R6 load(1, XDATA, add(CFA_XSP16, literal(-15)))
          CFI (cfiCond145) VB load(1, XDATA, add(CFA_XSP16, literal(-14)))
          CFI (cfiCond145) V0 load(1, XDATA, add(CFA_XSP16, literal(-13)))
          CFI (cfiCond145) V1 load(1, XDATA, add(CFA_XSP16, literal(-12)))
          CFI (cfiCond145) V2 load(1, XDATA, add(CFA_XSP16, literal(-11)))
          CFI (cfiCond145) V3 load(1, XDATA, add(CFA_XSP16, literal(-10)))
          CFI (cfiCond145) V4 load(1, XDATA, add(CFA_XSP16, literal(-9)))
          CFI (cfiCond145) V5 load(1, XDATA, add(CFA_XSP16, literal(-8)))
          CFI (cfiCond145) V6 load(1, XDATA, add(CFA_XSP16, literal(-7)))
          CFI (cfiCond145) R7 load(1, XDATA, add(CFA_XSP16, literal(-6)))
          CFI (cfiCond145) ?RET_LOW load(1, XDATA, add(CFA_XSP16, literal(-5)))
          CFI (cfiCond145) ?RET_HIGH load(1, XDATA, add(CFA_XSP16, literal(-4)))
          CFI (cfiCond145) ?BRET_EXT load(1, XDATA, add(CFA_XSP16, literal(-3)))
          CFI (cfiCond145) DPL0 load(1, XDATA, add(CFA_XSP16, literal(-2)))
          CFI (cfiCond145) DPH0 load(1, XDATA, add(CFA_XSP16, literal(-1)))
          CFI (cfiCond145) CFA_SP SP+-2
          CFI (cfiCond145) CFA_XSP16 add(XSP16, 17)
          CFI Block cfiPicker146 Using cfiCommon1
          CFI (cfiPicker146) NoFunction
          CFI (cfiPicker146) Picker
        INC     DPTR
          CFI EndBlock cfiCond144
          CFI EndBlock cfiCond145
          CFI EndBlock cfiPicker146
        REQUIRE ??Subroutine47_0
        ; // Fall through to label ??Subroutine47_0

        RSEG BANKED_CODE:CODE:NOROOT(0)
??Subroutine47_0:
          CFI Block cfiCond147 Using cfiCommon0
          CFI Function ZDApp_SecInit
          CFI Conditional ??CrossCallReturnLabel_70
          CFI R6 load(1, XDATA, add(CFA_XSP16, literal(-9)))
          CFI VB load(1, XDATA, add(CFA_XSP16, literal(-8)))
          CFI V0 load(1, XDATA, add(CFA_XSP16, literal(-7)))
          CFI R7 load(1, XDATA, add(CFA_XSP16, literal(-6)))
          CFI ?RET_LOW load(1, XDATA, add(CFA_XSP16, literal(-5)))
          CFI ?RET_HIGH load(1, XDATA, add(CFA_XSP16, literal(-4)))
          CFI ?BRET_EXT load(1, XDATA, add(CFA_XSP16, literal(-3)))
          CFI DPL0 load(1, XDATA, add(CFA_XSP16, literal(-2)))
          CFI DPH0 load(1, XDATA, add(CFA_XSP16, literal(-1)))
          CFI CFA_SP SP+-2
          CFI CFA_XSP16 add(XSP16, 25)
          CFI Block cfiCond148 Using cfiCommon0
          CFI (cfiCond148) Function ZDO_beaconNotifyIndCB
          CFI (cfiCond148) Conditional ??CrossCallReturnLabel_71
          CFI (cfiCond148) R6 load(1, XDATA, add(CFA_XSP16, literal(-18)))
          CFI (cfiCond148) VB load(1, XDATA, add(CFA_XSP16, literal(-17)))
          CFI (cfiCond148) V0 load(1, XDATA, add(CFA_XSP16, literal(-16)))
          CFI (cfiCond148) V1 load(1, XDATA, add(CFA_XSP16, literal(-15)))
          CFI (cfiCond148) V2 load(1, XDATA, add(CFA_XSP16, literal(-14)))
          CFI (cfiCond148) V3 load(1, XDATA, add(CFA_XSP16, literal(-13)))
          CFI (cfiCond148) V4 load(1, XDATA, add(CFA_XSP16, literal(-12)))
          CFI (cfiCond148) V5 load(1, XDATA, add(CFA_XSP16, literal(-11)))
          CFI (cfiCond148) V6 load(1, XDATA, add(CFA_XSP16, literal(-10)))
          CFI (cfiCond148) V7 load(1, XDATA, add(CFA_XSP16, literal(-9)))
          CFI (cfiCond148) V8 load(1, XDATA, add(CFA_XSP16, literal(-8)))
          CFI (cfiCond148) V9 load(1, XDATA, add(CFA_XSP16, literal(-7)))
          CFI (cfiCond148) R7 load(1, XDATA, add(CFA_XSP16, literal(-6)))
          CFI (cfiCond148) ?RET_LOW load(1, XDATA, add(CFA_XSP16, literal(-5)))
          CFI (cfiCond148) ?RET_HIGH load(1, XDATA, add(CFA_XSP16, literal(-4)))
          CFI (cfiCond148) ?BRET_EXT load(1, XDATA, add(CFA_XSP16, literal(-3)))
          CFI (cfiCond148) DPL0 load(1, XDATA, add(CFA_XSP16, literal(-2)))
          CFI (cfiCond148) DPH0 load(1, XDATA, add(CFA_XSP16, literal(-1)))
          CFI (cfiCond148) CFA_SP SP+-2
          CFI (cfiCond148) CFA_XSP16 add(XSP16, 18)
          CFI Block cfiCond149 Using cfiCommon0
          CFI (cfiCond149) Function ZDO_JoinConfirmCB
          CFI (cfiCond149) Conditional ??CrossCallReturnLabel_72
          CFI (cfiCond149) R6 load(1, XDATA, add(CFA_XSP16, literal(-12)))
          CFI (cfiCond149) VB load(1, XDATA, add(CFA_XSP16, literal(-11)))
          CFI (cfiCond149) V0 load(1, XDATA, add(CFA_XSP16, literal(-10)))
          CFI (cfiCond149) V1 load(1, XDATA, add(CFA_XSP16, literal(-9)))
          CFI (cfiCond149) V2 load(1, XDATA, add(CFA_XSP16, literal(-8)))
          CFI (cfiCond149) V3 load(1, XDATA, add(CFA_XSP16, literal(-7)))
          CFI (cfiCond149) R7 load(1, XDATA, add(CFA_XSP16, literal(-6)))
          CFI (cfiCond149) ?RET_LOW load(1, XDATA, add(CFA_XSP16, literal(-5)))
          CFI (cfiCond149) ?RET_HIGH load(1, XDATA, add(CFA_XSP16, literal(-4)))
          CFI (cfiCond149) ?BRET_EXT load(1, XDATA, add(CFA_XSP16, literal(-3)))
          CFI (cfiCond149) DPL0 load(1, XDATA, add(CFA_XSP16, literal(-2)))
          CFI (cfiCond149) DPH0 load(1, XDATA, add(CFA_XSP16, literal(-1)))
          CFI (cfiCond149) CFA_SP SP+-2
          CFI (cfiCond149) CFA_XSP16 add(XSP16, 17)
          CFI Block cfiCond150 Using cfiCommon0
          CFI (cfiCond150) Function ZDO_JoinConfirmCB
          CFI (cfiCond150) Conditional ??CrossCallReturnLabel_73
          CFI (cfiCond150) R6 load(1, XDATA, add(CFA_XSP16, literal(-12)))
          CFI (cfiCond150) VB load(1, XDATA, add(CFA_XSP16, literal(-11)))
          CFI (cfiCond150) V0 load(1, XDATA, add(CFA_XSP16, literal(-10)))
          CFI (cfiCond150) V1 load(1, XDATA, add(CFA_XSP16, literal(-9)))
          CFI (cfiCond150) V2 load(1, XDATA, add(CFA_XSP16, literal(-8)))
          CFI (cfiCond150) V3 load(1, XDATA, add(CFA_XSP16, literal(-7)))
          CFI (cfiCond150) R7 load(1, XDATA, add(CFA_XSP16, literal(-6)))
          CFI (cfiCond150) ?RET_LOW load(1, XDATA, add(CFA_XSP16, literal(-5)))
          CFI (cfiCond150) ?RET_HIGH load(1, XDATA, add(CFA_XSP16, literal(-4)))
          CFI (cfiCond150) ?BRET_EXT load(1, XDATA, add(CFA_XSP16, literal(-3)))
          CFI (cfiCond150) DPL0 load(1, XDATA, add(CFA_XSP16, literal(-2)))
          CFI (cfiCond150) DPH0 load(1, XDATA, add(CFA_XSP16, literal(-1)))
          CFI (cfiCond150) CFA_SP SP+-2
          CFI (cfiCond150) CFA_XSP16 add(XSP16, 17)
          CFI Block cfiCond151 Using cfiCommon0
          CFI (cfiCond151) Function ZDO_LeaveInd
          CFI (cfiCond151) Conditional ??CrossCallReturnLabel_74
          CFI (cfiCond151) R6 load(1, XDATA, add(CFA_XSP16, literal(-12)))
          CFI (cfiCond151) VB load(1, XDATA, add(CFA_XSP16, literal(-11)))
          CFI (cfiCond151) V0 load(1, XDATA, add(CFA_XSP16, literal(-10)))
          CFI (cfiCond151) V1 load(1, XDATA, add(CFA_XSP16, literal(-9)))
          CFI (cfiCond151) V2 load(1, XDATA, add(CFA_XSP16, literal(-8)))
          CFI (cfiCond151) V3 load(1, XDATA, add(CFA_XSP16, literal(-7)))
          CFI (cfiCond151) R7 load(1, XDATA, add(CFA_XSP16, literal(-6)))
          CFI (cfiCond151) ?RET_LOW load(1, XDATA, add(CFA_XSP16, literal(-5)))
          CFI (cfiCond151) ?RET_HIGH load(1, XDATA, add(CFA_XSP16, literal(-4)))
          CFI (cfiCond151) ?BRET_EXT load(1, XDATA, add(CFA_XSP16, literal(-3)))
          CFI (cfiCond151) DPL0 load(1, XDATA, add(CFA_XSP16, literal(-2)))
          CFI (cfiCond151) DPH0 load(1, XDATA, add(CFA_XSP16, literal(-1)))
          CFI (cfiCond151) CFA_SP SP+-2
          CFI (cfiCond151) CFA_XSP16 add(XSP16, 14)
          CFI Block cfiCond152 Using cfiCommon0
          CFI (cfiCond152) Function ZDApp_ProcessMsgCBs
          CFI (cfiCond152) Conditional ??CrossCallReturnLabel_75
          CFI (cfiCond152) R6 load(1, XDATA, add(CFA_XSP16, literal(-14)))
          CFI (cfiCond152) VB load(1, XDATA, add(CFA_XSP16, literal(-13)))
          CFI (cfiCond152) V0 load(1, XDATA, add(CFA_XSP16, literal(-12)))
          CFI (cfiCond152) V1 load(1, XDATA, add(CFA_XSP16, literal(-11)))
          CFI (cfiCond152) V2 load(1, XDATA, add(CFA_XSP16, literal(-10)))
          CFI (cfiCond152) V3 load(1, XDATA, add(CFA_XSP16, literal(-9)))
          CFI (cfiCond152) V4 load(1, XDATA, add(CFA_XSP16, literal(-8)))
          CFI (cfiCond152) V5 load(1, XDATA, add(CFA_XSP16, literal(-7)))
          CFI (cfiCond152) R7 load(1, XDATA, add(CFA_XSP16, literal(-6)))
          CFI (cfiCond152) ?RET_LOW load(1, XDATA, add(CFA_XSP16, literal(-5)))
          CFI (cfiCond152) ?RET_HIGH load(1, XDATA, add(CFA_XSP16, literal(-4)))
          CFI (cfiCond152) ?BRET_EXT load(1, XDATA, add(CFA_XSP16, literal(-3)))
          CFI (cfiCond152) DPL0 load(1, XDATA, add(CFA_XSP16, literal(-2)))
          CFI (cfiCond152) DPH0 load(1, XDATA, add(CFA_XSP16, literal(-1)))
          CFI (cfiCond152) CFA_SP SP+-2
          CFI (cfiCond152) CFA_XSP16 add(XSP16, 35)
          CFI Block cfiCond153 Using cfiCommon0
          CFI (cfiCond153) Function ZDApp_ProcessPendingBindReq
          CFI (cfiCond153) Conditional ??CrossCallReturnLabel_76
          CFI (cfiCond153) R6 load(1, XDATA, add(CFA_XSP16, literal(-15)))
          CFI (cfiCond153) VB load(1, XDATA, add(CFA_XSP16, literal(-14)))
          CFI (cfiCond153) V0 load(1, XDATA, add(CFA_XSP16, literal(-13)))
          CFI (cfiCond153) V1 load(1, XDATA, add(CFA_XSP16, literal(-12)))
          CFI (cfiCond153) V2 load(1, XDATA, add(CFA_XSP16, literal(-11)))
          CFI (cfiCond153) V3 load(1, XDATA, add(CFA_XSP16, literal(-10)))
          CFI (cfiCond153) V4 load(1, XDATA, add(CFA_XSP16, literal(-9)))
          CFI (cfiCond153) V5 load(1, XDATA, add(CFA_XSP16, literal(-8)))
          CFI (cfiCond153) V6 load(1, XDATA, add(CFA_XSP16, literal(-7)))
          CFI (cfiCond153) R7 load(1, XDATA, add(CFA_XSP16, literal(-6)))
          CFI (cfiCond153) ?RET_LOW load(1, XDATA, add(CFA_XSP16, literal(-5)))
          CFI (cfiCond153) ?RET_HIGH load(1, XDATA, add(CFA_XSP16, literal(-4)))
          CFI (cfiCond153) ?BRET_EXT load(1, XDATA, add(CFA_XSP16, literal(-3)))
          CFI (cfiCond153) DPL0 load(1, XDATA, add(CFA_XSP16, literal(-2)))
          CFI (cfiCond153) DPH0 load(1, XDATA, add(CFA_XSP16, literal(-1)))
          CFI (cfiCond153) CFA_SP SP+-2
          CFI (cfiCond153) CFA_XSP16 add(XSP16, 17)
          CFI Block cfiPicker154 Using cfiCommon1
          CFI (cfiPicker154) NoFunction
          CFI (cfiPicker154) Picker
        MOVX    A,@DPTR
        MOV     R2,A
        INC     DPTR
        MOVX    A,@DPTR
        MOV     R3,A
        RET
          CFI (cfiCond147) CFA_SP SP+0
          CFI (cfiCond148) CFA_SP SP+0
          CFI (cfiCond149) CFA_SP SP+0
          CFI (cfiCond150) CFA_SP SP+0
          CFI (cfiCond151) CFA_SP SP+0
          CFI (cfiCond152) CFA_SP SP+0
          CFI (cfiCond153) CFA_SP SP+0
          CFI (cfiPicker154) CFA_SP SP+0
          CFI EndBlock cfiCond147
          CFI EndBlock cfiCond148
          CFI EndBlock cfiCond149
          CFI EndBlock cfiCond150
          CFI EndBlock cfiCond151
          CFI EndBlock cfiCond152
          CFI EndBlock cfiCond153
          CFI EndBlock cfiPicker154
// 3045 
// 3046 /*********************************************************************
// 3047  * @fn          ZDO_SyncIndicationCB
// 3048  *
// 3049  * @brief       This function allows the next higher layer of a
// 3050  *              coordinator to be notified of a loss of synchronization
// 3051  *                          with the parent/child device.
// 3052  *
// 3053  * @param       type: 0 - child; 1 - parent
// 3054  *
// 3055  *
// 3056  * @return      none
// 3057  */

        RSEG BANKED_CODE:CODE:NOROOT(0)
// 3058 void ZDO_SyncIndicationCB( uint8 type, uint16 shortAddr )
ZDO_SyncIndicationCB:
          CFI Block cfiBlock155 Using cfiCommon0
          CFI Function ZDO_SyncIndicationCB
        CODE
// 3059 {
        FUNCALL ZDO_SyncIndicationCB, nwkNeighborInitTable
        LOCFRAME ISTACK, 0, STACK
        LOCFRAME PSTACK, 0, STACK
        LOCFRAME XSTACK, 12, STACK
        LOCFRAME IOVERLAY, 0, STATIC
        LOCFRAME DOVERLAY, 0, STATIC
        ARGFRAME ISTACK, 0, STACK
        ARGFRAME PSTACK, 0, STACK
        ARGFRAME XSTACK, 12, STACK
        ARGFRAME IOVERLAY, 0, STATIC
        ARGFRAME DOVERLAY, 0, STATIC
        FUNCALL ZDO_SyncIndicationCB, ZDApp_SendMsg
        LOCFRAME ISTACK, 0, STACK
        LOCFRAME PSTACK, 0, STACK
        LOCFRAME XSTACK, 12, STACK
        LOCFRAME IOVERLAY, 0, STATIC
        LOCFRAME DOVERLAY, 0, STATIC
        ARGFRAME ISTACK, 0, STACK
        ARGFRAME PSTACK, 0, STACK
        ARGFRAME XSTACK, 12, STACK
        ARGFRAME IOVERLAY, 0, STATIC
        ARGFRAME DOVERLAY, 0, STATIC
        REQUIRE ?V0
        REQUIRE ?V1
        REQUIRE ?V2
        REQUIRE ?V3
        MOV     A,#-0xc
        LCALL   ?BANKED_ENTER_XDATA
          CFI DPH0 load(1, XDATA, add(CFA_XSP16, literal(-1)))
          CFI DPL0 load(1, XDATA, add(CFA_XSP16, literal(-2)))
          CFI ?BRET_EXT load(1, XDATA, add(CFA_XSP16, literal(-3)))
          CFI ?RET_HIGH load(1, XDATA, add(CFA_XSP16, literal(-4)))
          CFI ?RET_LOW load(1, XDATA, add(CFA_XSP16, literal(-5)))
          CFI R7 load(1, XDATA, add(CFA_XSP16, literal(-6)))
          CFI V3 load(1, XDATA, add(CFA_XSP16, literal(-7)))
          CFI V2 load(1, XDATA, add(CFA_XSP16, literal(-8)))
          CFI V1 load(1, XDATA, add(CFA_XSP16, literal(-9)))
          CFI V0 load(1, XDATA, add(CFA_XSP16, literal(-10)))
          CFI VB load(1, XDATA, add(CFA_XSP16, literal(-11)))
          CFI R6 load(1, XDATA, add(CFA_XSP16, literal(-12)))
          CFI CFA_SP SP+0
          CFI CFA_XSP16 add(XSP16, 12)
        ; Saved register size: 12
        ; Auto size: 0
        MOV     A,R1
        MOV     R6,A
// 3060   (void)shortAddr;  // Remove this line if this parameter is used.
// 3061 
// 3062   if ( ZSTACK_END_DEVICE_BUILD
// 3063     || (ZSTACK_ROUTER_BUILD && BUILD_FLEXABLE && ((_NIB.CapabilityFlags & ZMAC_ASSOC_CAPINFO_FFD_TYPE) == 0)))
// 3064   {
// 3065     if ( type == 1 )
        MOV     A,#0x1
        XRL     A,R6
        JNZ     ??ZDO_SyncIndicationCB_0
// 3066     {
// 3067       // We lost contact with our parent.  Clear the neighbor Table.
// 3068       nwkNeighborInitTable();
        ; Setup parameters for call to function nwkNeighborInitTable
        LCALL   `??nwkNeighborInitTable::?relay`; Banked call to: nwkNeighborInitTable
// 3069 
// 3070       runtimeChannel = (uint32) (1L << _NIB.nwkLogicalChannel);
        MOV     ?V0,#0x1
        MOV     ?V1,#0x0
        MOV     ?V2,#0x0
        MOV     ?V3,#0x0
        MOV     DPTR,#_NIB + 22
        MOVX    A,@DPTR
        MOV     R0,#?V0
        LCALL   ?L_SHL
        MOV     DPTR,#runtimeChannel
        MOV     R0,#?V0
        LCALL   ?L_MOV_TO_X
// 3071 
// 3072       // Start the rejoin process.
// 3073       ZDApp_SendMsg( ZDAppTaskID, ZDO_NWK_JOIN_REQ, sizeof(osal_event_hdr_t), NULL );
        ; Setup parameters for call to function ZDApp_SendMsg
        MOV     R4,#0x0
        MOV     R5,#0x0
        MOV     R3,#0x2
        MOV     R2,#0x3
        MOV     DPTR,#ZDAppTaskID
        MOVX    A,@DPTR
        MOV     R1,A
        LCALL   `??ZDApp_SendMsg::?relay`; Banked call to: ZDApp_SendMsg
// 3074     }
// 3075   }
// 3076 }
??ZDO_SyncIndicationCB_0:
        LJMP    ??Subroutine54_0 & 0xFFFF
          CFI EndBlock cfiBlock155
// 3077 
// 3078 /*********************************************************************
// 3079  * @fn          ZDO_ManytoOneFailureIndicationCB
// 3080  *
// 3081  * @brief       This function allows the next higher layer of a
// 3082  *              concentrator to be notified of a many-to-one route
// 3083  *              failure.
// 3084  *
// 3085  * @param       none
// 3086  *
// 3087  *
// 3088  * @return      none
// 3089  */

        RSEG BANKED_CODE:CODE:NOROOT(0)
// 3090 void ZDO_ManytoOneFailureIndicationCB()
ZDO_ManytoOneFailureIndicationCB:
          CFI Block cfiBlock156 Using cfiCommon0
          CFI Function ZDO_ManytoOneFailureIndicationCB
        CODE
// 3091 {
        FUNCALL ZDO_ManytoOneFailureIndicationCB, RTG_MTORouteReq
        LOCFRAME ISTACK, 2, STACK
        LOCFRAME PSTACK, 0, STACK
        LOCFRAME XSTACK, 0, STACK
        LOCFRAME IOVERLAY, 0, STATIC
        LOCFRAME DOVERLAY, 0, STATIC
        ARGFRAME ISTACK, 2, STACK
        ARGFRAME PSTACK, 0, STACK
        ARGFRAME XSTACK, 0, STACK
        ARGFRAME IOVERLAY, 0, STATIC
        ARGFRAME DOVERLAY, 0, STATIC
        PUSH    DPL
          CFI DPL0 Frame(CFA_SP, 4)
          CFI CFA_SP SP+-4
        PUSH    DPH
          CFI DPH0 Frame(CFA_SP, 5)
          CFI CFA_SP SP+-5
        ; Saved register size: 2
        ; Auto size: 0
// 3092   // By default, the concentrator automatically redo many-to-one route
// 3093   // discovery to update all many-to-one routes in the network
// 3094   // If you want anything processing other than the default,
// 3095   // please replace the following code.
// 3096 
// 3097   RTG_MTORouteReq();
        ; Setup parameters for call to function RTG_MTORouteReq
        LCALL   `??RTG_MTORouteReq::?relay`; Banked call to: RTG_MTORouteReq
// 3098 }
        LJMP    ??Subroutine40_0 & 0xFFFF
          CFI EndBlock cfiBlock156
// 3099 
// 3100 /*********************************************************************
// 3101  * @fn          ZDO_PollConfirmCB
// 3102  *
// 3103  * @brief       This function allows the next higher layer to be
// 3104  *              notified of a Poll Confirm.
// 3105  *
// 3106  * @param       none
// 3107  *
// 3108  * @return      none
// 3109  */

        RSEG BANKED_CODE:CODE:NOROOT(0)
// 3110 void ZDO_PollConfirmCB( uint8 status )
ZDO_PollConfirmCB:
          CFI Block cfiBlock157 Using cfiCommon0
          CFI Function ZDO_PollConfirmCB
        CODE
// 3111 {
        ; Saved register size: 0
        ; Auto size: 0
// 3112   (void)status;  // Remove this line if this parameter is used.
// 3113   return;
        LJMP    ?BRET
// 3114 }
          CFI EndBlock cfiBlock157
// 3115 
// 3116 /*********************************************************************
// 3117  * @fn          ZDO_NetworkStatusCB
// 3118  *
// 3119  * @brief       Network Status Callback function
// 3120  *
// 3121  * @param       nwkDstAddr - message's destination address- used to determine
// 3122  *                           if the message was intended for this device or
// 3123  *                           a sleeping end device.
// 3124  * @param       statusCode - message's status code (ie. NWKSTAT_NONTREE_LINK_FAILURE)
// 3125  * @param       dstAddr - the destination address related to the status code
// 3126  *
// 3127  * @return      none
// 3128  */

        RSEG BANKED_CODE:CODE:NOROOT(0)
// 3129 void ZDO_NetworkStatusCB( uint16 nwkDstAddr, uint8 statusCode, uint16 dstAddr )
ZDO_NetworkStatusCB:
          CFI Block cfiBlock158 Using cfiCommon0
          CFI Function ZDO_NetworkStatusCB
        CODE
// 3130 {
        FUNCALL ZDO_NetworkStatusCB, NLME_GetShortAddr
        LOCFRAME ISTACK, 2, STACK
        LOCFRAME PSTACK, 0, STACK
        LOCFRAME XSTACK, 0, STACK
        LOCFRAME IOVERLAY, 0, STATIC
        LOCFRAME DOVERLAY, 0, STATIC
        ARGFRAME ISTACK, 2, STACK
        ARGFRAME PSTACK, 0, STACK
        ARGFRAME XSTACK, 0, STACK
        ARGFRAME IOVERLAY, 0, STATIC
        ARGFRAME DOVERLAY, 0, STATIC
        PUSH    DPL
          CFI DPL0 Frame(CFA_SP, 4)
          CFI CFA_SP SP+-4
        PUSH    DPH
          CFI DPH0 Frame(CFA_SP, 5)
          CFI CFA_SP SP+-5
        ; Saved register size: 2
        ; Auto size: 0
// 3131   (void)dstAddr;     // Remove this line if this parameter is used.
// 3132 
// 3133   if ( (nwkDstAddr == NLME_GetShortAddr())
// 3134       && (statusCode == NWKSTAT_NONTREE_LINK_FAILURE) )
        ; Setup parameters for call to function NLME_GetShortAddr
        LCALL   `??NLME_GetShortAddr::?relay`; Banked call to: NLME_GetShortAddr
// 3135   {
// 3136     // Routing error for dstAddr, this is informational and a Route
// 3137     // Request should happen automatically.
// 3138   }
// 3139 }
        LJMP    ??Subroutine40_0 & 0xFFFF
          CFI EndBlock cfiBlock158
// 3140 
// 3141 /******************************************************************************
// 3142  * @fn          ZDApp_NwkWriteNVRequest (stubs AddrMgrWriteNVRequest)
// 3143  *
// 3144  * @brief       Stub routine implemented by NHLE. NHLE should call
// 3145  *              <AddrMgrWriteNV> when appropriate.
// 3146  *
// 3147  * @param       none
// 3148  *
// 3149  * @return      none
// 3150  */

        RSEG BANKED_CODE:CODE:NOROOT(0)
// 3151 void ZDApp_NwkWriteNVRequest( void )
AddrMgrWriteNVRequest:
          CFI Block cfiBlock159 Using cfiCommon0
          CFI Function AddrMgrWriteNVRequest
        CODE
// 3152 {
        ; Saved register size: 0
        ; Auto size: 0
// 3153 #if defined ( NV_RESTORE )
// 3154   if ( !osal_get_timeoutEx( ZDAppTaskID, ZDO_NWK_UPDATE_NV ) )
// 3155   {
// 3156     // Trigger to save info into NV
// 3157     ZDApp_NVUpdate();
// 3158   }
// 3159 #endif
// 3160 }
        LJMP    ?BRET
          CFI EndBlock cfiBlock159
// 3161 
// 3162 /*********************************************************************
// 3163  * Call Back Functions from Security  - API
// 3164  */
// 3165 
// 3166  /*********************************************************************
// 3167  * @fn          ZDO_UpdateDeviceIndication
// 3168  *
// 3169  * @brief       This function notifies the "Trust Center" of a
// 3170  *              network when a device joins or leaves the network.
// 3171  *
// 3172  * @param       extAddr - pointer to 64 bit address of new device
// 3173  * @param       status  - 0 if a new device joined securely
// 3174  *                      - 1 if a new device joined un-securely
// 3175  *                      - 2 if a device left the network
// 3176  *
// 3177  * @return      true if newly joined device should be allowed to
// 3178  *                                              remain on network
// 3179  */

        RSEG BANKED_CODE:CODE:NOROOT(0)
// 3180 ZStatus_t ZDO_UpdateDeviceIndication( uint8 *extAddr, uint8 status )
ZDO_UpdateDeviceIndication:
          CFI Block cfiBlock160 Using cfiCommon0
          CFI Function ZDO_UpdateDeviceIndication
        CODE
// 3181 {
        ; Saved register size: 0
        ; Auto size: 0
// 3182   // can implement a network access policy based on the
// 3183   // IEEE address of newly joining devices...
// 3184   (void)extAddr;
// 3185   (void)status;
// 3186 
// 3187   return ZSuccess;
        MOV     R1,#0x0
        LJMP    ?BRET
// 3188 }
          CFI EndBlock cfiBlock160
// 3189 
// 3190 /*********************************************************************
// 3191  * @fn          ZDApp_InMsgCB
// 3192  *
// 3193  * @brief       This function is called to pass up any message that is
// 3194  *              not yet supported.  This allows for the developer to
// 3195  *              support features themselves..
// 3196  *
// 3197  * @return      none
// 3198  */

        RSEG BANKED_CODE:CODE:NOROOT(0)
// 3199 void ZDApp_InMsgCB( zdoIncomingMsg_t *inMsg )
ZDApp_InMsgCB:
          CFI Block cfiBlock161 Using cfiCommon0
          CFI Function ZDApp_InMsgCB
        CODE
// 3200 {
        FUNCALL ZDApp_InMsgCB, ZDP_GenericRsp
        LOCFRAME ISTACK, 0, STACK
        LOCFRAME PSTACK, 0, STACK
        LOCFRAME XSTACK, 14, STACK
        LOCFRAME IOVERLAY, 0, STATIC
        LOCFRAME DOVERLAY, 0, STATIC
        ARGFRAME ISTACK, 0, STACK
        ARGFRAME PSTACK, 0, STACK
        ARGFRAME XSTACK, 14, STACK
        ARGFRAME IOVERLAY, 0, STATIC
        ARGFRAME DOVERLAY, 0, STATIC
        REQUIRE ?V0
        REQUIRE ?V1
        MOV     A,#-0xa
        LCALL   ?BANKED_ENTER_XDATA
          CFI DPH0 load(1, XDATA, add(CFA_XSP16, literal(-1)))
          CFI DPL0 load(1, XDATA, add(CFA_XSP16, literal(-2)))
          CFI ?BRET_EXT load(1, XDATA, add(CFA_XSP16, literal(-3)))
          CFI ?RET_HIGH load(1, XDATA, add(CFA_XSP16, literal(-4)))
          CFI ?RET_LOW load(1, XDATA, add(CFA_XSP16, literal(-5)))
          CFI R7 load(1, XDATA, add(CFA_XSP16, literal(-6)))
          CFI V1 load(1, XDATA, add(CFA_XSP16, literal(-7)))
          CFI V0 load(1, XDATA, add(CFA_XSP16, literal(-8)))
          CFI VB load(1, XDATA, add(CFA_XSP16, literal(-9)))
          CFI R6 load(1, XDATA, add(CFA_XSP16, literal(-10)))
          CFI CFA_SP SP+0
          CFI CFA_XSP16 add(XSP16, 10)
        ; Saved register size: 10
        ; Auto size: 0
        MOV     A,R2
        MOV     R6,A
        MOV     A,R3
        MOV     R7,A
// 3201   if ( inMsg->clusterID & ZDO_RESPONSE_BIT )
        MOV     A,R6
        ADD     A,#0xc
        MOV     DPL,A
        CLR     A
        ADDC    A,R7
        MOV     DPH,A
        LCALL   ??Subroutine48_0 & 0xFFFF
??CrossCallReturnLabel_80:
        ANL     A,#0x80
        JNZ     ??ZDApp_InMsgCB_0
// 3202   {
// 3203     // Handle the response message
// 3204   }
// 3205   else
// 3206   {
// 3207     // Handle the request message by sending a generic "not supported".
// 3208     // Device Announce doesn't have a response.
// 3209     if ( !(inMsg->wasBroadcast) && inMsg->clusterID != Device_annce )
        LCALL   ?Subroutine39 & 0xFFFF
??CrossCallReturnLabel_52:
        JNZ     ??ZDApp_InMsgCB_0
        MOV     A,#0x13
        XRL     A,R0
        JNZ     ??ZDApp_InMsgCB_1
        MOV     A,R1
??ZDApp_InMsgCB_1:
        JZ      ??ZDApp_InMsgCB_0
// 3210     {
// 3211       ZDP_GenericRsp( inMsg->TransSeq, &(inMsg->srcAddr), ZDP_NOT_SUPPORTED, 0,
// 3212                       (uint16)(inMsg->clusterID | ZDO_RESPONSE_BIT), inMsg->SecurityUse );
        ; Setup parameters for call to function ZDP_GenericRsp
        MOV     A,R0
        MOV     ?V0,A
        MOV     A,R1
        ORL     A,#0x80
        MOV     ?V1,A
        MOV     R0,#?V0
        LCALL   ?PUSH_XSTACK_I_TWO
          CFI CFA_XSP16 add(XSP16, 12)
        CLR     A
        MOV     ?V0,A
        MOV     ?V1,A
        MOV     R0,#?V0
        LCALL   ?PUSH_XSTACK_I_TWO
          CFI CFA_XSP16 add(XSP16, 14)
        LCALL   ?Subroutine34 & 0xFFFF
// 3213     }
// 3214   }
??CrossCallReturnLabel_46:
        MOVX    A,@DPTR
        MOV     R5,A
        MOV     R4,#-0x7c
        LCALL   ?Subroutine31 & 0xFFFF
??CrossCallReturnLabel_40:
        LCALL   ?Subroutine32 & 0xFFFF
??CrossCallReturnLabel_42:
        MOVX    A,@DPTR
        MOV     R1,A
        LCALL   `??ZDP_GenericRsp::?relay`; Banked call to: ZDP_GenericRsp
        MOV     A,#0x4
        LCALL   ?DEALLOC_XSTACK8
          CFI CFA_XSP16 add(XSP16, 10)
// 3215 }
??ZDApp_InMsgCB_0:
        LJMP    ??Subroutine50_0 & 0xFFFF
          CFI EndBlock cfiBlock161

        RSEG BANKED_CODE:CODE:NOROOT(0)
?Subroutine39:
          CFI Block cfiCond162 Using cfiCommon0
          CFI Function ZDO_LeaveCnf
          CFI Conditional ??CrossCallReturnLabel_53, ??CrossCallReturnLabel_36
          CFI R6 load(1, XDATA, add(CFA_XSP16, literal(-10)))
          CFI VB load(1, XDATA, add(CFA_XSP16, literal(-9)))
          CFI V0 load(1, XDATA, add(CFA_XSP16, literal(-8)))
          CFI V1 load(1, XDATA, add(CFA_XSP16, literal(-7)))
          CFI R7 load(1, XDATA, add(CFA_XSP16, literal(-6)))
          CFI ?RET_LOW load(1, XDATA, add(CFA_XSP16, literal(-5)))
          CFI ?RET_HIGH load(1, XDATA, add(CFA_XSP16, literal(-4)))
          CFI ?BRET_EXT load(1, XDATA, add(CFA_XSP16, literal(-3)))
          CFI DPL0 load(1, XDATA, add(CFA_XSP16, literal(-2)))
          CFI DPH0 load(1, XDATA, add(CFA_XSP16, literal(-1)))
          CFI CFA_SP SP+-4
          CFI CFA_XSP16 add(XSP16, 10)
          CFI Block cfiCond163 Using cfiCommon0
          CFI (cfiCond163) Function ZDO_LeaveInd
          CFI (cfiCond163) Conditional ??CrossCallReturnLabel_53, ??CrossCallReturnLabel_37
          CFI (cfiCond163) R6 load(1, XDATA, add(CFA_XSP16, literal(-12)))
          CFI (cfiCond163) VB load(1, XDATA, add(CFA_XSP16, literal(-11)))
          CFI (cfiCond163) V0 load(1, XDATA, add(CFA_XSP16, literal(-10)))
          CFI (cfiCond163) V1 load(1, XDATA, add(CFA_XSP16, literal(-9)))
          CFI (cfiCond163) V2 load(1, XDATA, add(CFA_XSP16, literal(-8)))
          CFI (cfiCond163) V3 load(1, XDATA, add(CFA_XSP16, literal(-7)))
          CFI (cfiCond163) R7 load(1, XDATA, add(CFA_XSP16, literal(-6)))
          CFI (cfiCond163) ?RET_LOW load(1, XDATA, add(CFA_XSP16, literal(-5)))
          CFI (cfiCond163) ?RET_HIGH load(1, XDATA, add(CFA_XSP16, literal(-4)))
          CFI (cfiCond163) ?BRET_EXT load(1, XDATA, add(CFA_XSP16, literal(-3)))
          CFI (cfiCond163) DPL0 load(1, XDATA, add(CFA_XSP16, literal(-2)))
          CFI (cfiCond163) DPH0 load(1, XDATA, add(CFA_XSP16, literal(-1)))
          CFI (cfiCond163) CFA_SP SP+-4
          CFI (cfiCond163) CFA_XSP16 add(XSP16, 14)
          CFI Block cfiCond164 Using cfiCommon0
          CFI (cfiCond164) Function ZDApp_InMsgCB
          CFI (cfiCond164) Conditional ??CrossCallReturnLabel_52
          CFI (cfiCond164) R6 load(1, XDATA, add(CFA_XSP16, literal(-10)))
          CFI (cfiCond164) VB load(1, XDATA, add(CFA_XSP16, literal(-9)))
          CFI (cfiCond164) V0 load(1, XDATA, add(CFA_XSP16, literal(-8)))
          CFI (cfiCond164) V1 load(1, XDATA, add(CFA_XSP16, literal(-7)))
          CFI (cfiCond164) R7 load(1, XDATA, add(CFA_XSP16, literal(-6)))
          CFI (cfiCond164) ?RET_LOW load(1, XDATA, add(CFA_XSP16, literal(-5)))
          CFI (cfiCond164) ?RET_HIGH load(1, XDATA, add(CFA_XSP16, literal(-4)))
          CFI (cfiCond164) ?BRET_EXT load(1, XDATA, add(CFA_XSP16, literal(-3)))
          CFI (cfiCond164) DPL0 load(1, XDATA, add(CFA_XSP16, literal(-2)))
          CFI (cfiCond164) DPH0 load(1, XDATA, add(CFA_XSP16, literal(-1)))
          CFI (cfiCond164) CFA_SP SP+-2
          CFI (cfiCond164) CFA_XSP16 add(XSP16, 10)
          CFI Block cfiPicker165 Using cfiCommon1
          CFI (cfiPicker165) NoFunction
          CFI (cfiPicker165) Picker
        MOV     A,R6
        ADD     A,#0xb
        MOV     DPL,A
        CLR     A
        ADDC    A,R7
        MOV     DPH,A
        MOVX    A,@DPTR
        RET
          CFI (cfiCond162) CFA_SP SP+-2
          CFI (cfiCond163) CFA_SP SP+-2
          CFI (cfiCond164) CFA_SP SP+0
          CFI (cfiPicker165) CFA_SP SP+0
          CFI EndBlock cfiCond162
          CFI EndBlock cfiCond163
          CFI EndBlock cfiCond164
          CFI EndBlock cfiPicker165

        RSEG BANKED_CODE:CODE:NOROOT(0)
?Subroutine34:
          CFI Block cfiCond166 Using cfiCommon0
          CFI Function ZDO_JoinConfirmCB
          CFI Conditional ??CrossCallReturnLabel_45
          CFI R6 load(1, XDATA, add(CFA_XSP16, literal(-12)))
          CFI VB load(1, XDATA, add(CFA_XSP16, literal(-11)))
          CFI V0 load(1, XDATA, add(CFA_XSP16, literal(-10)))
          CFI V1 load(1, XDATA, add(CFA_XSP16, literal(-9)))
          CFI V2 load(1, XDATA, add(CFA_XSP16, literal(-8)))
          CFI V3 load(1, XDATA, add(CFA_XSP16, literal(-7)))
          CFI R7 load(1, XDATA, add(CFA_XSP16, literal(-6)))
          CFI ?RET_LOW load(1, XDATA, add(CFA_XSP16, literal(-5)))
          CFI ?RET_HIGH load(1, XDATA, add(CFA_XSP16, literal(-4)))
          CFI ?BRET_EXT load(1, XDATA, add(CFA_XSP16, literal(-3)))
          CFI DPL0 load(1, XDATA, add(CFA_XSP16, literal(-2)))
          CFI DPH0 load(1, XDATA, add(CFA_XSP16, literal(-1)))
          CFI CFA_SP SP+-2
          CFI CFA_XSP16 add(XSP16, 17)
          CFI Block cfiCond167 Using cfiCommon0
          CFI (cfiCond167) Function ZDApp_InMsgCB
          CFI (cfiCond167) Conditional ??CrossCallReturnLabel_46
          CFI (cfiCond167) R6 load(1, XDATA, add(CFA_XSP16, literal(-10)))
          CFI (cfiCond167) VB load(1, XDATA, add(CFA_XSP16, literal(-9)))
          CFI (cfiCond167) V0 load(1, XDATA, add(CFA_XSP16, literal(-8)))
          CFI (cfiCond167) V1 load(1, XDATA, add(CFA_XSP16, literal(-7)))
          CFI (cfiCond167) R7 load(1, XDATA, add(CFA_XSP16, literal(-6)))
          CFI (cfiCond167) ?RET_LOW load(1, XDATA, add(CFA_XSP16, literal(-5)))
          CFI (cfiCond167) ?RET_HIGH load(1, XDATA, add(CFA_XSP16, literal(-4)))
          CFI (cfiCond167) ?BRET_EXT load(1, XDATA, add(CFA_XSP16, literal(-3)))
          CFI (cfiCond167) DPL0 load(1, XDATA, add(CFA_XSP16, literal(-2)))
          CFI (cfiCond167) DPH0 load(1, XDATA, add(CFA_XSP16, literal(-1)))
          CFI (cfiCond167) CFA_SP SP+-2
          CFI (cfiCond167) CFA_XSP16 add(XSP16, 14)
          CFI Block cfiPicker168 Using cfiCommon1
          CFI (cfiPicker168) NoFunction
          CFI (cfiPicker168) Picker
        MOV     A,R6
        ADD     A,#0xe
        MOV     DPL,A
        CLR     A
        ADDC    A,R7
        MOV     DPH,A
        RET
          CFI (cfiCond166) CFA_SP SP+0
          CFI (cfiCond167) CFA_SP SP+0
          CFI (cfiPicker168) CFA_SP SP+0
          CFI EndBlock cfiCond166
          CFI EndBlock cfiCond167
          CFI EndBlock cfiPicker168

        RSEG BANKED_CODE:CODE:NOROOT(0)
?Subroutine32:
          CFI Block cfiCond169 Using cfiCommon0
          CFI Function ZDO_JoinConfirmCB
          CFI Conditional ??CrossCallReturnLabel_41
          CFI R6 load(1, XDATA, add(CFA_XSP16, literal(-12)))
          CFI VB load(1, XDATA, add(CFA_XSP16, literal(-11)))
          CFI V0 load(1, XDATA, add(CFA_XSP16, literal(-10)))
          CFI V1 load(1, XDATA, add(CFA_XSP16, literal(-9)))
          CFI V2 load(1, XDATA, add(CFA_XSP16, literal(-8)))
          CFI V3 load(1, XDATA, add(CFA_XSP16, literal(-7)))
          CFI R7 load(1, XDATA, add(CFA_XSP16, literal(-6)))
          CFI ?RET_LOW load(1, XDATA, add(CFA_XSP16, literal(-5)))
          CFI ?RET_HIGH load(1, XDATA, add(CFA_XSP16, literal(-4)))
          CFI ?BRET_EXT load(1, XDATA, add(CFA_XSP16, literal(-3)))
          CFI DPL0 load(1, XDATA, add(CFA_XSP16, literal(-2)))
          CFI DPH0 load(1, XDATA, add(CFA_XSP16, literal(-1)))
          CFI CFA_SP SP+-2
          CFI CFA_XSP16 add(XSP16, 17)
          CFI Block cfiCond170 Using cfiCommon0
          CFI (cfiCond170) Function ZDApp_InMsgCB
          CFI (cfiCond170) Conditional ??CrossCallReturnLabel_42
          CFI (cfiCond170) R6 load(1, XDATA, add(CFA_XSP16, literal(-10)))
          CFI (cfiCond170) VB load(1, XDATA, add(CFA_XSP16, literal(-9)))
          CFI (cfiCond170) V0 load(1, XDATA, add(CFA_XSP16, literal(-8)))
          CFI (cfiCond170) V1 load(1, XDATA, add(CFA_XSP16, literal(-7)))
          CFI (cfiCond170) R7 load(1, XDATA, add(CFA_XSP16, literal(-6)))
          CFI (cfiCond170) ?RET_LOW load(1, XDATA, add(CFA_XSP16, literal(-5)))
          CFI (cfiCond170) ?RET_HIGH load(1, XDATA, add(CFA_XSP16, literal(-4)))
          CFI (cfiCond170) ?BRET_EXT load(1, XDATA, add(CFA_XSP16, literal(-3)))
          CFI (cfiCond170) DPL0 load(1, XDATA, add(CFA_XSP16, literal(-2)))
          CFI (cfiCond170) DPH0 load(1, XDATA, add(CFA_XSP16, literal(-1)))
          CFI (cfiCond170) CFA_SP SP+-2
          CFI (cfiCond170) CFA_XSP16 add(XSP16, 14)
          CFI Block cfiPicker171 Using cfiCommon1
          CFI (cfiPicker171) NoFunction
          CFI (cfiPicker171) Picker
        MOV     A,R6
        ADD     A,#0xf
        MOV     DPL,A
        CLR     A
        ADDC    A,R7
        MOV     DPH,A
        RET
          CFI (cfiCond169) CFA_SP SP+0
          CFI (cfiCond170) CFA_SP SP+0
          CFI (cfiPicker171) CFA_SP SP+0
          CFI EndBlock cfiCond169
          CFI EndBlock cfiCond170
          CFI EndBlock cfiPicker171

        RSEG BANKED_CODE:CODE:NOROOT(0)
?Subroutine24:
          CFI Block cfiCond172 Using cfiCommon0
          CFI Function ZDApp_NwkDescListProcessing
          CFI Conditional ??CrossCallReturnLabel_81
          CFI R6 load(1, XDATA, add(CFA_XSP16, literal(-14)))
          CFI VB load(1, XDATA, add(CFA_XSP16, literal(-13)))
          CFI V0 load(1, XDATA, add(CFA_XSP16, literal(-12)))
          CFI V1 load(1, XDATA, add(CFA_XSP16, literal(-11)))
          CFI V2 load(1, XDATA, add(CFA_XSP16, literal(-10)))
          CFI V3 load(1, XDATA, add(CFA_XSP16, literal(-9)))
          CFI V4 load(1, XDATA, add(CFA_XSP16, literal(-8)))
          CFI V5 load(1, XDATA, add(CFA_XSP16, literal(-7)))
          CFI R7 load(1, XDATA, add(CFA_XSP16, literal(-6)))
          CFI ?RET_LOW load(1, XDATA, add(CFA_XSP16, literal(-5)))
          CFI ?RET_HIGH load(1, XDATA, add(CFA_XSP16, literal(-4)))
          CFI ?BRET_EXT load(1, XDATA, add(CFA_XSP16, literal(-3)))
          CFI DPL0 load(1, XDATA, add(CFA_XSP16, literal(-2)))
          CFI DPH0 load(1, XDATA, add(CFA_XSP16, literal(-1)))
          CFI CFA_SP SP+-2
          CFI CFA_XSP16 add(XSP16, 14)
          CFI Block cfiCond173 Using cfiCommon0
          CFI (cfiCond173) Function ZDO_beaconNotifyIndCB
          CFI (cfiCond173) Conditional ??CrossCallReturnLabel_82
          CFI (cfiCond173) R6 load(1, XDATA, add(CFA_XSP16, literal(-18)))
          CFI (cfiCond173) VB load(1, XDATA, add(CFA_XSP16, literal(-17)))
          CFI (cfiCond173) V0 load(1, XDATA, add(CFA_XSP16, literal(-16)))
          CFI (cfiCond173) V1 load(1, XDATA, add(CFA_XSP16, literal(-15)))
          CFI (cfiCond173) V2 load(1, XDATA, add(CFA_XSP16, literal(-14)))
          CFI (cfiCond173) V3 load(1, XDATA, add(CFA_XSP16, literal(-13)))
          CFI (cfiCond173) V4 load(1, XDATA, add(CFA_XSP16, literal(-12)))
          CFI (cfiCond173) V5 load(1, XDATA, add(CFA_XSP16, literal(-11)))
          CFI (cfiCond173) V6 load(1, XDATA, add(CFA_XSP16, literal(-10)))
          CFI (cfiCond173) V7 load(1, XDATA, add(CFA_XSP16, literal(-9)))
          CFI (cfiCond173) V8 load(1, XDATA, add(CFA_XSP16, literal(-8)))
          CFI (cfiCond173) V9 load(1, XDATA, add(CFA_XSP16, literal(-7)))
          CFI (cfiCond173) R7 load(1, XDATA, add(CFA_XSP16, literal(-6)))
          CFI (cfiCond173) ?RET_LOW load(1, XDATA, add(CFA_XSP16, literal(-5)))
          CFI (cfiCond173) ?RET_HIGH load(1, XDATA, add(CFA_XSP16, literal(-4)))
          CFI (cfiCond173) ?BRET_EXT load(1, XDATA, add(CFA_XSP16, literal(-3)))
          CFI (cfiCond173) DPL0 load(1, XDATA, add(CFA_XSP16, literal(-2)))
          CFI (cfiCond173) DPH0 load(1, XDATA, add(CFA_XSP16, literal(-1)))
          CFI (cfiCond173) CFA_SP SP+-2
          CFI (cfiCond173) CFA_XSP16 add(XSP16, 18)
          CFI Block cfiPicker174 Using cfiCommon1
          CFI (cfiPicker174) NoFunction
          CFI (cfiPicker174) Picker
        MOV     DPL,R6
        MOV     DPH,R7
          CFI EndBlock cfiCond172
          CFI EndBlock cfiCond173
          CFI EndBlock cfiPicker174
        REQUIRE ??Subroutine48_0
        ; // Fall through to label ??Subroutine48_0

        RSEG BANKED_CODE:CODE:NOROOT(0)
??Subroutine48_0:
          CFI Block cfiCond175 Using cfiCommon0
          CFI Function ZDApp_ProcessOSALMsg
          CFI Conditional ??CrossCallReturnLabel_77
          CFI R6 load(1, XDATA, add(CFA_XSP16, literal(-12)))
          CFI VB load(1, XDATA, add(CFA_XSP16, literal(-11)))
          CFI V0 load(1, XDATA, add(CFA_XSP16, literal(-10)))
          CFI V1 load(1, XDATA, add(CFA_XSP16, literal(-9)))
          CFI V2 load(1, XDATA, add(CFA_XSP16, literal(-8)))
          CFI V3 load(1, XDATA, add(CFA_XSP16, literal(-7)))
          CFI R7 load(1, XDATA, add(CFA_XSP16, literal(-6)))
          CFI ?RET_LOW load(1, XDATA, add(CFA_XSP16, literal(-5)))
          CFI ?RET_HIGH load(1, XDATA, add(CFA_XSP16, literal(-4)))
          CFI ?BRET_EXT load(1, XDATA, add(CFA_XSP16, literal(-3)))
          CFI DPL0 load(1, XDATA, add(CFA_XSP16, literal(-2)))
          CFI DPH0 load(1, XDATA, add(CFA_XSP16, literal(-1)))
          CFI CFA_SP SP+-2
          CFI CFA_XSP16 add(XSP16, 15)
          CFI Block cfiCond176 Using cfiCommon0
          CFI (cfiCond176) Function ZDApp_ProcessOSALMsg
          CFI (cfiCond176) Conditional ??CrossCallReturnLabel_78
          CFI (cfiCond176) R6 load(1, XDATA, add(CFA_XSP16, literal(-12)))
          CFI (cfiCond176) VB load(1, XDATA, add(CFA_XSP16, literal(-11)))
          CFI (cfiCond176) V0 load(1, XDATA, add(CFA_XSP16, literal(-10)))
          CFI (cfiCond176) V1 load(1, XDATA, add(CFA_XSP16, literal(-9)))
          CFI (cfiCond176) V2 load(1, XDATA, add(CFA_XSP16, literal(-8)))
          CFI (cfiCond176) V3 load(1, XDATA, add(CFA_XSP16, literal(-7)))
          CFI (cfiCond176) R7 load(1, XDATA, add(CFA_XSP16, literal(-6)))
          CFI (cfiCond176) ?RET_LOW load(1, XDATA, add(CFA_XSP16, literal(-5)))
          CFI (cfiCond176) ?RET_HIGH load(1, XDATA, add(CFA_XSP16, literal(-4)))
          CFI (cfiCond176) ?BRET_EXT load(1, XDATA, add(CFA_XSP16, literal(-3)))
          CFI (cfiCond176) DPL0 load(1, XDATA, add(CFA_XSP16, literal(-2)))
          CFI (cfiCond176) DPH0 load(1, XDATA, add(CFA_XSP16, literal(-1)))
          CFI (cfiCond176) CFA_SP SP+-2
          CFI (cfiCond176) CFA_XSP16 add(XSP16, 15)
          CFI Block cfiCond177 Using cfiCommon0
          CFI (cfiCond177) Function ZDO_JoinConfirmCB
          CFI (cfiCond177) Conditional ??CrossCallReturnLabel_79
          CFI (cfiCond177) R6 load(1, XDATA, add(CFA_XSP16, literal(-12)))
          CFI (cfiCond177) VB load(1, XDATA, add(CFA_XSP16, literal(-11)))
          CFI (cfiCond177) V0 load(1, XDATA, add(CFA_XSP16, literal(-10)))
          CFI (cfiCond177) V1 load(1, XDATA, add(CFA_XSP16, literal(-9)))
          CFI (cfiCond177) V2 load(1, XDATA, add(CFA_XSP16, literal(-8)))
          CFI (cfiCond177) V3 load(1, XDATA, add(CFA_XSP16, literal(-7)))
          CFI (cfiCond177) R7 load(1, XDATA, add(CFA_XSP16, literal(-6)))
          CFI (cfiCond177) ?RET_LOW load(1, XDATA, add(CFA_XSP16, literal(-5)))
          CFI (cfiCond177) ?RET_HIGH load(1, XDATA, add(CFA_XSP16, literal(-4)))
          CFI (cfiCond177) ?BRET_EXT load(1, XDATA, add(CFA_XSP16, literal(-3)))
          CFI (cfiCond177) DPL0 load(1, XDATA, add(CFA_XSP16, literal(-2)))
          CFI (cfiCond177) DPH0 load(1, XDATA, add(CFA_XSP16, literal(-1)))
          CFI (cfiCond177) CFA_SP SP+-2
          CFI (cfiCond177) CFA_XSP16 add(XSP16, 17)
          CFI Block cfiCond178 Using cfiCommon0
          CFI (cfiCond178) Function ZDApp_InMsgCB
          CFI (cfiCond178) Conditional ??CrossCallReturnLabel_80
          CFI (cfiCond178) R6 load(1, XDATA, add(CFA_XSP16, literal(-10)))
          CFI (cfiCond178) VB load(1, XDATA, add(CFA_XSP16, literal(-9)))
          CFI (cfiCond178) V0 load(1, XDATA, add(CFA_XSP16, literal(-8)))
          CFI (cfiCond178) V1 load(1, XDATA, add(CFA_XSP16, literal(-7)))
          CFI (cfiCond178) R7 load(1, XDATA, add(CFA_XSP16, literal(-6)))
          CFI (cfiCond178) ?RET_LOW load(1, XDATA, add(CFA_XSP16, literal(-5)))
          CFI (cfiCond178) ?RET_HIGH load(1, XDATA, add(CFA_XSP16, literal(-4)))
          CFI (cfiCond178) ?BRET_EXT load(1, XDATA, add(CFA_XSP16, literal(-3)))
          CFI (cfiCond178) DPL0 load(1, XDATA, add(CFA_XSP16, literal(-2)))
          CFI (cfiCond178) DPH0 load(1, XDATA, add(CFA_XSP16, literal(-1)))
          CFI (cfiCond178) CFA_SP SP+-2
          CFI (cfiCond178) CFA_XSP16 add(XSP16, 10)
          CFI Block cfiCond179 Using cfiCommon0
          CFI (cfiCond179) Function ZDApp_NwkDescListProcessing
          CFI (cfiCond179) Conditional ??CrossCallReturnLabel_81
          CFI (cfiCond179) R6 load(1, XDATA, add(CFA_XSP16, literal(-14)))
          CFI (cfiCond179) VB load(1, XDATA, add(CFA_XSP16, literal(-13)))
          CFI (cfiCond179) V0 load(1, XDATA, add(CFA_XSP16, literal(-12)))
          CFI (cfiCond179) V1 load(1, XDATA, add(CFA_XSP16, literal(-11)))
          CFI (cfiCond179) V2 load(1, XDATA, add(CFA_XSP16, literal(-10)))
          CFI (cfiCond179) V3 load(1, XDATA, add(CFA_XSP16, literal(-9)))
          CFI (cfiCond179) V4 load(1, XDATA, add(CFA_XSP16, literal(-8)))
          CFI (cfiCond179) V5 load(1, XDATA, add(CFA_XSP16, literal(-7)))
          CFI (cfiCond179) R7 load(1, XDATA, add(CFA_XSP16, literal(-6)))
          CFI (cfiCond179) ?RET_LOW load(1, XDATA, add(CFA_XSP16, literal(-5)))
          CFI (cfiCond179) ?RET_HIGH load(1, XDATA, add(CFA_XSP16, literal(-4)))
          CFI (cfiCond179) ?BRET_EXT load(1, XDATA, add(CFA_XSP16, literal(-3)))
          CFI (cfiCond179) DPL0 load(1, XDATA, add(CFA_XSP16, literal(-2)))
          CFI (cfiCond179) DPH0 load(1, XDATA, add(CFA_XSP16, literal(-1)))
          CFI (cfiCond179) CFA_SP SP+-2
          CFI (cfiCond179) CFA_XSP16 add(XSP16, 14)
          CFI Block cfiCond180 Using cfiCommon0
          CFI (cfiCond180) Function ZDO_beaconNotifyIndCB
          CFI (cfiCond180) Conditional ??CrossCallReturnLabel_82
          CFI (cfiCond180) R6 load(1, XDATA, add(CFA_XSP16, literal(-18)))
          CFI (cfiCond180) VB load(1, XDATA, add(CFA_XSP16, literal(-17)))
          CFI (cfiCond180) V0 load(1, XDATA, add(CFA_XSP16, literal(-16)))
          CFI (cfiCond180) V1 load(1, XDATA, add(CFA_XSP16, literal(-15)))
          CFI (cfiCond180) V2 load(1, XDATA, add(CFA_XSP16, literal(-14)))
          CFI (cfiCond180) V3 load(1, XDATA, add(CFA_XSP16, literal(-13)))
          CFI (cfiCond180) V4 load(1, XDATA, add(CFA_XSP16, literal(-12)))
          CFI (cfiCond180) V5 load(1, XDATA, add(CFA_XSP16, literal(-11)))
          CFI (cfiCond180) V6 load(1, XDATA, add(CFA_XSP16, literal(-10)))
          CFI (cfiCond180) V7 load(1, XDATA, add(CFA_XSP16, literal(-9)))
          CFI (cfiCond180) V8 load(1, XDATA, add(CFA_XSP16, literal(-8)))
          CFI (cfiCond180) V9 load(1, XDATA, add(CFA_XSP16, literal(-7)))
          CFI (cfiCond180) R7 load(1, XDATA, add(CFA_XSP16, literal(-6)))
          CFI (cfiCond180) ?RET_LOW load(1, XDATA, add(CFA_XSP16, literal(-5)))
          CFI (cfiCond180) ?RET_HIGH load(1, XDATA, add(CFA_XSP16, literal(-4)))
          CFI (cfiCond180) ?BRET_EXT load(1, XDATA, add(CFA_XSP16, literal(-3)))
          CFI (cfiCond180) DPL0 load(1, XDATA, add(CFA_XSP16, literal(-2)))
          CFI (cfiCond180) DPH0 load(1, XDATA, add(CFA_XSP16, literal(-1)))
          CFI (cfiCond180) CFA_SP SP+-2
          CFI (cfiCond180) CFA_XSP16 add(XSP16, 18)
          CFI Block cfiPicker181 Using cfiCommon1
          CFI (cfiPicker181) NoFunction
          CFI (cfiPicker181) Picker
        LCALL   ?Subroutine36 & 0xFFFF
??CrossCallReturnLabel_97:
        RET
          CFI (cfiCond175) CFA_SP SP+0
          CFI (cfiCond176) CFA_SP SP+0
          CFI (cfiCond177) CFA_SP SP+0
          CFI (cfiCond178) CFA_SP SP+0
          CFI (cfiCond179) CFA_SP SP+0
          CFI (cfiCond180) CFA_SP SP+0
          CFI (cfiPicker181) CFA_SP SP+0
          CFI EndBlock cfiCond175
          CFI EndBlock cfiCond176
          CFI EndBlock cfiCond177
          CFI EndBlock cfiCond178
          CFI EndBlock cfiCond179
          CFI EndBlock cfiCond180
          CFI EndBlock cfiPicker181

        RSEG BANKED_CODE:CODE:NOROOT(0)
?Subroutine36:
          CFI Block cfiCond182 Using cfiCommon0
          CFI Function ZDApp_NwkDescListProcessing
          CFI Conditional ??CrossCallReturnLabel_96, ??CrossCallReturnLabel_25
          CFI R6 load(1, XDATA, add(CFA_XSP16, literal(-14)))
          CFI VB load(1, XDATA, add(CFA_XSP16, literal(-13)))
          CFI V0 load(1, XDATA, add(CFA_XSP16, literal(-12)))
          CFI V1 load(1, XDATA, add(CFA_XSP16, literal(-11)))
          CFI V2 load(1, XDATA, add(CFA_XSP16, literal(-10)))
          CFI V3 load(1, XDATA, add(CFA_XSP16, literal(-9)))
          CFI V4 load(1, XDATA, add(CFA_XSP16, literal(-8)))
          CFI V5 load(1, XDATA, add(CFA_XSP16, literal(-7)))
          CFI R7 load(1, XDATA, add(CFA_XSP16, literal(-6)))
          CFI ?RET_LOW load(1, XDATA, add(CFA_XSP16, literal(-5)))
          CFI ?RET_HIGH load(1, XDATA, add(CFA_XSP16, literal(-4)))
          CFI ?BRET_EXT load(1, XDATA, add(CFA_XSP16, literal(-3)))
          CFI DPL0 load(1, XDATA, add(CFA_XSP16, literal(-2)))
          CFI DPH0 load(1, XDATA, add(CFA_XSP16, literal(-1)))
          CFI CFA_SP SP+-4
          CFI CFA_XSP16 add(XSP16, 14)
          CFI Block cfiCond183 Using cfiCommon0
          CFI (cfiCond183) Function ZDO_JoinConfirmCB
          CFI (cfiCond183) Conditional ??CrossCallReturnLabel_96, ??CrossCallReturnLabel_26
          CFI (cfiCond183) R6 load(1, XDATA, add(CFA_XSP16, literal(-12)))
          CFI (cfiCond183) VB load(1, XDATA, add(CFA_XSP16, literal(-11)))
          CFI (cfiCond183) V0 load(1, XDATA, add(CFA_XSP16, literal(-10)))
          CFI (cfiCond183) V1 load(1, XDATA, add(CFA_XSP16, literal(-9)))
          CFI (cfiCond183) V2 load(1, XDATA, add(CFA_XSP16, literal(-8)))
          CFI (cfiCond183) V3 load(1, XDATA, add(CFA_XSP16, literal(-7)))
          CFI (cfiCond183) R7 load(1, XDATA, add(CFA_XSP16, literal(-6)))
          CFI (cfiCond183) ?RET_LOW load(1, XDATA, add(CFA_XSP16, literal(-5)))
          CFI (cfiCond183) ?RET_HIGH load(1, XDATA, add(CFA_XSP16, literal(-4)))
          CFI (cfiCond183) ?BRET_EXT load(1, XDATA, add(CFA_XSP16, literal(-3)))
          CFI (cfiCond183) DPL0 load(1, XDATA, add(CFA_XSP16, literal(-2)))
          CFI (cfiCond183) DPH0 load(1, XDATA, add(CFA_XSP16, literal(-1)))
          CFI (cfiCond183) CFA_SP SP+-4
          CFI (cfiCond183) CFA_XSP16 add(XSP16, 17)
          CFI Block cfiCond184 Using cfiCommon0
          CFI (cfiCond184) Function ZDO_NetworkDiscoveryConfirmCB
          CFI (cfiCond184) Conditional ??CrossCallReturnLabel_95, ??CrossCallReturnLabel_14
          CFI (cfiCond184) DPL0 Frame(CFA_SP, 4)
          CFI (cfiCond184) DPH0 Frame(CFA_SP, 5)
          CFI (cfiCond184) CFA_SP SP+-9
          CFI (cfiCond184) CFA_XSP16 add(XSP16, 3)
          CFI Block cfiCond185 Using cfiCommon0
          CFI (cfiCond185) Function ZDO_beaconNotifyIndCB
          CFI (cfiCond185) Conditional ??CrossCallReturnLabel_95, ??CrossCallReturnLabel_15
          CFI (cfiCond185) R6 load(1, XDATA, add(CFA_XSP16, literal(-18)))
          CFI (cfiCond185) VB load(1, XDATA, add(CFA_XSP16, literal(-17)))
          CFI (cfiCond185) V0 load(1, XDATA, add(CFA_XSP16, literal(-16)))
          CFI (cfiCond185) V1 load(1, XDATA, add(CFA_XSP16, literal(-15)))
          CFI (cfiCond185) V2 load(1, XDATA, add(CFA_XSP16, literal(-14)))
          CFI (cfiCond185) V3 load(1, XDATA, add(CFA_XSP16, literal(-13)))
          CFI (cfiCond185) V4 load(1, XDATA, add(CFA_XSP16, literal(-12)))
          CFI (cfiCond185) V5 load(1, XDATA, add(CFA_XSP16, literal(-11)))
          CFI (cfiCond185) V6 load(1, XDATA, add(CFA_XSP16, literal(-10)))
          CFI (cfiCond185) V7 load(1, XDATA, add(CFA_XSP16, literal(-9)))
          CFI (cfiCond185) V8 load(1, XDATA, add(CFA_XSP16, literal(-8)))
          CFI (cfiCond185) V9 load(1, XDATA, add(CFA_XSP16, literal(-7)))
          CFI (cfiCond185) R7 load(1, XDATA, add(CFA_XSP16, literal(-6)))
          CFI (cfiCond185) ?RET_LOW load(1, XDATA, add(CFA_XSP16, literal(-5)))
          CFI (cfiCond185) ?RET_HIGH load(1, XDATA, add(CFA_XSP16, literal(-4)))
          CFI (cfiCond185) ?BRET_EXT load(1, XDATA, add(CFA_XSP16, literal(-3)))
          CFI (cfiCond185) DPL0 load(1, XDATA, add(CFA_XSP16, literal(-2)))
          CFI (cfiCond185) DPH0 load(1, XDATA, add(CFA_XSP16, literal(-1)))
          CFI (cfiCond185) CFA_SP SP+-4
          CFI (cfiCond185) CFA_XSP16 add(XSP16, 18)
          CFI Block cfiCond186 Using cfiCommon0
          CFI (cfiCond186) Function ZDO_PermitJoinCB
          CFI (cfiCond186) Conditional ??CrossCallReturnLabel_95, ??CrossCallReturnLabel_16
          CFI (cfiCond186) DPL0 Frame(CFA_SP, 4)
          CFI (cfiCond186) DPH0 Frame(CFA_SP, 5)
          CFI (cfiCond186) CFA_SP SP+-9
          CFI (cfiCond186) CFA_XSP16 add(XSP16, 1)
          CFI Block cfiCond187 Using cfiCommon0
          CFI (cfiCond187) Function ZDO_ConcentratorIndicationCB
          CFI (cfiCond187) Conditional ??CrossCallReturnLabel_95, ??CrossCallReturnLabel_17
          CFI (cfiCond187) R6 load(1, XDATA, add(CFA_XSP16, literal(-9)))
          CFI (cfiCond187) VB load(1, XDATA, add(CFA_XSP16, literal(-8)))
          CFI (cfiCond187) V0 load(1, XDATA, add(CFA_XSP16, literal(-7)))
          CFI (cfiCond187) R7 load(1, XDATA, add(CFA_XSP16, literal(-6)))
          CFI (cfiCond187) ?RET_LOW load(1, XDATA, add(CFA_XSP16, literal(-5)))
          CFI (cfiCond187) ?RET_HIGH load(1, XDATA, add(CFA_XSP16, literal(-4)))
          CFI (cfiCond187) ?BRET_EXT load(1, XDATA, add(CFA_XSP16, literal(-3)))
          CFI (cfiCond187) DPL0 load(1, XDATA, add(CFA_XSP16, literal(-2)))
          CFI (cfiCond187) DPH0 load(1, XDATA, add(CFA_XSP16, literal(-1)))
          CFI (cfiCond187) CFA_SP SP+-4
          CFI (cfiCond187) CFA_XSP16 add(XSP16, 14)
          CFI Block cfiCond188 Using cfiCommon0
          CFI (cfiCond188) Function ZDO_LeaveCnf
          CFI (cfiCond188) Conditional ??CrossCallReturnLabel_95, ??CrossCallReturnLabel_18
          CFI (cfiCond188) R6 load(1, XDATA, add(CFA_XSP16, literal(-10)))
          CFI (cfiCond188) VB load(1, XDATA, add(CFA_XSP16, literal(-9)))
          CFI (cfiCond188) V0 load(1, XDATA, add(CFA_XSP16, literal(-8)))
          CFI (cfiCond188) V1 load(1, XDATA, add(CFA_XSP16, literal(-7)))
          CFI (cfiCond188) R7 load(1, XDATA, add(CFA_XSP16, literal(-6)))
          CFI (cfiCond188) ?RET_LOW load(1, XDATA, add(CFA_XSP16, literal(-5)))
          CFI (cfiCond188) ?RET_HIGH load(1, XDATA, add(CFA_XSP16, literal(-4)))
          CFI (cfiCond188) ?BRET_EXT load(1, XDATA, add(CFA_XSP16, literal(-3)))
          CFI (cfiCond188) DPL0 load(1, XDATA, add(CFA_XSP16, literal(-2)))
          CFI (cfiCond188) DPH0 load(1, XDATA, add(CFA_XSP16, literal(-1)))
          CFI (cfiCond188) CFA_SP SP+-4
          CFI (cfiCond188) CFA_XSP16 add(XSP16, 10)
          CFI Block cfiCond189 Using cfiCommon0
          CFI (cfiCond189) Function ZDO_LeaveInd
          CFI (cfiCond189) Conditional ??CrossCallReturnLabel_95, ??CrossCallReturnLabel_19
          CFI (cfiCond189) R6 load(1, XDATA, add(CFA_XSP16, literal(-12)))
          CFI (cfiCond189) VB load(1, XDATA, add(CFA_XSP16, literal(-11)))
          CFI (cfiCond189) V0 load(1, XDATA, add(CFA_XSP16, literal(-10)))
          CFI (cfiCond189) V1 load(1, XDATA, add(CFA_XSP16, literal(-9)))
          CFI (cfiCond189) V2 load(1, XDATA, add(CFA_XSP16, literal(-8)))
          CFI (cfiCond189) V3 load(1, XDATA, add(CFA_XSP16, literal(-7)))
          CFI (cfiCond189) R7 load(1, XDATA, add(CFA_XSP16, literal(-6)))
          CFI (cfiCond189) ?RET_LOW load(1, XDATA, add(CFA_XSP16, literal(-5)))
          CFI (cfiCond189) ?RET_HIGH load(1, XDATA, add(CFA_XSP16, literal(-4)))
          CFI (cfiCond189) ?BRET_EXT load(1, XDATA, add(CFA_XSP16, literal(-3)))
          CFI (cfiCond189) DPL0 load(1, XDATA, add(CFA_XSP16, literal(-2)))
          CFI (cfiCond189) DPH0 load(1, XDATA, add(CFA_XSP16, literal(-1)))
          CFI (cfiCond189) CFA_SP SP+-4
          CFI (cfiCond189) CFA_XSP16 add(XSP16, 14)
          CFI Block cfiCond190 Using cfiCommon0
          CFI (cfiCond190) Function ZDApp_NwkDescListProcessing
          CFI (cfiCond190) Conditional ??CrossCallReturnLabel_97, ??CrossCallReturnLabel_81
          CFI (cfiCond190) R6 load(1, XDATA, add(CFA_XSP16, literal(-14)))
          CFI (cfiCond190) VB load(1, XDATA, add(CFA_XSP16, literal(-13)))
          CFI (cfiCond190) V0 load(1, XDATA, add(CFA_XSP16, literal(-12)))
          CFI (cfiCond190) V1 load(1, XDATA, add(CFA_XSP16, literal(-11)))
          CFI (cfiCond190) V2 load(1, XDATA, add(CFA_XSP16, literal(-10)))
          CFI (cfiCond190) V3 load(1, XDATA, add(CFA_XSP16, literal(-9)))
          CFI (cfiCond190) V4 load(1, XDATA, add(CFA_XSP16, literal(-8)))
          CFI (cfiCond190) V5 load(1, XDATA, add(CFA_XSP16, literal(-7)))
          CFI (cfiCond190) R7 load(1, XDATA, add(CFA_XSP16, literal(-6)))
          CFI (cfiCond190) ?RET_LOW load(1, XDATA, add(CFA_XSP16, literal(-5)))
          CFI (cfiCond190) ?RET_HIGH load(1, XDATA, add(CFA_XSP16, literal(-4)))
          CFI (cfiCond190) ?BRET_EXT load(1, XDATA, add(CFA_XSP16, literal(-3)))
          CFI (cfiCond190) DPL0 load(1, XDATA, add(CFA_XSP16, literal(-2)))
          CFI (cfiCond190) DPH0 load(1, XDATA, add(CFA_XSP16, literal(-1)))
          CFI (cfiCond190) CFA_SP SP+-4
          CFI (cfiCond190) CFA_XSP16 add(XSP16, 14)
          CFI Block cfiCond191 Using cfiCommon0
          CFI (cfiCond191) Function ZDO_beaconNotifyIndCB
          CFI (cfiCond191) Conditional ??CrossCallReturnLabel_97, ??CrossCallReturnLabel_82
          CFI (cfiCond191) R6 load(1, XDATA, add(CFA_XSP16, literal(-18)))
          CFI (cfiCond191) VB load(1, XDATA, add(CFA_XSP16, literal(-17)))
          CFI (cfiCond191) V0 load(1, XDATA, add(CFA_XSP16, literal(-16)))
          CFI (cfiCond191) V1 load(1, XDATA, add(CFA_XSP16, literal(-15)))
          CFI (cfiCond191) V2 load(1, XDATA, add(CFA_XSP16, literal(-14)))
          CFI (cfiCond191) V3 load(1, XDATA, add(CFA_XSP16, literal(-13)))
          CFI (cfiCond191) V4 load(1, XDATA, add(CFA_XSP16, literal(-12)))
          CFI (cfiCond191) V5 load(1, XDATA, add(CFA_XSP16, literal(-11)))
          CFI (cfiCond191) V6 load(1, XDATA, add(CFA_XSP16, literal(-10)))
          CFI (cfiCond191) V7 load(1, XDATA, add(CFA_XSP16, literal(-9)))
          CFI (cfiCond191) V8 load(1, XDATA, add(CFA_XSP16, literal(-8)))
          CFI (cfiCond191) V9 load(1, XDATA, add(CFA_XSP16, literal(-7)))
          CFI (cfiCond191) R7 load(1, XDATA, add(CFA_XSP16, literal(-6)))
          CFI (cfiCond191) ?RET_LOW load(1, XDATA, add(CFA_XSP16, literal(-5)))
          CFI (cfiCond191) ?RET_HIGH load(1, XDATA, add(CFA_XSP16, literal(-4)))
          CFI (cfiCond191) ?BRET_EXT load(1, XDATA, add(CFA_XSP16, literal(-3)))
          CFI (cfiCond191) DPL0 load(1, XDATA, add(CFA_XSP16, literal(-2)))
          CFI (cfiCond191) DPH0 load(1, XDATA, add(CFA_XSP16, literal(-1)))
          CFI (cfiCond191) CFA_SP SP+-4
          CFI (cfiCond191) CFA_XSP16 add(XSP16, 18)
          CFI Block cfiCond192 Using cfiCommon0
          CFI (cfiCond192) Function ZDApp_ProcessOSALMsg
          CFI (cfiCond192) Conditional ??CrossCallReturnLabel_97, ??CrossCallReturnLabel_77
          CFI (cfiCond192) R6 load(1, XDATA, add(CFA_XSP16, literal(-12)))
          CFI (cfiCond192) VB load(1, XDATA, add(CFA_XSP16, literal(-11)))
          CFI (cfiCond192) V0 load(1, XDATA, add(CFA_XSP16, literal(-10)))
          CFI (cfiCond192) V1 load(1, XDATA, add(CFA_XSP16, literal(-9)))
          CFI (cfiCond192) V2 load(1, XDATA, add(CFA_XSP16, literal(-8)))
          CFI (cfiCond192) V3 load(1, XDATA, add(CFA_XSP16, literal(-7)))
          CFI (cfiCond192) R7 load(1, XDATA, add(CFA_XSP16, literal(-6)))
          CFI (cfiCond192) ?RET_LOW load(1, XDATA, add(CFA_XSP16, literal(-5)))
          CFI (cfiCond192) ?RET_HIGH load(1, XDATA, add(CFA_XSP16, literal(-4)))
          CFI (cfiCond192) ?BRET_EXT load(1, XDATA, add(CFA_XSP16, literal(-3)))
          CFI (cfiCond192) DPL0 load(1, XDATA, add(CFA_XSP16, literal(-2)))
          CFI (cfiCond192) DPH0 load(1, XDATA, add(CFA_XSP16, literal(-1)))
          CFI (cfiCond192) CFA_SP SP+-4
          CFI (cfiCond192) CFA_XSP16 add(XSP16, 15)
          CFI Block cfiCond193 Using cfiCommon0
          CFI (cfiCond193) Function ZDApp_ProcessOSALMsg
          CFI (cfiCond193) Conditional ??CrossCallReturnLabel_97, ??CrossCallReturnLabel_78
          CFI (cfiCond193) R6 load(1, XDATA, add(CFA_XSP16, literal(-12)))
          CFI (cfiCond193) VB load(1, XDATA, add(CFA_XSP16, literal(-11)))
          CFI (cfiCond193) V0 load(1, XDATA, add(CFA_XSP16, literal(-10)))
          CFI (cfiCond193) V1 load(1, XDATA, add(CFA_XSP16, literal(-9)))
          CFI (cfiCond193) V2 load(1, XDATA, add(CFA_XSP16, literal(-8)))
          CFI (cfiCond193) V3 load(1, XDATA, add(CFA_XSP16, literal(-7)))
          CFI (cfiCond193) R7 load(1, XDATA, add(CFA_XSP16, literal(-6)))
          CFI (cfiCond193) ?RET_LOW load(1, XDATA, add(CFA_XSP16, literal(-5)))
          CFI (cfiCond193) ?RET_HIGH load(1, XDATA, add(CFA_XSP16, literal(-4)))
          CFI (cfiCond193) ?BRET_EXT load(1, XDATA, add(CFA_XSP16, literal(-3)))
          CFI (cfiCond193) DPL0 load(1, XDATA, add(CFA_XSP16, literal(-2)))
          CFI (cfiCond193) DPH0 load(1, XDATA, add(CFA_XSP16, literal(-1)))
          CFI (cfiCond193) CFA_SP SP+-4
          CFI (cfiCond193) CFA_XSP16 add(XSP16, 15)
          CFI Block cfiCond194 Using cfiCommon0
          CFI (cfiCond194) Function ZDO_JoinConfirmCB
          CFI (cfiCond194) Conditional ??CrossCallReturnLabel_97, ??CrossCallReturnLabel_79
          CFI (cfiCond194) R6 load(1, XDATA, add(CFA_XSP16, literal(-12)))
          CFI (cfiCond194) VB load(1, XDATA, add(CFA_XSP16, literal(-11)))
          CFI (cfiCond194) V0 load(1, XDATA, add(CFA_XSP16, literal(-10)))
          CFI (cfiCond194) V1 load(1, XDATA, add(CFA_XSP16, literal(-9)))
          CFI (cfiCond194) V2 load(1, XDATA, add(CFA_XSP16, literal(-8)))
          CFI (cfiCond194) V3 load(1, XDATA, add(CFA_XSP16, literal(-7)))
          CFI (cfiCond194) R7 load(1, XDATA, add(CFA_XSP16, literal(-6)))
          CFI (cfiCond194) ?RET_LOW load(1, XDATA, add(CFA_XSP16, literal(-5)))
          CFI (cfiCond194) ?RET_HIGH load(1, XDATA, add(CFA_XSP16, literal(-4)))
          CFI (cfiCond194) ?BRET_EXT load(1, XDATA, add(CFA_XSP16, literal(-3)))
          CFI (cfiCond194) DPL0 load(1, XDATA, add(CFA_XSP16, literal(-2)))
          CFI (cfiCond194) DPH0 load(1, XDATA, add(CFA_XSP16, literal(-1)))
          CFI (cfiCond194) CFA_SP SP+-4
          CFI (cfiCond194) CFA_XSP16 add(XSP16, 17)
          CFI Block cfiCond195 Using cfiCommon0
          CFI (cfiCond195) Function ZDApp_InMsgCB
          CFI (cfiCond195) Conditional ??CrossCallReturnLabel_97, ??CrossCallReturnLabel_80
          CFI (cfiCond195) R6 load(1, XDATA, add(CFA_XSP16, literal(-10)))
          CFI (cfiCond195) VB load(1, XDATA, add(CFA_XSP16, literal(-9)))
          CFI (cfiCond195) V0 load(1, XDATA, add(CFA_XSP16, literal(-8)))
          CFI (cfiCond195) V1 load(1, XDATA, add(CFA_XSP16, literal(-7)))
          CFI (cfiCond195) R7 load(1, XDATA, add(CFA_XSP16, literal(-6)))
          CFI (cfiCond195) ?RET_LOW load(1, XDATA, add(CFA_XSP16, literal(-5)))
          CFI (cfiCond195) ?RET_HIGH load(1, XDATA, add(CFA_XSP16, literal(-4)))
          CFI (cfiCond195) ?BRET_EXT load(1, XDATA, add(CFA_XSP16, literal(-3)))
          CFI (cfiCond195) DPL0 load(1, XDATA, add(CFA_XSP16, literal(-2)))
          CFI (cfiCond195) DPH0 load(1, XDATA, add(CFA_XSP16, literal(-1)))
          CFI (cfiCond195) CFA_SP SP+-4
          CFI (cfiCond195) CFA_XSP16 add(XSP16, 10)
          CFI Block cfiCond196 Using cfiCommon0
          CFI (cfiCond196) Function ZDApp_InitPendingBind
          CFI (cfiCond196) Conditional ??CrossCallReturnLabel_98, ??CrossCallReturnLabel_90
          CFI (cfiCond196) R6 load(1, XDATA, add(CFA_XSP16, literal(-9)))
          CFI (cfiCond196) VB load(1, XDATA, add(CFA_XSP16, literal(-8)))
          CFI (cfiCond196) V0 load(1, XDATA, add(CFA_XSP16, literal(-7)))
          CFI (cfiCond196) R7 load(1, XDATA, add(CFA_XSP16, literal(-6)))
          CFI (cfiCond196) ?RET_LOW load(1, XDATA, add(CFA_XSP16, literal(-5)))
          CFI (cfiCond196) ?RET_HIGH load(1, XDATA, add(CFA_XSP16, literal(-4)))
          CFI (cfiCond196) ?BRET_EXT load(1, XDATA, add(CFA_XSP16, literal(-3)))
          CFI (cfiCond196) DPL0 load(1, XDATA, add(CFA_XSP16, literal(-2)))
          CFI (cfiCond196) DPH0 load(1, XDATA, add(CFA_XSP16, literal(-1)))
          CFI (cfiCond196) CFA_SP SP+-4
          CFI (cfiCond196) CFA_XSP16 add(XSP16, 9)
          CFI Block cfiCond197 Using cfiCommon0
          CFI (cfiCond197) Function ZDApp_InitPendingBind
          CFI (cfiCond197) Conditional ??CrossCallReturnLabel_98, ??CrossCallReturnLabel_91
          CFI (cfiCond197) R6 load(1, XDATA, add(CFA_XSP16, literal(-9)))
          CFI (cfiCond197) VB load(1, XDATA, add(CFA_XSP16, literal(-8)))
          CFI (cfiCond197) V0 load(1, XDATA, add(CFA_XSP16, literal(-7)))
          CFI (cfiCond197) R7 load(1, XDATA, add(CFA_XSP16, literal(-6)))
          CFI (cfiCond197) ?RET_LOW load(1, XDATA, add(CFA_XSP16, literal(-5)))
          CFI (cfiCond197) ?RET_HIGH load(1, XDATA, add(CFA_XSP16, literal(-4)))
          CFI (cfiCond197) ?BRET_EXT load(1, XDATA, add(CFA_XSP16, literal(-3)))
          CFI (cfiCond197) DPL0 load(1, XDATA, add(CFA_XSP16, literal(-2)))
          CFI (cfiCond197) DPH0 load(1, XDATA, add(CFA_XSP16, literal(-1)))
          CFI (cfiCond197) CFA_SP SP+-4
          CFI (cfiCond197) CFA_XSP16 add(XSP16, 9)
          CFI Block cfiCond198 Using cfiCommon0
          CFI (cfiCond198) Function ZDApp_GetEmptyPendingBindReq
          CFI (cfiCond198) Conditional ??CrossCallReturnLabel_98, ??CrossCallReturnLabel_92
          CFI (cfiCond198) DPL0 Frame(CFA_SP, 4)
          CFI (cfiCond198) DPH0 Frame(CFA_SP, 5)
          CFI (cfiCond198) CFA_SP SP+-9
          CFI Block cfiCond199 Using cfiCommon0
          CFI (cfiCond199) Function ZDApp_ProcessPendingBindReq
          CFI (cfiCond199) Conditional ??CrossCallReturnLabel_98, ??CrossCallReturnLabel_93
          CFI (cfiCond199) R6 load(1, XDATA, add(CFA_XSP16, literal(-15)))
          CFI (cfiCond199) VB load(1, XDATA, add(CFA_XSP16, literal(-14)))
          CFI (cfiCond199) V0 load(1, XDATA, add(CFA_XSP16, literal(-13)))
          CFI (cfiCond199) V1 load(1, XDATA, add(CFA_XSP16, literal(-12)))
          CFI (cfiCond199) V2 load(1, XDATA, add(CFA_XSP16, literal(-11)))
          CFI (cfiCond199) V3 load(1, XDATA, add(CFA_XSP16, literal(-10)))
          CFI (cfiCond199) V4 load(1, XDATA, add(CFA_XSP16, literal(-9)))
          CFI (cfiCond199) V5 load(1, XDATA, add(CFA_XSP16, literal(-8)))
          CFI (cfiCond199) V6 load(1, XDATA, add(CFA_XSP16, literal(-7)))
          CFI (cfiCond199) R7 load(1, XDATA, add(CFA_XSP16, literal(-6)))
          CFI (cfiCond199) ?RET_LOW load(1, XDATA, add(CFA_XSP16, literal(-5)))
          CFI (cfiCond199) ?RET_HIGH load(1, XDATA, add(CFA_XSP16, literal(-4)))
          CFI (cfiCond199) ?BRET_EXT load(1, XDATA, add(CFA_XSP16, literal(-3)))
          CFI (cfiCond199) DPL0 load(1, XDATA, add(CFA_XSP16, literal(-2)))
          CFI (cfiCond199) DPH0 load(1, XDATA, add(CFA_XSP16, literal(-1)))
          CFI (cfiCond199) CFA_SP SP+-4
          CFI (cfiCond199) CFA_XSP16 add(XSP16, 16)
          CFI Block cfiCond200 Using cfiCommon0
          CFI (cfiCond200) Function ZDApp_AgeOutPendingBindEntry
          CFI (cfiCond200) Conditional ??CrossCallReturnLabel_98, ??CrossCallReturnLabel_94
          CFI (cfiCond200) R6 load(1, XDATA, add(CFA_XSP16, literal(-12)))
          CFI (cfiCond200) VB load(1, XDATA, add(CFA_XSP16, literal(-11)))
          CFI (cfiCond200) V0 load(1, XDATA, add(CFA_XSP16, literal(-10)))
          CFI (cfiCond200) V1 load(1, XDATA, add(CFA_XSP16, literal(-9)))
          CFI (cfiCond200) V2 load(1, XDATA, add(CFA_XSP16, literal(-8)))
          CFI (cfiCond200) V3 load(1, XDATA, add(CFA_XSP16, literal(-7)))
          CFI (cfiCond200) R7 load(1, XDATA, add(CFA_XSP16, literal(-6)))
          CFI (cfiCond200) ?RET_LOW load(1, XDATA, add(CFA_XSP16, literal(-5)))
          CFI (cfiCond200) ?RET_HIGH load(1, XDATA, add(CFA_XSP16, literal(-4)))
          CFI (cfiCond200) ?BRET_EXT load(1, XDATA, add(CFA_XSP16, literal(-3)))
          CFI (cfiCond200) DPL0 load(1, XDATA, add(CFA_XSP16, literal(-2)))
          CFI (cfiCond200) DPH0 load(1, XDATA, add(CFA_XSP16, literal(-1)))
          CFI (cfiCond200) CFA_SP SP+-4
          CFI (cfiCond200) CFA_XSP16 add(XSP16, 26)
          CFI Block cfiCond201 Using cfiCommon0
          CFI (cfiCond201) Function ZDApp_SecInit
          CFI (cfiCond201) Conditional ??CrossCallReturnLabel_98, ??CrossCallReturnLabel_83
          CFI (cfiCond201) R6 load(1, XDATA, add(CFA_XSP16, literal(-9)))
          CFI (cfiCond201) VB load(1, XDATA, add(CFA_XSP16, literal(-8)))
          CFI (cfiCond201) V0 load(1, XDATA, add(CFA_XSP16, literal(-7)))
          CFI (cfiCond201) R7 load(1, XDATA, add(CFA_XSP16, literal(-6)))
          CFI (cfiCond201) ?RET_LOW load(1, XDATA, add(CFA_XSP16, literal(-5)))
          CFI (cfiCond201) ?RET_HIGH load(1, XDATA, add(CFA_XSP16, literal(-4)))
          CFI (cfiCond201) ?BRET_EXT load(1, XDATA, add(CFA_XSP16, literal(-3)))
          CFI (cfiCond201) DPL0 load(1, XDATA, add(CFA_XSP16, literal(-2)))
          CFI (cfiCond201) DPH0 load(1, XDATA, add(CFA_XSP16, literal(-1)))
          CFI (cfiCond201) CFA_SP SP+-4
          CFI (cfiCond201) CFA_XSP16 add(XSP16, 25)
          CFI Block cfiCond202 Using cfiCommon0
          CFI (cfiCond202) Function ZDApp_LeaveUpdate
          CFI (cfiCond202) Conditional ??CrossCallReturnLabel_98, ??CrossCallReturnLabel_84
          CFI (cfiCond202) R6 load(1, XDATA, add(CFA_XSP16, literal(-15)))
          CFI (cfiCond202) VB load(1, XDATA, add(CFA_XSP16, literal(-14)))
          CFI (cfiCond202) V0 load(1, XDATA, add(CFA_XSP16, literal(-13)))
          CFI (cfiCond202) V1 load(1, XDATA, add(CFA_XSP16, literal(-12)))
          CFI (cfiCond202) V2 load(1, XDATA, add(CFA_XSP16, literal(-11)))
          CFI (cfiCond202) V3 load(1, XDATA, add(CFA_XSP16, literal(-10)))
          CFI (cfiCond202) V4 load(1, XDATA, add(CFA_XSP16, literal(-9)))
          CFI (cfiCond202) V5 load(1, XDATA, add(CFA_XSP16, literal(-8)))
          CFI (cfiCond202) V6 load(1, XDATA, add(CFA_XSP16, literal(-7)))
          CFI (cfiCond202) R7 load(1, XDATA, add(CFA_XSP16, literal(-6)))
          CFI (cfiCond202) ?RET_LOW load(1, XDATA, add(CFA_XSP16, literal(-5)))
          CFI (cfiCond202) ?RET_HIGH load(1, XDATA, add(CFA_XSP16, literal(-4)))
          CFI (cfiCond202) ?BRET_EXT load(1, XDATA, add(CFA_XSP16, literal(-3)))
          CFI (cfiCond202) DPL0 load(1, XDATA, add(CFA_XSP16, literal(-2)))
          CFI (cfiCond202) DPH0 load(1, XDATA, add(CFA_XSP16, literal(-1)))
          CFI (cfiCond202) CFA_SP SP+-4
          CFI (cfiCond202) CFA_XSP16 add(XSP16, 24)
          CFI Block cfiCond203 Using cfiCommon0
          CFI (cfiCond203) Function ZDO_beaconNotifyIndCB
          CFI (cfiCond203) Conditional ??CrossCallReturnLabel_98, ??CrossCallReturnLabel_85
          CFI (cfiCond203) R6 load(1, XDATA, add(CFA_XSP16, literal(-18)))
          CFI (cfiCond203) VB load(1, XDATA, add(CFA_XSP16, literal(-17)))
          CFI (cfiCond203) V0 load(1, XDATA, add(CFA_XSP16, literal(-16)))
          CFI (cfiCond203) V1 load(1, XDATA, add(CFA_XSP16, literal(-15)))
          CFI (cfiCond203) V2 load(1, XDATA, add(CFA_XSP16, literal(-14)))
          CFI (cfiCond203) V3 load(1, XDATA, add(CFA_XSP16, literal(-13)))
          CFI (cfiCond203) V4 load(1, XDATA, add(CFA_XSP16, literal(-12)))
          CFI (cfiCond203) V5 load(1, XDATA, add(CFA_XSP16, literal(-11)))
          CFI (cfiCond203) V6 load(1, XDATA, add(CFA_XSP16, literal(-10)))
          CFI (cfiCond203) V7 load(1, XDATA, add(CFA_XSP16, literal(-9)))
          CFI (cfiCond203) V8 load(1, XDATA, add(CFA_XSP16, literal(-8)))
          CFI (cfiCond203) V9 load(1, XDATA, add(CFA_XSP16, literal(-7)))
          CFI (cfiCond203) R7 load(1, XDATA, add(CFA_XSP16, literal(-6)))
          CFI (cfiCond203) ?RET_LOW load(1, XDATA, add(CFA_XSP16, literal(-5)))
          CFI (cfiCond203) ?RET_HIGH load(1, XDATA, add(CFA_XSP16, literal(-4)))
          CFI (cfiCond203) ?BRET_EXT load(1, XDATA, add(CFA_XSP16, literal(-3)))
          CFI (cfiCond203) DPL0 load(1, XDATA, add(CFA_XSP16, literal(-2)))
          CFI (cfiCond203) DPH0 load(1, XDATA, add(CFA_XSP16, literal(-1)))
          CFI (cfiCond203) CFA_SP SP+-4
          CFI (cfiCond203) CFA_XSP16 add(XSP16, 18)
          CFI Block cfiCond204 Using cfiCommon0
          CFI (cfiCond204) Function ZDO_JoinConfirmCB
          CFI (cfiCond204) Conditional ??CrossCallReturnLabel_98, ??CrossCallReturnLabel_86
          CFI (cfiCond204) R6 load(1, XDATA, add(CFA_XSP16, literal(-12)))
          CFI (cfiCond204) VB load(1, XDATA, add(CFA_XSP16, literal(-11)))
          CFI (cfiCond204) V0 load(1, XDATA, add(CFA_XSP16, literal(-10)))
          CFI (cfiCond204) V1 load(1, XDATA, add(CFA_XSP16, literal(-9)))
          CFI (cfiCond204) V2 load(1, XDATA, add(CFA_XSP16, literal(-8)))
          CFI (cfiCond204) V3 load(1, XDATA, add(CFA_XSP16, literal(-7)))
          CFI (cfiCond204) R7 load(1, XDATA, add(CFA_XSP16, literal(-6)))
          CFI (cfiCond204) ?RET_LOW load(1, XDATA, add(CFA_XSP16, literal(-5)))
          CFI (cfiCond204) ?RET_HIGH load(1, XDATA, add(CFA_XSP16, literal(-4)))
          CFI (cfiCond204) ?BRET_EXT load(1, XDATA, add(CFA_XSP16, literal(-3)))
          CFI (cfiCond204) DPL0 load(1, XDATA, add(CFA_XSP16, literal(-2)))
          CFI (cfiCond204) DPH0 load(1, XDATA, add(CFA_XSP16, literal(-1)))
          CFI (cfiCond204) CFA_SP SP+-4
          CFI (cfiCond204) CFA_XSP16 add(XSP16, 17)
          CFI Block cfiCond205 Using cfiCommon0
          CFI (cfiCond205) Function ZDO_JoinIndicationCB
          CFI (cfiCond205) Conditional ??CrossCallReturnLabel_98, ??CrossCallReturnLabel_87
          CFI (cfiCond205) R6 load(1, XDATA, add(CFA_XSP16, literal(-16)))
          CFI (cfiCond205) VB load(1, XDATA, add(CFA_XSP16, literal(-15)))
          CFI (cfiCond205) V0 load(1, XDATA, add(CFA_XSP16, literal(-14)))
          CFI (cfiCond205) V1 load(1, XDATA, add(CFA_XSP16, literal(-13)))
          CFI (cfiCond205) V2 load(1, XDATA, add(CFA_XSP16, literal(-12)))
          CFI (cfiCond205) V3 load(1, XDATA, add(CFA_XSP16, literal(-11)))
          CFI (cfiCond205) V4 load(1, XDATA, add(CFA_XSP16, literal(-10)))
          CFI (cfiCond205) V5 load(1, XDATA, add(CFA_XSP16, literal(-9)))
          CFI (cfiCond205) V6 load(1, XDATA, add(CFA_XSP16, literal(-8)))
          CFI (cfiCond205) V7 load(1, XDATA, add(CFA_XSP16, literal(-7)))
          CFI (cfiCond205) R7 load(1, XDATA, add(CFA_XSP16, literal(-6)))
          CFI (cfiCond205) ?RET_LOW load(1, XDATA, add(CFA_XSP16, literal(-5)))
          CFI (cfiCond205) ?RET_HIGH load(1, XDATA, add(CFA_XSP16, literal(-4)))
          CFI (cfiCond205) ?BRET_EXT load(1, XDATA, add(CFA_XSP16, literal(-3)))
          CFI (cfiCond205) DPL0 load(1, XDATA, add(CFA_XSP16, literal(-2)))
          CFI (cfiCond205) DPH0 load(1, XDATA, add(CFA_XSP16, literal(-1)))
          CFI (cfiCond205) CFA_SP SP+-4
          CFI (cfiCond205) CFA_XSP16 add(XSP16, 16)
          CFI Block cfiCond206 Using cfiCommon0
          CFI (cfiCond206) Function ZDO_JoinIndicationCB
          CFI (cfiCond206) Conditional ??CrossCallReturnLabel_98, ??CrossCallReturnLabel_88
          CFI (cfiCond206) R6 load(1, XDATA, add(CFA_XSP16, literal(-16)))
          CFI (cfiCond206) VB load(1, XDATA, add(CFA_XSP16, literal(-15)))
          CFI (cfiCond206) V0 load(1, XDATA, add(CFA_XSP16, literal(-14)))
          CFI (cfiCond206) V1 load(1, XDATA, add(CFA_XSP16, literal(-13)))
          CFI (cfiCond206) V2 load(1, XDATA, add(CFA_XSP16, literal(-12)))
          CFI (cfiCond206) V3 load(1, XDATA, add(CFA_XSP16, literal(-11)))
          CFI (cfiCond206) V4 load(1, XDATA, add(CFA_XSP16, literal(-10)))
          CFI (cfiCond206) V5 load(1, XDATA, add(CFA_XSP16, literal(-9)))
          CFI (cfiCond206) V6 load(1, XDATA, add(CFA_XSP16, literal(-8)))
          CFI (cfiCond206) V7 load(1, XDATA, add(CFA_XSP16, literal(-7)))
          CFI (cfiCond206) R7 load(1, XDATA, add(CFA_XSP16, literal(-6)))
          CFI (cfiCond206) ?RET_LOW load(1, XDATA, add(CFA_XSP16, literal(-5)))
          CFI (cfiCond206) ?RET_HIGH load(1, XDATA, add(CFA_XSP16, literal(-4)))
          CFI (cfiCond206) ?BRET_EXT load(1, XDATA, add(CFA_XSP16, literal(-3)))
          CFI (cfiCond206) DPL0 load(1, XDATA, add(CFA_XSP16, literal(-2)))
          CFI (cfiCond206) DPH0 load(1, XDATA, add(CFA_XSP16, literal(-1)))
          CFI (cfiCond206) CFA_SP SP+-4
          CFI (cfiCond206) CFA_XSP16 add(XSP16, 16)
          CFI Block cfiCond207 Using cfiCommon0
          CFI (cfiCond207) Function ZDO_SrcRtgIndCB
          CFI (cfiCond207) Conditional ??CrossCallReturnLabel_98, ??CrossCallReturnLabel_89
          CFI (cfiCond207) R6 load(1, XDATA, add(CFA_XSP16, literal(-9)))
          CFI (cfiCond207) VB load(1, XDATA, add(CFA_XSP16, literal(-8)))
          CFI (cfiCond207) V0 load(1, XDATA, add(CFA_XSP16, literal(-7)))
          CFI (cfiCond207) R7 load(1, XDATA, add(CFA_XSP16, literal(-6)))
          CFI (cfiCond207) ?RET_LOW load(1, XDATA, add(CFA_XSP16, literal(-5)))
          CFI (cfiCond207) ?RET_HIGH load(1, XDATA, add(CFA_XSP16, literal(-4)))
          CFI (cfiCond207) ?BRET_EXT load(1, XDATA, add(CFA_XSP16, literal(-3)))
          CFI (cfiCond207) DPL0 load(1, XDATA, add(CFA_XSP16, literal(-2)))
          CFI (cfiCond207) DPH0 load(1, XDATA, add(CFA_XSP16, literal(-1)))
          CFI (cfiCond207) CFA_SP SP+-4
          CFI (cfiCond207) CFA_XSP16 add(XSP16, 14)
          CFI Block cfiPicker208 Using cfiCommon1
          CFI (cfiPicker208) NoFunction
          CFI (cfiPicker208) Picker
        MOVX    A,@DPTR
        MOV     R0,A
        INC     DPTR
        MOVX    A,@DPTR
        MOV     R1,A
        RET
          CFI (cfiCond182) CFA_SP SP+-2
          CFI (cfiCond183) CFA_SP SP+-2
          CFI (cfiCond184) CFA_SP SP+-7
          CFI (cfiCond185) CFA_SP SP+-2
          CFI (cfiCond186) CFA_SP SP+-7
          CFI (cfiCond187) CFA_SP SP+-2
          CFI (cfiCond188) CFA_SP SP+-2
          CFI (cfiCond189) CFA_SP SP+-2
          CFI (cfiCond190) CFA_SP SP+-2
          CFI (cfiCond191) CFA_SP SP+-2
          CFI (cfiCond192) CFA_SP SP+-2
          CFI (cfiCond193) CFA_SP SP+-2
          CFI (cfiCond194) CFA_SP SP+-2
          CFI (cfiCond195) CFA_SP SP+-2
          CFI (cfiCond196) CFA_SP SP+-2
          CFI (cfiCond197) CFA_SP SP+-2
          CFI (cfiCond198) CFA_SP SP+-7
          CFI (cfiCond199) CFA_SP SP+-2
          CFI (cfiCond200) CFA_SP SP+-2
          CFI (cfiCond201) CFA_SP SP+-2
          CFI (cfiCond202) CFA_SP SP+-2
          CFI (cfiCond203) CFA_SP SP+-2
          CFI (cfiCond204) CFA_SP SP+-2
          CFI (cfiCond205) CFA_SP SP+-2
          CFI (cfiCond206) CFA_SP SP+-2
          CFI (cfiCond207) CFA_SP SP+-2
          CFI (cfiPicker208) CFA_SP SP+0
          CFI EndBlock cfiCond182
          CFI EndBlock cfiCond183
          CFI EndBlock cfiCond184
          CFI EndBlock cfiCond185
          CFI EndBlock cfiCond186
          CFI EndBlock cfiCond187
          CFI EndBlock cfiCond188
          CFI EndBlock cfiCond189
          CFI EndBlock cfiCond190
          CFI EndBlock cfiCond191
          CFI EndBlock cfiCond192
          CFI EndBlock cfiCond193
          CFI EndBlock cfiCond194
          CFI EndBlock cfiCond195
          CFI EndBlock cfiCond196
          CFI EndBlock cfiCond197
          CFI EndBlock cfiCond198
          CFI EndBlock cfiCond199
          CFI EndBlock cfiCond200
          CFI EndBlock cfiCond201
          CFI EndBlock cfiCond202
          CFI EndBlock cfiCond203
          CFI EndBlock cfiCond204
          CFI EndBlock cfiCond205
          CFI EndBlock cfiCond206
          CFI EndBlock cfiCond207
          CFI EndBlock cfiPicker208
// 3216 
// 3217 
// 3218 /*********************************************************************
// 3219  * @fn      ZDApp_ChangeMatchDescRespPermission()
// 3220  *
// 3221  * @brief   Changes the Match Descriptor Response permission.
// 3222  *
// 3223  * @param   endpoint - endpoint to allow responses
// 3224  * @param   action - true to allow responses, false to not
// 3225  *
// 3226  * @return  none
// 3227  */

        RSEG BANKED_CODE:CODE:NOROOT(0)
// 3228 void ZDApp_ChangeMatchDescRespPermission( uint8 endpoint, uint8 action )
ZDApp_ChangeMatchDescRespPermission:
          CFI Block cfiBlock209 Using cfiCommon0
          CFI Function ZDApp_ChangeMatchDescRespPermission
        CODE
// 3229 {
        FUNCALL ZDApp_ChangeMatchDescRespPermission, afSetMatch
        LOCFRAME ISTACK, 0, STACK
        LOCFRAME PSTACK, 0, STACK
        LOCFRAME XSTACK, 9, STACK
        LOCFRAME IOVERLAY, 0, STATIC
        LOCFRAME DOVERLAY, 0, STATIC
        ARGFRAME ISTACK, 0, STACK
        ARGFRAME PSTACK, 0, STACK
        ARGFRAME XSTACK, 9, STACK
        ARGFRAME IOVERLAY, 0, STATIC
        ARGFRAME DOVERLAY, 0, STATIC
        MOV     A,#-0x9
        LCALL   ?BANKED_ENTER_XDATA
          CFI DPH0 load(1, XDATA, add(CFA_XSP16, literal(-1)))
          CFI DPL0 load(1, XDATA, add(CFA_XSP16, literal(-2)))
          CFI ?BRET_EXT load(1, XDATA, add(CFA_XSP16, literal(-3)))
          CFI ?RET_HIGH load(1, XDATA, add(CFA_XSP16, literal(-4)))
          CFI ?RET_LOW load(1, XDATA, add(CFA_XSP16, literal(-5)))
          CFI R7 load(1, XDATA, add(CFA_XSP16, literal(-6)))
          CFI V0 load(1, XDATA, add(CFA_XSP16, literal(-7)))
          CFI VB load(1, XDATA, add(CFA_XSP16, literal(-8)))
          CFI R6 load(1, XDATA, add(CFA_XSP16, literal(-9)))
          CFI CFA_SP SP+0
          CFI CFA_XSP16 add(XSP16, 9)
        ; Saved register size: 9
        ; Auto size: 0
// 3230   // Store the action
// 3231   afSetMatch( endpoint, action );
        ; Setup parameters for call to function afSetMatch
        LCALL   `??afSetMatch::?relay`; Banked call to: afSetMatch
// 3232 }
        LJMP    ??Subroutine46_0 & 0xFFFF
          CFI EndBlock cfiBlock209
// 3233 
// 3234 /*********************************************************************
// 3235  * @fn      ZDApp_NetworkInit()
// 3236  *
// 3237  * @brief   Used to start the network joining process
// 3238  *
// 3239  * @param   delay - mSec delay to wait before starting
// 3240  *
// 3241  * @return  none
// 3242  */

        RSEG BANKED_CODE:CODE:NOROOT(0)
// 3243 void ZDApp_NetworkInit( uint16 delay )
ZDApp_NetworkInit:
          CFI Block cfiBlock210 Using cfiCommon0
          CFI Function ZDApp_NetworkInit
        CODE
// 3244 {
        FUNCALL ZDApp_NetworkInit, osal_start_timerEx
        LOCFRAME ISTACK, 0, STACK
        LOCFRAME PSTACK, 0, STACK
        LOCFRAME XSTACK, 16, STACK
        LOCFRAME IOVERLAY, 0, STATIC
        LOCFRAME DOVERLAY, 0, STATIC
        ARGFRAME ISTACK, 0, STACK
        ARGFRAME PSTACK, 0, STACK
        ARGFRAME XSTACK, 16, STACK
        ARGFRAME IOVERLAY, 0, STATIC
        ARGFRAME DOVERLAY, 0, STATIC
        FUNCALL ZDApp_NetworkInit, osal_set_event
        LOCFRAME ISTACK, 0, STACK
        LOCFRAME PSTACK, 0, STACK
        LOCFRAME XSTACK, 12, STACK
        LOCFRAME IOVERLAY, 0, STATIC
        LOCFRAME DOVERLAY, 0, STATIC
        ARGFRAME ISTACK, 0, STACK
        ARGFRAME PSTACK, 0, STACK
        ARGFRAME XSTACK, 12, STACK
        ARGFRAME IOVERLAY, 0, STATIC
        ARGFRAME DOVERLAY, 0, STATIC
        REQUIRE ?V0
        REQUIRE ?V1
        REQUIRE ?V2
        REQUIRE ?V3
        MOV     A,#-0xc
        LCALL   ?BANKED_ENTER_XDATA
          CFI DPH0 load(1, XDATA, add(CFA_XSP16, literal(-1)))
          CFI DPL0 load(1, XDATA, add(CFA_XSP16, literal(-2)))
          CFI ?BRET_EXT load(1, XDATA, add(CFA_XSP16, literal(-3)))
          CFI ?RET_HIGH load(1, XDATA, add(CFA_XSP16, literal(-4)))
          CFI ?RET_LOW load(1, XDATA, add(CFA_XSP16, literal(-5)))
          CFI R7 load(1, XDATA, add(CFA_XSP16, literal(-6)))
          CFI V3 load(1, XDATA, add(CFA_XSP16, literal(-7)))
          CFI V2 load(1, XDATA, add(CFA_XSP16, literal(-8)))
          CFI V1 load(1, XDATA, add(CFA_XSP16, literal(-9)))
          CFI V0 load(1, XDATA, add(CFA_XSP16, literal(-10)))
          CFI VB load(1, XDATA, add(CFA_XSP16, literal(-11)))
          CFI R6 load(1, XDATA, add(CFA_XSP16, literal(-12)))
          CFI CFA_SP SP+0
          CFI CFA_XSP16 add(XSP16, 12)
        ; Saved register size: 12
        ; Auto size: 0
// 3245   if ( delay )
        MOV     A,R2
        ORL     A,R3
        JZ      ??ZDApp_NetworkInit_0
// 3246   {
// 3247     // Wait awhile before starting the device
// 3248     osal_start_timerEx( ZDAppTaskID, ZDO_NETWORK_INIT, delay );
        ; Setup parameters for call to function osal_start_timerEx
        MOV     ?V0,R2
        MOV     ?V1,R3
        CLR     A
        MOV     ?V2,A
        MOV     ?V3,A
        MOV     R0,#?V0
        LCALL   ?PUSH_XSTACK_I_FOUR
          CFI CFA_XSP16 add(XSP16, 16)
        MOV     R2,#0x1
        MOV     R3,#0x0
        MOV     DPTR,#ZDAppTaskID
        MOVX    A,@DPTR
        MOV     R1,A
        LCALL   `??osal_start_timerEx::?relay`; Banked call to: osal_start_timerEx
        MOV     A,#0x4
        LCALL   ?DEALLOC_XSTACK8
          CFI CFA_XSP16 add(XSP16, 12)
        SJMP    ??ZDApp_NetworkInit_1
// 3249   }
// 3250   else
// 3251   {
// 3252     osal_set_event( ZDAppTaskID, ZDO_NETWORK_INIT );
??ZDApp_NetworkInit_0:
        ; Setup parameters for call to function osal_set_event
        MOV     R2,#0x1
        MOV     R3,#0x0
        MOV     DPTR,#ZDAppTaskID
        MOVX    A,@DPTR
        MOV     R1,A
        LCALL   `??osal_set_event::?relay`; Banked call to: osal_set_event
// 3253   }
// 3254 }
??ZDApp_NetworkInit_1:
        LJMP    ??Subroutine54_0 & 0xFFFF
          CFI EndBlock cfiBlock210
// 3255 
// 3256 /*********************************************************************
// 3257  * @fn      ZDApp_NwkStateUpdateCB()
// 3258  *
// 3259  * @brief   This function notifies that this device's network
// 3260  *          state info has been changed.
// 3261  *
// 3262  * @param   none
// 3263  *
// 3264  * @return  none
// 3265  */

        RSEG BANKED_CODE:CODE:NOROOT(0)
// 3266 void ZDApp_NwkStateUpdateCB( void )
ZDApp_NwkStateUpdateCB:
          CFI Block cfiBlock211 Using cfiCommon0
          CFI Function ZDApp_NwkStateUpdateCB
        CODE
// 3267 {
        FUNCALL ZDApp_NwkStateUpdateCB, osal_get_timeoutEx
        LOCFRAME ISTACK, 2, STACK
        LOCFRAME PSTACK, 0, STACK
        LOCFRAME XSTACK, 0, STACK
        LOCFRAME IOVERLAY, 0, STATIC
        LOCFRAME DOVERLAY, 0, STATIC
        ARGFRAME ISTACK, 2, STACK
        ARGFRAME PSTACK, 0, STACK
        ARGFRAME XSTACK, 0, STACK
        ARGFRAME IOVERLAY, 0, STATIC
        ARGFRAME DOVERLAY, 0, STATIC
        PUSH    DPL
          CFI DPL0 Frame(CFA_SP, 4)
          CFI CFA_SP SP+-4
        PUSH    DPH
          CFI DPH0 Frame(CFA_SP, 5)
          CFI CFA_SP SP+-5
        ; Saved register size: 2
        ; Auto size: 0
// 3268   // Notify to save info into NV
// 3269   if ( !osal_get_timeoutEx( ZDAppTaskID, ZDO_NWK_UPDATE_NV ) )
        ; Setup parameters for call to function osal_get_timeoutEx
        MOV     R2,#0x0
        MOV     R3,#0x1
        MOV     DPTR,#ZDAppTaskID
        MOVX    A,@DPTR
        MOV     R1,A
        LCALL   `??osal_get_timeoutEx::?relay`; Banked call to: osal_get_timeoutEx
// 3270   {
// 3271     // Trigger to save info into NV
// 3272     ZDApp_NVUpdate();
// 3273   }
// 3274 }
        LJMP    ??Subroutine40_0 & 0xFFFF
          CFI EndBlock cfiBlock211
// 3275 
// 3276 /*********************************************************************
// 3277  * @fn      ZDApp_NodeProfileSync()
// 3278  *
// 3279  * @brief   Sync node with stack profile.
// 3280  *
// 3281  * @param   stackProfile - stack profile of the network to join
// 3282  *
// 3283  * @return  none
// 3284  */

        RSEG BANKED_CODE:CODE:NOROOT(0)
// 3285 void ZDApp_NodeProfileSync( uint8 stackProfile )
ZDApp_NodeProfileSync:
          CFI Block cfiBlock212 Using cfiCommon0
          CFI Function ZDApp_NodeProfileSync
        CODE
// 3286 {
        FUNCALL ZDApp_NodeProfileSync, NLME_SetBroadcastFilter
        LOCFRAME ISTACK, 0, STACK
        LOCFRAME PSTACK, 0, STACK
        LOCFRAME XSTACK, 9, STACK
        LOCFRAME IOVERLAY, 0, STATIC
        LOCFRAME DOVERLAY, 0, STATIC
        ARGFRAME ISTACK, 0, STACK
        ARGFRAME PSTACK, 0, STACK
        ARGFRAME XSTACK, 9, STACK
        ARGFRAME IOVERLAY, 0, STATIC
        ARGFRAME DOVERLAY, 0, STATIC
        MOV     A,#-0x9
        LCALL   ?BANKED_ENTER_XDATA
          CFI DPH0 load(1, XDATA, add(CFA_XSP16, literal(-1)))
          CFI DPL0 load(1, XDATA, add(CFA_XSP16, literal(-2)))
          CFI ?BRET_EXT load(1, XDATA, add(CFA_XSP16, literal(-3)))
          CFI ?RET_HIGH load(1, XDATA, add(CFA_XSP16, literal(-4)))
          CFI ?RET_LOW load(1, XDATA, add(CFA_XSP16, literal(-5)))
          CFI R7 load(1, XDATA, add(CFA_XSP16, literal(-6)))
          CFI V0 load(1, XDATA, add(CFA_XSP16, literal(-7)))
          CFI VB load(1, XDATA, add(CFA_XSP16, literal(-8)))
          CFI R6 load(1, XDATA, add(CFA_XSP16, literal(-9)))
          CFI CFA_SP SP+0
          CFI CFA_XSP16 add(XSP16, 9)
        ; Saved register size: 9
        ; Auto size: 0
        MOV     A,R1
        MOV     R6,A
// 3287   if ( ZDO_Config_Node_Descriptor.CapabilityFlags & CAPINFO_DEVICETYPE_FFD  )
        MOV     DPTR,#ZDO_Config_Node_Descriptor + 2
        MOVX    A,@DPTR
        MOV     C,0xE0 /* A   */.1
        JNC     ??ZDApp_NodeProfileSync_0
// 3288   {
// 3289     if ( stackProfile != zgStackProfile )
        MOV     DPTR,#zgStackProfile
        MOVX    A,@DPTR
        XRL     A,R6
        JZ      ??ZDApp_NodeProfileSync_0
// 3290     {
// 3291       ZDO_Config_Node_Descriptor.LogicalType = NODETYPE_DEVICE;
        MOV     DPTR,#ZDO_Config_Node_Descriptor
        MOVX    A,@DPTR
        ANL     A,#0xf8
        MOVX    @DPTR,A
        ORL     A,#0x2
        MOVX    @DPTR,A
// 3292       ZDO_Config_Node_Descriptor.CapabilityFlags = CAPINFO_DEVICETYPE_RFD | CAPINFO_POWER_AC | CAPINFO_RCVR_ON_IDLE;
        MOV     DPTR,#ZDO_Config_Node_Descriptor + 2
        MOV     A,#0xc
        MOVX    @DPTR,A
// 3293       NLME_SetBroadcastFilter( ZDO_Config_Node_Descriptor.CapabilityFlags );
        ; Setup parameters for call to function NLME_SetBroadcastFilter
        MOV     R1,A
        LCALL   `??NLME_SetBroadcastFilter::?relay`; Banked call to: NLME_SetBroadcastFilter
// 3294     }
// 3295   }
// 3296 }
??ZDApp_NodeProfileSync_0:
        LJMP    ??Subroutine46_0 & 0xFFFF
          CFI EndBlock cfiBlock212
// 3297 
// 3298 /*********************************************************************
// 3299  * @fn      ZDApp_StartJoiningCycle()
// 3300  *
// 3301  * @brief   Starts the joining cycle of a device.  This will only
// 3302  *          continue an already started (or stopped) joining cycle.
// 3303  *
// 3304  * @param   none
// 3305  *
// 3306  * @return  TRUE if joining stopped, FALSE if joining or rejoining
// 3307  */

        RSEG BANKED_CODE:CODE:NOROOT(0)
// 3308 uint8 ZDApp_StartJoiningCycle( void )
ZDApp_StartJoiningCycle:
          CFI Block cfiBlock213 Using cfiCommon0
          CFI Function ZDApp_StartJoiningCycle
        CODE
// 3309 {
        FUNCALL ZDApp_StartJoiningCycle, ZDApp_NetworkInit
        LOCFRAME ISTACK, 2, STACK
        LOCFRAME PSTACK, 0, STACK
        LOCFRAME XSTACK, 0, STACK
        LOCFRAME IOVERLAY, 0, STATIC
        LOCFRAME DOVERLAY, 0, STATIC
        ARGFRAME ISTACK, 2, STACK
        ARGFRAME PSTACK, 0, STACK
        ARGFRAME XSTACK, 0, STACK
        ARGFRAME IOVERLAY, 0, STATIC
        ARGFRAME DOVERLAY, 0, STATIC
        PUSH    DPL
          CFI DPL0 Frame(CFA_SP, 4)
          CFI CFA_SP SP+-4
        PUSH    DPH
          CFI DPH0 Frame(CFA_SP, 5)
          CFI CFA_SP SP+-5
        ; Saved register size: 2
        ; Auto size: 0
// 3310   if ( devState == DEV_INIT || devState == DEV_NWK_DISC )
        MOV     DPTR,#devState
        MOVX    A,@DPTR
        XRL     A,#0x1
        JZ      ??ZDApp_StartJoiningCycle_0
        MOVX    A,@DPTR
        XRL     A,#0x2
        JNZ     ??ZDApp_StartJoiningCycle_1
// 3311   {
// 3312     continueJoining = TRUE;
??ZDApp_StartJoiningCycle_0:
        MOV     DPTR,#continueJoining
        MOV     A,#0x1
        MOVX    @DPTR,A
// 3313     ZDApp_NetworkInit( 0 );
        ; Setup parameters for call to function ZDApp_NetworkInit
        MOV     R2,#0x0
        MOV     R3,#0x0
        LCALL   `??ZDApp_NetworkInit::?relay`; Banked call to: ZDApp_NetworkInit
// 3314 
// 3315     return ( TRUE );
        MOV     R1,#0x1
        SJMP    ??ZDApp_StartJoiningCycle_2
// 3316   }
// 3317   else
// 3318     return ( FALSE );
??ZDApp_StartJoiningCycle_1:
        MOV     R1,#0x0
??ZDApp_StartJoiningCycle_2:
        LJMP    ??Subroutine40_0 & 0xFFFF
// 3319 }
          CFI EndBlock cfiBlock213
// 3320 
// 3321 /*********************************************************************
// 3322  * @fn      ZDApp_StopJoiningCycle()
// 3323  *
// 3324  * @brief   Stops the joining or rejoining process of a device.
// 3325  *
// 3326  * @param   none
// 3327  *
// 3328  * @return  TRUE if joining stopped, FALSE if joining or rejoining
// 3329  */

        RSEG BANKED_CODE:CODE:NOROOT(0)
// 3330 uint8 ZDApp_StopJoiningCycle( void )
ZDApp_StopJoiningCycle:
          CFI Block cfiBlock214 Using cfiCommon0
          CFI Function ZDApp_StopJoiningCycle
        CODE
// 3331 {
        PUSH    DPL
          CFI DPL0 Frame(CFA_SP, 4)
          CFI CFA_SP SP+-4
        PUSH    DPH
          CFI DPH0 Frame(CFA_SP, 5)
          CFI CFA_SP SP+-5
        ; Saved register size: 2
        ; Auto size: 0
// 3332   if ( devState == DEV_INIT || devState == DEV_NWK_DISC || devState == DEV_NWK_BACKOFF )
        MOV     DPTR,#devState
        MOVX    A,@DPTR
        XRL     A,#0x1
        JZ      ??ZDApp_StopJoiningCycle_0
        MOVX    A,@DPTR
        XRL     A,#0x2
        JZ      ??ZDApp_StopJoiningCycle_0
        MOVX    A,@DPTR
        XRL     A,#0xc
        JNZ     ??ZDApp_StopJoiningCycle_1
// 3333   {
// 3334     continueJoining = FALSE;
??ZDApp_StopJoiningCycle_0:
        MOV     DPTR,#continueJoining
        CLR     A
        MOVX    @DPTR,A
// 3335     return ( TRUE );
        MOV     R1,#0x1
        SJMP    ??ZDApp_StopJoiningCycle_2
// 3336   }
// 3337   else
// 3338     return ( FALSE );
??ZDApp_StopJoiningCycle_1:
        MOV     R1,#0x0
??ZDApp_StopJoiningCycle_2:
        LJMP    ??Subroutine40_0 & 0xFFFF
// 3339 }
          CFI EndBlock cfiBlock214
// 3340 
// 3341 /*********************************************************************
// 3342  * @fn      ZDApp_AnnounceNewAddress()
// 3343  *
// 3344  * @brief   Send Device Announce and hold all transmissions for
// 3345  *          new address timeout.
// 3346  *
// 3347  * @param   none
// 3348  *
// 3349  * @return  none
// 3350  */

        RSEG BANKED_CODE:CODE:NOROOT(0)
// 3351 void ZDApp_AnnounceNewAddress( void )
ZDApp_AnnounceNewAddress:
          CFI Block cfiBlock215 Using cfiCommon0
          CFI Function ZDApp_AnnounceNewAddress
        CODE
// 3352 {
        FUNCALL ZDApp_AnnounceNewAddress, APSME_HoldDataRequests
        LOCFRAME ISTACK, 0, STACK
        LOCFRAME PSTACK, 0, STACK
        LOCFRAME XSTACK, 18, STACK
        LOCFRAME IOVERLAY, 0, STATIC
        LOCFRAME DOVERLAY, 0, STATIC
        ARGFRAME ISTACK, 0, STACK
        ARGFRAME PSTACK, 0, STACK
        ARGFRAME XSTACK, 18, STACK
        ARGFRAME IOVERLAY, 0, STATIC
        ARGFRAME DOVERLAY, 0, STATIC
        FUNCALL ZDApp_AnnounceNewAddress, NLME_GetExtAddr
        LOCFRAME ISTACK, 0, STACK
        LOCFRAME PSTACK, 0, STACK
        LOCFRAME XSTACK, 18, STACK
        LOCFRAME IOVERLAY, 0, STATIC
        LOCFRAME DOVERLAY, 0, STATIC
        ARGFRAME ISTACK, 0, STACK
        ARGFRAME PSTACK, 0, STACK
        ARGFRAME XSTACK, 18, STACK
        ARGFRAME IOVERLAY, 0, STATIC
        ARGFRAME DOVERLAY, 0, STATIC
        FUNCALL ZDApp_AnnounceNewAddress, NLME_GetShortAddr
        LOCFRAME ISTACK, 0, STACK
        LOCFRAME PSTACK, 0, STACK
        LOCFRAME XSTACK, 18, STACK
        LOCFRAME IOVERLAY, 0, STATIC
        LOCFRAME DOVERLAY, 0, STATIC
        ARGFRAME ISTACK, 0, STACK
        ARGFRAME PSTACK, 0, STACK
        ARGFRAME XSTACK, 18, STACK
        ARGFRAME IOVERLAY, 0, STATIC
        ARGFRAME DOVERLAY, 0, STATIC
        FUNCALL ZDApp_AnnounceNewAddress, ZDP_DeviceAnnce
        LOCFRAME ISTACK, 0, STACK
        LOCFRAME PSTACK, 0, STACK
        LOCFRAME XSTACK, 19, STACK
        LOCFRAME IOVERLAY, 0, STATIC
        LOCFRAME DOVERLAY, 0, STATIC
        ARGFRAME ISTACK, 0, STACK
        ARGFRAME PSTACK, 0, STACK
        ARGFRAME XSTACK, 19, STACK
        ARGFRAME IOVERLAY, 0, STATIC
        ARGFRAME DOVERLAY, 0, STATIC
        FUNCALL ZDApp_AnnounceNewAddress, APSME_HoldDataRequests
        LOCFRAME ISTACK, 0, STACK
        LOCFRAME PSTACK, 0, STACK
        LOCFRAME XSTACK, 18, STACK
        LOCFRAME IOVERLAY, 0, STATIC
        LOCFRAME DOVERLAY, 0, STATIC
        ARGFRAME ISTACK, 0, STACK
        ARGFRAME PSTACK, 0, STACK
        ARGFRAME XSTACK, 18, STACK
        ARGFRAME IOVERLAY, 0, STATIC
        ARGFRAME DOVERLAY, 0, STATIC
        FUNCALL ZDApp_AnnounceNewAddress, NLME_GetCoordExtAddr
        LOCFRAME ISTACK, 0, STACK
        LOCFRAME PSTACK, 0, STACK
        LOCFRAME XSTACK, 18, STACK
        LOCFRAME IOVERLAY, 0, STATIC
        LOCFRAME DOVERLAY, 0, STATIC
        ARGFRAME ISTACK, 0, STACK
        ARGFRAME PSTACK, 0, STACK
        ARGFRAME XSTACK, 18, STACK
        ARGFRAME IOVERLAY, 0, STATIC
        ARGFRAME DOVERLAY, 0, STATIC
        FUNCALL ZDApp_AnnounceNewAddress, NLME_GetCoordShortAddr
        LOCFRAME ISTACK, 0, STACK
        LOCFRAME PSTACK, 0, STACK
        LOCFRAME XSTACK, 18, STACK
        LOCFRAME IOVERLAY, 0, STATIC
        LOCFRAME DOVERLAY, 0, STATIC
        ARGFRAME ISTACK, 0, STACK
        ARGFRAME PSTACK, 0, STACK
        ARGFRAME XSTACK, 18, STACK
        ARGFRAME IOVERLAY, 0, STATIC
        ARGFRAME DOVERLAY, 0, STATIC
        FUNCALL ZDApp_AnnounceNewAddress, NLME_SendEndDevTimeoutReq
        LOCFRAME ISTACK, 0, STACK
        LOCFRAME PSTACK, 0, STACK
        LOCFRAME XSTACK, 19, STACK
        LOCFRAME IOVERLAY, 0, STATIC
        LOCFRAME DOVERLAY, 0, STATIC
        ARGFRAME ISTACK, 0, STACK
        ARGFRAME PSTACK, 0, STACK
        ARGFRAME XSTACK, 19, STACK
        ARGFRAME IOVERLAY, 0, STATIC
        ARGFRAME DOVERLAY, 0, STATIC
        REQUIRE ?V0
        REQUIRE ?V1
        MOV     A,#-0xa
        LCALL   ?BANKED_ENTER_XDATA
          CFI DPH0 load(1, XDATA, add(CFA_XSP16, literal(-1)))
          CFI DPL0 load(1, XDATA, add(CFA_XSP16, literal(-2)))
          CFI ?BRET_EXT load(1, XDATA, add(CFA_XSP16, literal(-3)))
          CFI ?RET_HIGH load(1, XDATA, add(CFA_XSP16, literal(-4)))
          CFI ?RET_LOW load(1, XDATA, add(CFA_XSP16, literal(-5)))
          CFI R7 load(1, XDATA, add(CFA_XSP16, literal(-6)))
          CFI V1 load(1, XDATA, add(CFA_XSP16, literal(-7)))
          CFI V0 load(1, XDATA, add(CFA_XSP16, literal(-8)))
          CFI VB load(1, XDATA, add(CFA_XSP16, literal(-9)))
          CFI R6 load(1, XDATA, add(CFA_XSP16, literal(-10)))
          CFI CFA_SP SP+0
          CFI CFA_XSP16 add(XSP16, 10)
        ; Saved register size: 10
        ; Auto size: 8
        MOV     A,#-0x8
        LCALL   ?ALLOC_XSTACK8
          CFI CFA_XSP16 add(XSP16, 18)
// 3353 #if defined ( ZIGBEEPRO )
// 3354   // Turn off data request hold
// 3355   APSME_HoldDataRequests( 0 );
        ; Setup parameters for call to function APSME_HoldDataRequests
        MOV     R2,#0x0
        MOV     R3,#0x0
        LCALL   `??APSME_HoldDataRequests::?relay`; Banked call to: APSME_HoldDataRequests
// 3356 #endif
// 3357 
// 3358   ZDP_DeviceAnnce( NLME_GetShortAddr(), NLME_GetExtAddr(),
// 3359                      ZDO_Config_Node_Descriptor.CapabilityFlags, 0 );
        ; Setup parameters for call to function NLME_GetExtAddr
        LCALL   `??NLME_GetExtAddr::?relay`; Banked call to: NLME_GetExtAddr
        MOV     ?V0,R2
        MOV     ?V1,R3
        MOV     R6,?V0
        ; Setup parameters for call to function NLME_GetShortAddr
        LCALL   `??NLME_GetShortAddr::?relay`; Banked call to: NLME_GetShortAddr
        ; Setup parameters for call to function ZDP_DeviceAnnce
        MOV     ?V0,#0x0
        MOV     R0,#?V0
        LCALL   ?PUSH_XSTACK_I_ONE
          CFI CFA_XSP16 add(XSP16, 19)
        MOV     DPTR,#ZDO_Config_Node_Descriptor + 2
        MOVX    A,@DPTR
        MOV     R1,A
        MOV     A,R6
        MOV     R4,A
        MOV     R5,?V1
        LCALL   `??ZDP_DeviceAnnce::?relay`; Banked call to: ZDP_DeviceAnnce
        MOV     A,#0x1
        LCALL   ?DEALLOC_XSTACK8
          CFI CFA_XSP16 add(XSP16, 18)
// 3360 
// 3361 #if defined ( ZIGBEEPRO )
// 3362   // Setup the timeout
// 3363   APSME_HoldDataRequests( ZDAPP_HOLD_DATA_REQUESTS_TIMEOUT );
        ; Setup parameters for call to function APSME_HoldDataRequests
        MOV     R2,#0x0
        MOV     R3,#0x0
        LCALL   `??APSME_HoldDataRequests::?relay`; Banked call to: APSME_HoldDataRequests
// 3364 #endif
// 3365 
// 3366   if ( ZSTACK_END_DEVICE_BUILD )
// 3367   {
// 3368     if ( zgChildAgingEnable == TRUE )
        MOV     DPTR,#zgChildAgingEnable
        MOVX    A,@DPTR
        XRL     A,#0x1
        JNZ     ??ZDApp_AnnounceNewAddress_0
// 3369     {
// 3370       uint8 coordExtAddr[Z_EXTADDR_LEN];
// 3371 
// 3372       // Send the message to parent
// 3373       NLME_GetCoordExtAddr( coordExtAddr );
        ; Setup parameters for call to function NLME_GetCoordExtAddr
        MOV     R2,?XSP + 0
        MOV     R3,?XSP + 1
        LCALL   `??NLME_GetCoordExtAddr::?relay`; Banked call to: NLME_GetCoordExtAddr
// 3374       NLME_SendEndDevTimeoutReq( NLME_GetCoordShortAddr(), coordExtAddr,
// 3375                                  zgEndDeviceTimeoutValue,
// 3376                                  zgEndDeviceConfiguration );
        ; Setup parameters for call to function NLME_GetCoordShortAddr
        LCALL   `??NLME_GetCoordShortAddr::?relay`; Banked call to: NLME_GetCoordShortAddr
        ; Setup parameters for call to function NLME_SendEndDevTimeoutReq
        MOV     DPTR,#zgEndDeviceConfiguration
        MOVX    A,@DPTR
        MOV     ?V0,A
        MOV     R0,#?V0
        LCALL   ?PUSH_XSTACK_I_ONE
          CFI CFA_XSP16 add(XSP16, 19)
        MOV     DPTR,#zgEndDeviceTimeoutValue
        MOVX    A,@DPTR
        MOV     R1,A
        MOV     A,#0x1
        LCALL   ?XSTACK_DISP102_8
        LCALL   `??NLME_SendEndDevTimeoutReq::?relay`; Banked call to: NLME_SendEndDevTimeoutReq
        MOV     A,#0x1
        LCALL   ?DEALLOC_XSTACK8
          CFI CFA_XSP16 add(XSP16, 18)
// 3377     }
// 3378   }
// 3379 }
??ZDApp_AnnounceNewAddress_0:
        MOV     A,#0x8
        SJMP    ??Subroutine49_0
          CFI EndBlock cfiBlock215

        RSEG BANKED_CODE:CODE:NOROOT(0)
?Subroutine4:
          CFI Block cfiBlock216 Using cfiCommon0
          CFI NoFunction
          CFI CFA_SP SP+0
          CFI CFA_XSP16 add(XSP16, 10)
          CFI VB load(1, XDATA, add(CFA_XSP16, literal(-9)))
          CFI DPL0 load(1, XDATA, add(CFA_XSP16, literal(-2)))
          CFI DPH0 load(1, XDATA, add(CFA_XSP16, literal(-1)))
          CFI R6 load(1, XDATA, add(CFA_XSP16, literal(-10)))
          CFI R7 load(1, XDATA, add(CFA_XSP16, literal(-6)))
          CFI V0 load(1, XDATA, add(CFA_XSP16, literal(-8)))
          CFI V1 load(1, XDATA, add(CFA_XSP16, literal(-7)))
          CFI ?BRET_EXT load(1, XDATA, add(CFA_XSP16, literal(-3)))
          CFI ?RET_HIGH load(1, XDATA, add(CFA_XSP16, literal(-4)))
          CFI ?RET_LOW load(1, XDATA, add(CFA_XSP16, literal(-5)))
        MOV     ?V0,#ZDApp_LeaveCtrl & 0xff
        MOV     ?V1,#(ZDApp_LeaveCtrl >> 8) & 0xff
        MOV     R0,#?V0
        LCALL   ?PUSH_XSTACK_I_TWO
          CFI CFA_XSP16 add(XSP16, 12)
        MOV     ?V0,#0x1
        MOV     ?V1,#0x0
        MOV     R0,#?V0
        LCALL   ?PUSH_XSTACK_I_TWO
          CFI CFA_XSP16 add(XSP16, 14)
        MOV     R4,#0x0
        MOV     R5,#0x0
        MOV     R2,#-0x7b
        MOV     R3,#0x0
        LCALL   `??osal_nv_write::?relay`; Banked call to: osal_nv_write
        MOV     A,#0x4
          CFI EndBlock cfiBlock216
        REQUIRE ??Subroutine49_0
        ; // Fall through to label ??Subroutine49_0

        RSEG BANKED_CODE:CODE:NOROOT(0)
??Subroutine49_0:
          CFI Block cfiBlock217 Using cfiCommon0
          CFI NoFunction
          CFI CFA_SP SP+0
          CFI CFA_XSP16 add(XSP16, 27)
          CFI VB load(1, XDATA, add(CFA_XSP16, literal(-9)))
          CFI DPL0 load(1, XDATA, add(CFA_XSP16, literal(-2)))
          CFI DPH0 load(1, XDATA, add(CFA_XSP16, literal(-1)))
          CFI R6 load(1, XDATA, add(CFA_XSP16, literal(-10)))
          CFI R7 load(1, XDATA, add(CFA_XSP16, literal(-6)))
          CFI V0 load(1, XDATA, add(CFA_XSP16, literal(-8)))
          CFI V1 load(1, XDATA, add(CFA_XSP16, literal(-7)))
          CFI ?BRET_EXT load(1, XDATA, add(CFA_XSP16, literal(-3)))
          CFI ?RET_HIGH load(1, XDATA, add(CFA_XSP16, literal(-4)))
          CFI ?RET_LOW load(1, XDATA, add(CFA_XSP16, literal(-5)))
          CFI Invalid
        LCALL   ?DEALLOC_XSTACK8
          CFI CFA_XSP16 add(XSP16, 10)
          CFI Valid
          CFI EndBlock cfiBlock217
        REQUIRE ??Subroutine50_0
        ; // Fall through to label ??Subroutine50_0

        RSEG BANKED_CODE:CODE:NOROOT(0)
??Subroutine50_0:
          CFI Block cfiBlock218 Using cfiCommon0
          CFI NoFunction
          CFI CFA_SP SP+0
          CFI CFA_XSP16 add(XSP16, 10)
          CFI VB load(1, XDATA, add(CFA_XSP16, literal(-9)))
          CFI DPL0 load(1, XDATA, add(CFA_XSP16, literal(-2)))
          CFI DPH0 load(1, XDATA, add(CFA_XSP16, literal(-1)))
          CFI R6 load(1, XDATA, add(CFA_XSP16, literal(-10)))
          CFI R7 load(1, XDATA, add(CFA_XSP16, literal(-6)))
          CFI V0 load(1, XDATA, add(CFA_XSP16, literal(-8)))
          CFI V1 load(1, XDATA, add(CFA_XSP16, literal(-7)))
          CFI ?BRET_EXT load(1, XDATA, add(CFA_XSP16, literal(-3)))
          CFI ?RET_HIGH load(1, XDATA, add(CFA_XSP16, literal(-4)))
          CFI ?RET_LOW load(1, XDATA, add(CFA_XSP16, literal(-5)))
        MOV     R7,#0x2
        LJMP    ?BANKED_LEAVE_XDATA
          CFI CFA_SP SP+-3
          CFI CFA_XSP16 XSP16+0
          CFI VB SameValue
          CFI DPL0 SameValue
          CFI DPH0 SameValue
          CFI R6 SameValue
          CFI R7 SameValue
          CFI V0 SameValue
          CFI V1 SameValue
          CFI ?BRET_EXT Frame(CFA_SP, 3)
          CFI ?RET_HIGH Frame(CFA_SP, 2)
          CFI ?RET_LOW Frame(CFA_SP, 1)
          CFI EndBlock cfiBlock218
// 3380 
// 3381 /*********************************************************************
// 3382  * @fn      ZDApp_SendParentAnnce()
// 3383  *
// 3384  * @brief   Send Parent Announce message.
// 3385  *
// 3386  * @param   none
// 3387  *
// 3388  * @return  none
// 3389  */

        RSEG BANKED_CODE:CODE:NOROOT(0)
// 3390 void ZDApp_SendParentAnnce( void )
ZDApp_SendParentAnnce:
          CFI Block cfiBlock219 Using cfiCommon0
          CFI Function ZDApp_SendParentAnnce
        CODE
// 3391 {
        FUNCALL ZDApp_SendParentAnnce, AssocMakeListOfRfdChild
        LOCFRAME ISTACK, 0, STACK
        LOCFRAME PSTACK, 0, STACK
        LOCFRAME XSTACK, 22, STACK
        LOCFRAME IOVERLAY, 0, STATIC
        LOCFRAME DOVERLAY, 0, STATIC
        ARGFRAME ISTACK, 0, STACK
        ARGFRAME PSTACK, 0, STACK
        ARGFRAME XSTACK, 22, STACK
        ARGFRAME IOVERLAY, 0, STATIC
        ARGFRAME DOVERLAY, 0, STATIC
        FUNCALL ZDApp_SendParentAnnce, ZDP_ParentAnnce
        LOCFRAME ISTACK, 0, STACK
        LOCFRAME PSTACK, 0, STACK
        LOCFRAME XSTACK, 27, STACK
        LOCFRAME IOVERLAY, 0, STATIC
        LOCFRAME DOVERLAY, 0, STATIC
        ARGFRAME ISTACK, 0, STACK
        ARGFRAME PSTACK, 0, STACK
        ARGFRAME XSTACK, 27, STACK
        ARGFRAME IOVERLAY, 0, STATIC
        ARGFRAME DOVERLAY, 0, STATIC
        FUNCALL ZDApp_SendParentAnnce, osal_mem_free
        LOCFRAME ISTACK, 0, STACK
        LOCFRAME PSTACK, 0, STACK
        LOCFRAME XSTACK, 22, STACK
        LOCFRAME IOVERLAY, 0, STATIC
        LOCFRAME DOVERLAY, 0, STATIC
        ARGFRAME ISTACK, 0, STACK
        ARGFRAME PSTACK, 0, STACK
        ARGFRAME XSTACK, 22, STACK
        ARGFRAME IOVERLAY, 0, STATIC
        ARGFRAME DOVERLAY, 0, STATIC
        REQUIRE ?V0
        REQUIRE ?V1
        REQUIRE ?V2
        REQUIRE ?V3
        MOV     A,#-0xc
        LCALL   ?BANKED_ENTER_XDATA
          CFI DPH0 load(1, XDATA, add(CFA_XSP16, literal(-1)))
          CFI DPL0 load(1, XDATA, add(CFA_XSP16, literal(-2)))
          CFI ?BRET_EXT load(1, XDATA, add(CFA_XSP16, literal(-3)))
          CFI ?RET_HIGH load(1, XDATA, add(CFA_XSP16, literal(-4)))
          CFI ?RET_LOW load(1, XDATA, add(CFA_XSP16, literal(-5)))
          CFI R7 load(1, XDATA, add(CFA_XSP16, literal(-6)))
          CFI V3 load(1, XDATA, add(CFA_XSP16, literal(-7)))
          CFI V2 load(1, XDATA, add(CFA_XSP16, literal(-8)))
          CFI V1 load(1, XDATA, add(CFA_XSP16, literal(-9)))
          CFI V0 load(1, XDATA, add(CFA_XSP16, literal(-10)))
          CFI VB load(1, XDATA, add(CFA_XSP16, literal(-11)))
          CFI R6 load(1, XDATA, add(CFA_XSP16, literal(-12)))
          CFI CFA_SP SP+0
          CFI CFA_XSP16 add(XSP16, 12)
        ; Saved register size: 12
        ; Auto size: 10
        MOV     A,#-0xa
        LCALL   ?ALLOC_XSTACK8
          CFI CFA_XSP16 add(XSP16, 22)
// 3392   uint8 count;
// 3393   uint8 *childInfo;
// 3394 
// 3395   childInfo = AssocMakeListOfRfdChild( &count );
        ; Setup parameters for call to function AssocMakeListOfRfdChild
        MOV     R2,?XSP + 0
        MOV     R3,?XSP + 1
        LCALL   `??AssocMakeListOfRfdChild::?relay`; Banked call to: AssocMakeListOfRfdChild
        MOV     ?V0,R2
        MOV     ?V1,R3
// 3396 
// 3397   if ( childInfo != NULL )
        MOV     A,R2
        ORL     A,?V1
        JZ      ??ZDApp_SendParentAnnce_0
// 3398   {
// 3399     if ( count > 0 )
        MOV     DPL,?XSP + 0
        MOV     DPH,?XSP + 1
        MOVX    A,@DPTR
        JZ      ??ZDApp_SendParentAnnce_1
// 3400     {
// 3401       zAddrType_t dstAddr;
// 3402 
// 3403       dstAddr.addrMode = (afAddrMode_t)AddrBroadcast;
        MOV     A,#0x9
        LCALL   ?XSTACK_DISP0_8
        MOV     A,#0xf
        MOVX    @DPTR,A
// 3404       dstAddr.addr.shortAddr = NWK_BROADCAST_SHORTADDR_DEVZCZR;
        MOV     A,#0x1
        LCALL   ?XSTACK_DISP0_8
        MOV     A,#-0x4
        MOVX    @DPTR,A
        INC     DPTR
        MOV     A,#-0x1
        MOVX    @DPTR,A
// 3405 
// 3406       ZDP_ParentAnnceReq( dstAddr, count, childInfo, 0 );
        ; Setup parameters for call to function ZDP_ParentAnnce
        MOV     ?V2,#0x0
        MOV     R0,#?V2
        LCALL   ?PUSH_XSTACK_I_ONE
          CFI CFA_XSP16 add(XSP16, 23)
        MOV     ?V2,#0x1f
        MOV     ?V3,#0x0
        MOV     R0,#?V2
        LCALL   ?PUSH_XSTACK_I_TWO
          CFI CFA_XSP16 add(XSP16, 25)
        MOV     R0,#?V0
        LCALL   ?PUSH_XSTACK_I_TWO
          CFI CFA_XSP16 add(XSP16, 27)
        MOV     A,#0x5
        LCALL   ?XSTACK_DISP0_8
        MOVX    A,@DPTR
        MOV     R1,A
        MOV     A,#0x6
        LCALL   ?XSTACK_DISP102_8
        MOV     R2,#ZDP_TransID & 0xff
        MOV     R3,#(ZDP_TransID >> 8) & 0xff
        LCALL   `??ZDP_ParentAnnce::?relay`; Banked call to: ZDP_ParentAnnce
        MOV     A,#0x5
        LCALL   ?DEALLOC_XSTACK8
          CFI CFA_XSP16 add(XSP16, 22)
// 3407     }
// 3408 
// 3409     // Free the list after the message has been sent
// 3410     osal_mem_free( childInfo );
??ZDApp_SendParentAnnce_1:
        ; Setup parameters for call to function osal_mem_free
        MOV     R2,?V0
        MOV     R3,?V1
        LCALL   `??osal_mem_free::?relay`; Banked call to: osal_mem_free
// 3411   }
// 3412 }
??ZDApp_SendParentAnnce_0:
        MOV     A,#0xa
        LJMP    ??Subroutine53_0 & 0xFFFF
          CFI EndBlock cfiBlock219
// 3413 
// 3414 /*********************************************************************
// 3415  * @fn          ZDApp_NVUpdate
// 3416  *
// 3417  * @brief       Set the NV Update Timer.
// 3418  *
// 3419  * @param       none
// 3420  *
// 3421  * @return      none
// 3422  */

        RSEG BANKED_CODE:CODE:NOROOT(0)
// 3423 void ZDApp_NVUpdate( void )
ZDApp_NVUpdate:
          CFI Block cfiBlock220 Using cfiCommon0
          CFI Function ZDApp_NVUpdate
        CODE
// 3424 {
        ; Saved register size: 0
        ; Auto size: 0
// 3425 #if defined ( NV_RESTORE )
// 3426   if ( (ZSTACK_END_DEVICE_BUILD)
// 3427        || (ZSTACK_ROUTER_BUILD
// 3428            && (_NIB.CapabilityFlags & CAPINFO_DEVICETYPE_FFD) == 0) )
// 3429   {
// 3430     // No need to wait, set the event to save the state
// 3431     osal_set_event(ZDAppTaskID, ZDO_NWK_UPDATE_NV);
// 3432   }
// 3433   else
// 3434   {
// 3435     // To allow for more changes to the network state before saving
// 3436     osal_start_timerEx( ZDAppTaskID, ZDO_NWK_UPDATE_NV, ZDAPP_UPDATE_NWK_NV_TIME );
// 3437   }
// 3438 #endif
// 3439 }
        LJMP    ?BRET
          CFI EndBlock cfiBlock220
// 3440 
// 3441 /*********************************************************************
// 3442  * @fn      ZDApp_CoordStartPANIDConflictCB()
// 3443  *
// 3444  * @brief   Returns a PAN ID for the network layer to use during
// 3445  *          a coordinator start and there is another network with
// 3446  *          the intended PANID.
// 3447  *
// 3448  * @param   panid - the intended PAN ID
// 3449  *
// 3450  * @return  PANID to try
// 3451  */

        RSEG BANKED_CODE:CODE:NOROOT(0)
// 3452 uint16 ZDApp_CoordStartPANIDConflictCB( uint16 panid )
ZDApp_CoordStartPANIDConflictCB:
          CFI Block cfiBlock221 Using cfiCommon0
          CFI Function ZDApp_CoordStartPANIDConflictCB
        CODE
// 3453 {
        ; Saved register size: 0
        ; Auto size: 0
// 3454   return ( panid + 1 );
        MOV     A,R2
        ADD     A,#0x1
        INC     R2
        JNC     ??ZDApp_CoordStartPANIDConflictCB_0
        INC     R3
??ZDApp_CoordStartPANIDConflictCB_0:
        LJMP    ?BRET
// 3455 }
          CFI EndBlock cfiBlock221
// 3456 
// 3457 /*********************************************************************
// 3458  * @fn          ZDO_SrcRtgIndCB
// 3459  *
// 3460  * @brief       This function notifies the ZDO available src route record received.
// 3461  *
// 3462  * @param       srcAddr - source address of the source route
// 3463  * @param       relayCnt - number of devices in the relay list
// 3464  * @param       relayList - relay list of the source route
// 3465  *
// 3466  * @return      none
// 3467  */

        RSEG BANKED_CODE:CODE:NOROOT(0)
// 3468 void ZDO_SrcRtgIndCB (uint16 srcAddr, uint8 relayCnt, uint16* pRelayList )
ZDO_SrcRtgIndCB:
          CFI Block cfiBlock222 Using cfiCommon0
          CFI Function ZDO_SrcRtgIndCB
        CODE
// 3469 {
        MOV     A,#-0x9
        LCALL   ?BANKED_ENTER_XDATA
          CFI DPH0 load(1, XDATA, add(CFA_XSP16, literal(-1)))
          CFI DPL0 load(1, XDATA, add(CFA_XSP16, literal(-2)))
          CFI ?BRET_EXT load(1, XDATA, add(CFA_XSP16, literal(-3)))
          CFI ?RET_HIGH load(1, XDATA, add(CFA_XSP16, literal(-4)))
          CFI ?RET_LOW load(1, XDATA, add(CFA_XSP16, literal(-5)))
          CFI R7 load(1, XDATA, add(CFA_XSP16, literal(-6)))
          CFI V0 load(1, XDATA, add(CFA_XSP16, literal(-7)))
          CFI VB load(1, XDATA, add(CFA_XSP16, literal(-8)))
          CFI R6 load(1, XDATA, add(CFA_XSP16, literal(-9)))
          CFI CFA_SP SP+0
          CFI CFA_XSP16 add(XSP16, 9)
        ; Saved register size: 9
        ; Auto size: 5
        MOV     A,#-0x5
        LCALL   ?ALLOC_XSTACK8
          CFI CFA_XSP16 add(XSP16, 14)
// 3470   zdoSrcRtg_t srcRtg;
// 3471 
// 3472   srcRtg.srcAddr = srcAddr;
        LCALL   ?Subroutine12 & 0xFFFF
// 3473   srcRtg.relayCnt = relayCnt;
??CrossCallReturnLabel_105:
        MOV     A,#0x2
        LCALL   ?XSTACK_DISP0_8
        MOV     A,R1
        MOVX    @DPTR,A
// 3474   srcRtg.pRelayList = pRelayList;
        MOV     A,#0x3
        LCALL   ?XSTACK_DISP0_8
        MOV     A,R4
        MOVX    @DPTR,A
        INC     DPTR
        MOV     A,R5
        MOVX    @DPTR,A
// 3475 
// 3476   if( zdoCBFunc[ZDO_SRC_RTG_IND_CBID] != NULL )
        MOV     DPTR,#zdoCBFunc
        LCALL   ??Subroutine51_0 & 0xFFFF
??CrossCallReturnLabel_89:
        JZ      ??ZDO_SrcRtgIndCB_0
// 3477   {
// 3478     zdoCBFunc[ZDO_SRC_RTG_IND_CBID]( (void*)&srcRtg );
        ; Setup parameters for indirect call
        MOV     R2,?XSP + 0
        MOV     R3,?XSP + 1
        LCALL   ??Subroutine42_0 & 0xFFFF
// 3479   }
??CrossCallReturnLabel_54:
        LCALL   ?CALL_IND
// 3480 }
??ZDO_SrcRtgIndCB_0:
        LJMP    ?Subroutine6 & 0xFFFF
          CFI EndBlock cfiBlock222

        RSEG BANKED_CODE:CODE:NOROOT(0)
?Subroutine19:
          CFI Block cfiCond223 Using cfiCommon0
          CFI Function ZDApp_InitPendingBind
          CFI Conditional ??CrossCallReturnLabel_90
          CFI R6 load(1, XDATA, add(CFA_XSP16, literal(-9)))
          CFI VB load(1, XDATA, add(CFA_XSP16, literal(-8)))
          CFI V0 load(1, XDATA, add(CFA_XSP16, literal(-7)))
          CFI R7 load(1, XDATA, add(CFA_XSP16, literal(-6)))
          CFI ?RET_LOW load(1, XDATA, add(CFA_XSP16, literal(-5)))
          CFI ?RET_HIGH load(1, XDATA, add(CFA_XSP16, literal(-4)))
          CFI ?BRET_EXT load(1, XDATA, add(CFA_XSP16, literal(-3)))
          CFI DPL0 load(1, XDATA, add(CFA_XSP16, literal(-2)))
          CFI DPH0 load(1, XDATA, add(CFA_XSP16, literal(-1)))
          CFI CFA_SP SP+-2
          CFI CFA_XSP16 add(XSP16, 9)
          CFI Block cfiCond224 Using cfiCommon0
          CFI (cfiCond224) Function ZDApp_InitPendingBind
          CFI (cfiCond224) Conditional ??CrossCallReturnLabel_91
          CFI (cfiCond224) R6 load(1, XDATA, add(CFA_XSP16, literal(-9)))
          CFI (cfiCond224) VB load(1, XDATA, add(CFA_XSP16, literal(-8)))
          CFI (cfiCond224) V0 load(1, XDATA, add(CFA_XSP16, literal(-7)))
          CFI (cfiCond224) R7 load(1, XDATA, add(CFA_XSP16, literal(-6)))
          CFI (cfiCond224) ?RET_LOW load(1, XDATA, add(CFA_XSP16, literal(-5)))
          CFI (cfiCond224) ?RET_HIGH load(1, XDATA, add(CFA_XSP16, literal(-4)))
          CFI (cfiCond224) ?BRET_EXT load(1, XDATA, add(CFA_XSP16, literal(-3)))
          CFI (cfiCond224) DPL0 load(1, XDATA, add(CFA_XSP16, literal(-2)))
          CFI (cfiCond224) DPH0 load(1, XDATA, add(CFA_XSP16, literal(-1)))
          CFI (cfiCond224) CFA_SP SP+-2
          CFI (cfiCond224) CFA_XSP16 add(XSP16, 9)
          CFI Block cfiCond225 Using cfiCommon0
          CFI (cfiCond225) Function ZDApp_GetEmptyPendingBindReq
          CFI (cfiCond225) Conditional ??CrossCallReturnLabel_92
          CFI (cfiCond225) DPL0 Frame(CFA_SP, 4)
          CFI (cfiCond225) DPH0 Frame(CFA_SP, 5)
          CFI (cfiCond225) CFA_SP SP+-7
          CFI Block cfiCond226 Using cfiCommon0
          CFI (cfiCond226) Function ZDApp_ProcessPendingBindReq
          CFI (cfiCond226) Conditional ??CrossCallReturnLabel_93
          CFI (cfiCond226) R6 load(1, XDATA, add(CFA_XSP16, literal(-15)))
          CFI (cfiCond226) VB load(1, XDATA, add(CFA_XSP16, literal(-14)))
          CFI (cfiCond226) V0 load(1, XDATA, add(CFA_XSP16, literal(-13)))
          CFI (cfiCond226) V1 load(1, XDATA, add(CFA_XSP16, literal(-12)))
          CFI (cfiCond226) V2 load(1, XDATA, add(CFA_XSP16, literal(-11)))
          CFI (cfiCond226) V3 load(1, XDATA, add(CFA_XSP16, literal(-10)))
          CFI (cfiCond226) V4 load(1, XDATA, add(CFA_XSP16, literal(-9)))
          CFI (cfiCond226) V5 load(1, XDATA, add(CFA_XSP16, literal(-8)))
          CFI (cfiCond226) V6 load(1, XDATA, add(CFA_XSP16, literal(-7)))
          CFI (cfiCond226) R7 load(1, XDATA, add(CFA_XSP16, literal(-6)))
          CFI (cfiCond226) ?RET_LOW load(1, XDATA, add(CFA_XSP16, literal(-5)))
          CFI (cfiCond226) ?RET_HIGH load(1, XDATA, add(CFA_XSP16, literal(-4)))
          CFI (cfiCond226) ?BRET_EXT load(1, XDATA, add(CFA_XSP16, literal(-3)))
          CFI (cfiCond226) DPL0 load(1, XDATA, add(CFA_XSP16, literal(-2)))
          CFI (cfiCond226) DPH0 load(1, XDATA, add(CFA_XSP16, literal(-1)))
          CFI (cfiCond226) CFA_SP SP+-2
          CFI (cfiCond226) CFA_XSP16 add(XSP16, 16)
          CFI Block cfiCond227 Using cfiCommon0
          CFI (cfiCond227) Function ZDApp_AgeOutPendingBindEntry
          CFI (cfiCond227) Conditional ??CrossCallReturnLabel_94
          CFI (cfiCond227) R6 load(1, XDATA, add(CFA_XSP16, literal(-12)))
          CFI (cfiCond227) VB load(1, XDATA, add(CFA_XSP16, literal(-11)))
          CFI (cfiCond227) V0 load(1, XDATA, add(CFA_XSP16, literal(-10)))
          CFI (cfiCond227) V1 load(1, XDATA, add(CFA_XSP16, literal(-9)))
          CFI (cfiCond227) V2 load(1, XDATA, add(CFA_XSP16, literal(-8)))
          CFI (cfiCond227) V3 load(1, XDATA, add(CFA_XSP16, literal(-7)))
          CFI (cfiCond227) R7 load(1, XDATA, add(CFA_XSP16, literal(-6)))
          CFI (cfiCond227) ?RET_LOW load(1, XDATA, add(CFA_XSP16, literal(-5)))
          CFI (cfiCond227) ?RET_HIGH load(1, XDATA, add(CFA_XSP16, literal(-4)))
          CFI (cfiCond227) ?BRET_EXT load(1, XDATA, add(CFA_XSP16, literal(-3)))
          CFI (cfiCond227) DPL0 load(1, XDATA, add(CFA_XSP16, literal(-2)))
          CFI (cfiCond227) DPH0 load(1, XDATA, add(CFA_XSP16, literal(-1)))
          CFI (cfiCond227) CFA_SP SP+-2
          CFI (cfiCond227) CFA_XSP16 add(XSP16, 26)
          CFI Block cfiPicker228 Using cfiCommon1
          CFI (cfiPicker228) NoFunction
          CFI (cfiPicker228) Picker
        MOV     DPTR,#ZDAppPendingBindReq
          CFI EndBlock cfiCond223
          CFI EndBlock cfiCond224
          CFI EndBlock cfiCond225
          CFI EndBlock cfiCond226
          CFI EndBlock cfiCond227
          CFI EndBlock cfiPicker228
        REQUIRE ??Subroutine51_0
        ; // Fall through to label ??Subroutine51_0

        RSEG BANKED_CODE:CODE:NOROOT(0)
??Subroutine51_0:
          CFI Block cfiCond229 Using cfiCommon0
          CFI Function ZDApp_SecInit
          CFI Conditional ??CrossCallReturnLabel_83
          CFI R6 load(1, XDATA, add(CFA_XSP16, literal(-9)))
          CFI VB load(1, XDATA, add(CFA_XSP16, literal(-8)))
          CFI V0 load(1, XDATA, add(CFA_XSP16, literal(-7)))
          CFI R7 load(1, XDATA, add(CFA_XSP16, literal(-6)))
          CFI ?RET_LOW load(1, XDATA, add(CFA_XSP16, literal(-5)))
          CFI ?RET_HIGH load(1, XDATA, add(CFA_XSP16, literal(-4)))
          CFI ?BRET_EXT load(1, XDATA, add(CFA_XSP16, literal(-3)))
          CFI DPL0 load(1, XDATA, add(CFA_XSP16, literal(-2)))
          CFI DPH0 load(1, XDATA, add(CFA_XSP16, literal(-1)))
          CFI CFA_SP SP+-2
          CFI CFA_XSP16 add(XSP16, 25)
          CFI Block cfiCond230 Using cfiCommon0
          CFI (cfiCond230) Function ZDApp_LeaveUpdate
          CFI (cfiCond230) Conditional ??CrossCallReturnLabel_84
          CFI (cfiCond230) R6 load(1, XDATA, add(CFA_XSP16, literal(-15)))
          CFI (cfiCond230) VB load(1, XDATA, add(CFA_XSP16, literal(-14)))
          CFI (cfiCond230) V0 load(1, XDATA, add(CFA_XSP16, literal(-13)))
          CFI (cfiCond230) V1 load(1, XDATA, add(CFA_XSP16, literal(-12)))
          CFI (cfiCond230) V2 load(1, XDATA, add(CFA_XSP16, literal(-11)))
          CFI (cfiCond230) V3 load(1, XDATA, add(CFA_XSP16, literal(-10)))
          CFI (cfiCond230) V4 load(1, XDATA, add(CFA_XSP16, literal(-9)))
          CFI (cfiCond230) V5 load(1, XDATA, add(CFA_XSP16, literal(-8)))
          CFI (cfiCond230) V6 load(1, XDATA, add(CFA_XSP16, literal(-7)))
          CFI (cfiCond230) R7 load(1, XDATA, add(CFA_XSP16, literal(-6)))
          CFI (cfiCond230) ?RET_LOW load(1, XDATA, add(CFA_XSP16, literal(-5)))
          CFI (cfiCond230) ?RET_HIGH load(1, XDATA, add(CFA_XSP16, literal(-4)))
          CFI (cfiCond230) ?BRET_EXT load(1, XDATA, add(CFA_XSP16, literal(-3)))
          CFI (cfiCond230) DPL0 load(1, XDATA, add(CFA_XSP16, literal(-2)))
          CFI (cfiCond230) DPH0 load(1, XDATA, add(CFA_XSP16, literal(-1)))
          CFI (cfiCond230) CFA_SP SP+-2
          CFI (cfiCond230) CFA_XSP16 add(XSP16, 24)
          CFI Block cfiCond231 Using cfiCommon0
          CFI (cfiCond231) Function ZDO_beaconNotifyIndCB
          CFI (cfiCond231) Conditional ??CrossCallReturnLabel_85
          CFI (cfiCond231) R6 load(1, XDATA, add(CFA_XSP16, literal(-18)))
          CFI (cfiCond231) VB load(1, XDATA, add(CFA_XSP16, literal(-17)))
          CFI (cfiCond231) V0 load(1, XDATA, add(CFA_XSP16, literal(-16)))
          CFI (cfiCond231) V1 load(1, XDATA, add(CFA_XSP16, literal(-15)))
          CFI (cfiCond231) V2 load(1, XDATA, add(CFA_XSP16, literal(-14)))
          CFI (cfiCond231) V3 load(1, XDATA, add(CFA_XSP16, literal(-13)))
          CFI (cfiCond231) V4 load(1, XDATA, add(CFA_XSP16, literal(-12)))
          CFI (cfiCond231) V5 load(1, XDATA, add(CFA_XSP16, literal(-11)))
          CFI (cfiCond231) V6 load(1, XDATA, add(CFA_XSP16, literal(-10)))
          CFI (cfiCond231) V7 load(1, XDATA, add(CFA_XSP16, literal(-9)))
          CFI (cfiCond231) V8 load(1, XDATA, add(CFA_XSP16, literal(-8)))
          CFI (cfiCond231) V9 load(1, XDATA, add(CFA_XSP16, literal(-7)))
          CFI (cfiCond231) R7 load(1, XDATA, add(CFA_XSP16, literal(-6)))
          CFI (cfiCond231) ?RET_LOW load(1, XDATA, add(CFA_XSP16, literal(-5)))
          CFI (cfiCond231) ?RET_HIGH load(1, XDATA, add(CFA_XSP16, literal(-4)))
          CFI (cfiCond231) ?BRET_EXT load(1, XDATA, add(CFA_XSP16, literal(-3)))
          CFI (cfiCond231) DPL0 load(1, XDATA, add(CFA_XSP16, literal(-2)))
          CFI (cfiCond231) DPH0 load(1, XDATA, add(CFA_XSP16, literal(-1)))
          CFI (cfiCond231) CFA_SP SP+-2
          CFI (cfiCond231) CFA_XSP16 add(XSP16, 18)
          CFI Block cfiCond232 Using cfiCommon0
          CFI (cfiCond232) Function ZDO_JoinConfirmCB
          CFI (cfiCond232) Conditional ??CrossCallReturnLabel_86
          CFI (cfiCond232) R6 load(1, XDATA, add(CFA_XSP16, literal(-12)))
          CFI (cfiCond232) VB load(1, XDATA, add(CFA_XSP16, literal(-11)))
          CFI (cfiCond232) V0 load(1, XDATA, add(CFA_XSP16, literal(-10)))
          CFI (cfiCond232) V1 load(1, XDATA, add(CFA_XSP16, literal(-9)))
          CFI (cfiCond232) V2 load(1, XDATA, add(CFA_XSP16, literal(-8)))
          CFI (cfiCond232) V3 load(1, XDATA, add(CFA_XSP16, literal(-7)))
          CFI (cfiCond232) R7 load(1, XDATA, add(CFA_XSP16, literal(-6)))
          CFI (cfiCond232) ?RET_LOW load(1, XDATA, add(CFA_XSP16, literal(-5)))
          CFI (cfiCond232) ?RET_HIGH load(1, XDATA, add(CFA_XSP16, literal(-4)))
          CFI (cfiCond232) ?BRET_EXT load(1, XDATA, add(CFA_XSP16, literal(-3)))
          CFI (cfiCond232) DPL0 load(1, XDATA, add(CFA_XSP16, literal(-2)))
          CFI (cfiCond232) DPH0 load(1, XDATA, add(CFA_XSP16, literal(-1)))
          CFI (cfiCond232) CFA_SP SP+-2
          CFI (cfiCond232) CFA_XSP16 add(XSP16, 17)
          CFI Block cfiCond233 Using cfiCommon0
          CFI (cfiCond233) Function ZDO_JoinIndicationCB
          CFI (cfiCond233) Conditional ??CrossCallReturnLabel_87
          CFI (cfiCond233) R6 load(1, XDATA, add(CFA_XSP16, literal(-16)))
          CFI (cfiCond233) VB load(1, XDATA, add(CFA_XSP16, literal(-15)))
          CFI (cfiCond233) V0 load(1, XDATA, add(CFA_XSP16, literal(-14)))
          CFI (cfiCond233) V1 load(1, XDATA, add(CFA_XSP16, literal(-13)))
          CFI (cfiCond233) V2 load(1, XDATA, add(CFA_XSP16, literal(-12)))
          CFI (cfiCond233) V3 load(1, XDATA, add(CFA_XSP16, literal(-11)))
          CFI (cfiCond233) V4 load(1, XDATA, add(CFA_XSP16, literal(-10)))
          CFI (cfiCond233) V5 load(1, XDATA, add(CFA_XSP16, literal(-9)))
          CFI (cfiCond233) V6 load(1, XDATA, add(CFA_XSP16, literal(-8)))
          CFI (cfiCond233) V7 load(1, XDATA, add(CFA_XSP16, literal(-7)))
          CFI (cfiCond233) R7 load(1, XDATA, add(CFA_XSP16, literal(-6)))
          CFI (cfiCond233) ?RET_LOW load(1, XDATA, add(CFA_XSP16, literal(-5)))
          CFI (cfiCond233) ?RET_HIGH load(1, XDATA, add(CFA_XSP16, literal(-4)))
          CFI (cfiCond233) ?BRET_EXT load(1, XDATA, add(CFA_XSP16, literal(-3)))
          CFI (cfiCond233) DPL0 load(1, XDATA, add(CFA_XSP16, literal(-2)))
          CFI (cfiCond233) DPH0 load(1, XDATA, add(CFA_XSP16, literal(-1)))
          CFI (cfiCond233) CFA_SP SP+-2
          CFI (cfiCond233) CFA_XSP16 add(XSP16, 16)
          CFI Block cfiCond234 Using cfiCommon0
          CFI (cfiCond234) Function ZDO_JoinIndicationCB
          CFI (cfiCond234) Conditional ??CrossCallReturnLabel_88
          CFI (cfiCond234) R6 load(1, XDATA, add(CFA_XSP16, literal(-16)))
          CFI (cfiCond234) VB load(1, XDATA, add(CFA_XSP16, literal(-15)))
          CFI (cfiCond234) V0 load(1, XDATA, add(CFA_XSP16, literal(-14)))
          CFI (cfiCond234) V1 load(1, XDATA, add(CFA_XSP16, literal(-13)))
          CFI (cfiCond234) V2 load(1, XDATA, add(CFA_XSP16, literal(-12)))
          CFI (cfiCond234) V3 load(1, XDATA, add(CFA_XSP16, literal(-11)))
          CFI (cfiCond234) V4 load(1, XDATA, add(CFA_XSP16, literal(-10)))
          CFI (cfiCond234) V5 load(1, XDATA, add(CFA_XSP16, literal(-9)))
          CFI (cfiCond234) V6 load(1, XDATA, add(CFA_XSP16, literal(-8)))
          CFI (cfiCond234) V7 load(1, XDATA, add(CFA_XSP16, literal(-7)))
          CFI (cfiCond234) R7 load(1, XDATA, add(CFA_XSP16, literal(-6)))
          CFI (cfiCond234) ?RET_LOW load(1, XDATA, add(CFA_XSP16, literal(-5)))
          CFI (cfiCond234) ?RET_HIGH load(1, XDATA, add(CFA_XSP16, literal(-4)))
          CFI (cfiCond234) ?BRET_EXT load(1, XDATA, add(CFA_XSP16, literal(-3)))
          CFI (cfiCond234) DPL0 load(1, XDATA, add(CFA_XSP16, literal(-2)))
          CFI (cfiCond234) DPH0 load(1, XDATA, add(CFA_XSP16, literal(-1)))
          CFI (cfiCond234) CFA_SP SP+-2
          CFI (cfiCond234) CFA_XSP16 add(XSP16, 16)
          CFI Block cfiCond235 Using cfiCommon0
          CFI (cfiCond235) Function ZDO_SrcRtgIndCB
          CFI (cfiCond235) Conditional ??CrossCallReturnLabel_89
          CFI (cfiCond235) R6 load(1, XDATA, add(CFA_XSP16, literal(-9)))
          CFI (cfiCond235) VB load(1, XDATA, add(CFA_XSP16, literal(-8)))
          CFI (cfiCond235) V0 load(1, XDATA, add(CFA_XSP16, literal(-7)))
          CFI (cfiCond235) R7 load(1, XDATA, add(CFA_XSP16, literal(-6)))
          CFI (cfiCond235) ?RET_LOW load(1, XDATA, add(CFA_XSP16, literal(-5)))
          CFI (cfiCond235) ?RET_HIGH load(1, XDATA, add(CFA_XSP16, literal(-4)))
          CFI (cfiCond235) ?BRET_EXT load(1, XDATA, add(CFA_XSP16, literal(-3)))
          CFI (cfiCond235) DPL0 load(1, XDATA, add(CFA_XSP16, literal(-2)))
          CFI (cfiCond235) DPH0 load(1, XDATA, add(CFA_XSP16, literal(-1)))
          CFI (cfiCond235) CFA_SP SP+-2
          CFI (cfiCond235) CFA_XSP16 add(XSP16, 14)
          CFI Block cfiCond236 Using cfiCommon0
          CFI (cfiCond236) Function ZDApp_InitPendingBind
          CFI (cfiCond236) Conditional ??CrossCallReturnLabel_90
          CFI (cfiCond236) R6 load(1, XDATA, add(CFA_XSP16, literal(-9)))
          CFI (cfiCond236) VB load(1, XDATA, add(CFA_XSP16, literal(-8)))
          CFI (cfiCond236) V0 load(1, XDATA, add(CFA_XSP16, literal(-7)))
          CFI (cfiCond236) R7 load(1, XDATA, add(CFA_XSP16, literal(-6)))
          CFI (cfiCond236) ?RET_LOW load(1, XDATA, add(CFA_XSP16, literal(-5)))
          CFI (cfiCond236) ?RET_HIGH load(1, XDATA, add(CFA_XSP16, literal(-4)))
          CFI (cfiCond236) ?BRET_EXT load(1, XDATA, add(CFA_XSP16, literal(-3)))
          CFI (cfiCond236) DPL0 load(1, XDATA, add(CFA_XSP16, literal(-2)))
          CFI (cfiCond236) DPH0 load(1, XDATA, add(CFA_XSP16, literal(-1)))
          CFI (cfiCond236) CFA_SP SP+-2
          CFI (cfiCond236) CFA_XSP16 add(XSP16, 9)
          CFI Block cfiCond237 Using cfiCommon0
          CFI (cfiCond237) Function ZDApp_InitPendingBind
          CFI (cfiCond237) Conditional ??CrossCallReturnLabel_91
          CFI (cfiCond237) R6 load(1, XDATA, add(CFA_XSP16, literal(-9)))
          CFI (cfiCond237) VB load(1, XDATA, add(CFA_XSP16, literal(-8)))
          CFI (cfiCond237) V0 load(1, XDATA, add(CFA_XSP16, literal(-7)))
          CFI (cfiCond237) R7 load(1, XDATA, add(CFA_XSP16, literal(-6)))
          CFI (cfiCond237) ?RET_LOW load(1, XDATA, add(CFA_XSP16, literal(-5)))
          CFI (cfiCond237) ?RET_HIGH load(1, XDATA, add(CFA_XSP16, literal(-4)))
          CFI (cfiCond237) ?BRET_EXT load(1, XDATA, add(CFA_XSP16, literal(-3)))
          CFI (cfiCond237) DPL0 load(1, XDATA, add(CFA_XSP16, literal(-2)))
          CFI (cfiCond237) DPH0 load(1, XDATA, add(CFA_XSP16, literal(-1)))
          CFI (cfiCond237) CFA_SP SP+-2
          CFI (cfiCond237) CFA_XSP16 add(XSP16, 9)
          CFI Block cfiCond238 Using cfiCommon0
          CFI (cfiCond238) Function ZDApp_GetEmptyPendingBindReq
          CFI (cfiCond238) Conditional ??CrossCallReturnLabel_92
          CFI (cfiCond238) DPL0 Frame(CFA_SP, 4)
          CFI (cfiCond238) DPH0 Frame(CFA_SP, 5)
          CFI (cfiCond238) CFA_SP SP+-7
          CFI Block cfiCond239 Using cfiCommon0
          CFI (cfiCond239) Function ZDApp_ProcessPendingBindReq
          CFI (cfiCond239) Conditional ??CrossCallReturnLabel_93
          CFI (cfiCond239) R6 load(1, XDATA, add(CFA_XSP16, literal(-15)))
          CFI (cfiCond239) VB load(1, XDATA, add(CFA_XSP16, literal(-14)))
          CFI (cfiCond239) V0 load(1, XDATA, add(CFA_XSP16, literal(-13)))
          CFI (cfiCond239) V1 load(1, XDATA, add(CFA_XSP16, literal(-12)))
          CFI (cfiCond239) V2 load(1, XDATA, add(CFA_XSP16, literal(-11)))
          CFI (cfiCond239) V3 load(1, XDATA, add(CFA_XSP16, literal(-10)))
          CFI (cfiCond239) V4 load(1, XDATA, add(CFA_XSP16, literal(-9)))
          CFI (cfiCond239) V5 load(1, XDATA, add(CFA_XSP16, literal(-8)))
          CFI (cfiCond239) V6 load(1, XDATA, add(CFA_XSP16, literal(-7)))
          CFI (cfiCond239) R7 load(1, XDATA, add(CFA_XSP16, literal(-6)))
          CFI (cfiCond239) ?RET_LOW load(1, XDATA, add(CFA_XSP16, literal(-5)))
          CFI (cfiCond239) ?RET_HIGH load(1, XDATA, add(CFA_XSP16, literal(-4)))
          CFI (cfiCond239) ?BRET_EXT load(1, XDATA, add(CFA_XSP16, literal(-3)))
          CFI (cfiCond239) DPL0 load(1, XDATA, add(CFA_XSP16, literal(-2)))
          CFI (cfiCond239) DPH0 load(1, XDATA, add(CFA_XSP16, literal(-1)))
          CFI (cfiCond239) CFA_SP SP+-2
          CFI (cfiCond239) CFA_XSP16 add(XSP16, 16)
          CFI Block cfiCond240 Using cfiCommon0
          CFI (cfiCond240) Function ZDApp_AgeOutPendingBindEntry
          CFI (cfiCond240) Conditional ??CrossCallReturnLabel_94
          CFI (cfiCond240) R6 load(1, XDATA, add(CFA_XSP16, literal(-12)))
          CFI (cfiCond240) VB load(1, XDATA, add(CFA_XSP16, literal(-11)))
          CFI (cfiCond240) V0 load(1, XDATA, add(CFA_XSP16, literal(-10)))
          CFI (cfiCond240) V1 load(1, XDATA, add(CFA_XSP16, literal(-9)))
          CFI (cfiCond240) V2 load(1, XDATA, add(CFA_XSP16, literal(-8)))
          CFI (cfiCond240) V3 load(1, XDATA, add(CFA_XSP16, literal(-7)))
          CFI (cfiCond240) R7 load(1, XDATA, add(CFA_XSP16, literal(-6)))
          CFI (cfiCond240) ?RET_LOW load(1, XDATA, add(CFA_XSP16, literal(-5)))
          CFI (cfiCond240) ?RET_HIGH load(1, XDATA, add(CFA_XSP16, literal(-4)))
          CFI (cfiCond240) ?BRET_EXT load(1, XDATA, add(CFA_XSP16, literal(-3)))
          CFI (cfiCond240) DPL0 load(1, XDATA, add(CFA_XSP16, literal(-2)))
          CFI (cfiCond240) DPH0 load(1, XDATA, add(CFA_XSP16, literal(-1)))
          CFI (cfiCond240) CFA_SP SP+-2
          CFI (cfiCond240) CFA_XSP16 add(XSP16, 26)
          CFI Block cfiPicker241 Using cfiCommon1
          CFI (cfiPicker241) NoFunction
          CFI (cfiPicker241) Picker
        LCALL   ?Subroutine36 & 0xFFFF
??CrossCallReturnLabel_98:
        MOV     A,R0
        ORL     A,R1
        RET
          CFI (cfiCond229) CFA_SP SP+0
          CFI (cfiCond230) CFA_SP SP+0
          CFI (cfiCond231) CFA_SP SP+0
          CFI (cfiCond232) CFA_SP SP+0
          CFI (cfiCond233) CFA_SP SP+0
          CFI (cfiCond234) CFA_SP SP+0
          CFI (cfiCond235) CFA_SP SP+0
          CFI (cfiCond236) CFA_SP SP+0
          CFI (cfiCond237) CFA_SP SP+0
          CFI (cfiCond238) CFA_SP SP+-5
          CFI (cfiCond239) CFA_SP SP+0
          CFI (cfiCond240) CFA_SP SP+0
          CFI (cfiPicker241) CFA_SP SP+0
          CFI EndBlock cfiCond229
          CFI EndBlock cfiCond230
          CFI EndBlock cfiCond231
          CFI EndBlock cfiCond232
          CFI EndBlock cfiCond233
          CFI EndBlock cfiCond234
          CFI EndBlock cfiCond235
          CFI EndBlock cfiCond236
          CFI EndBlock cfiCond237
          CFI EndBlock cfiCond238
          CFI EndBlock cfiCond239
          CFI EndBlock cfiCond240
          CFI EndBlock cfiPicker241
// 3481 
// 3482 /*********************************************************************
// 3483  * @fn          ZDApp_InitZdoCBFunc
// 3484  *
// 3485  * @brief       Call this function to initialize zdoCBFunc[]
// 3486  *
// 3487  * @param       none
// 3488  *
// 3489  * @return      none
// 3490  */

        RSEG BANKED_CODE:CODE:NOROOT(0)
// 3491 void ZDApp_InitZdoCBFunc( void )
ZDApp_InitZdoCBFunc:
          CFI Block cfiBlock242 Using cfiCommon0
          CFI Function ZDApp_InitZdoCBFunc
        CODE
// 3492 {
        PUSH    DPL
          CFI DPL0 Frame(CFA_SP, 4)
          CFI CFA_SP SP+-4
        PUSH    DPH
          CFI DPH0 Frame(CFA_SP, 5)
          CFI CFA_SP SP+-5
        ; Saved register size: 2
        ; Auto size: 0
// 3493   uint8 i;
// 3494 
// 3495   for ( i=0; i< MAX_ZDO_CB_FUNC; i++ )
        MOV     R2,#0x0
// 3496   {
// 3497     zdoCBFunc[i] = NULL;
??ZDApp_InitZdoCBFunc_0:
        MOV     A,R2
        ADD     A,0xE0 /* A   */
        LCALL   ?Subroutine28 & 0xFFFF
// 3498   }
??CrossCallReturnLabel_31:
        INC     R2
        MOV     A,R2
        CLR     C
        SUBB    A,#0x9
        JC      ??ZDApp_InitZdoCBFunc_0
// 3499 }
        LJMP    ??Subroutine40_0 & 0xFFFF
          CFI EndBlock cfiBlock242
// 3500 
// 3501 /*********************************************************************
// 3502  * @fn          ZDO_RegisterForZdoCB
// 3503  *
// 3504  * @brief       Call this function to register the higher layer (for
// 3505  *              example, the Application layer or MT layer) with ZDO
// 3506  *              callbacks to get notified of some ZDO indication like
// 3507  *              existence of a concentrator or receipt of a source
// 3508  *              route record.
// 3509  *
// 3510  * @param       indID - ZDO Indication ID
// 3511  * @param       pFn   - Callback function pointer
// 3512  *
// 3513  * @return      ZSuccess - successful, ZInvalidParameter if not
// 3514  */

        RSEG BANKED_CODE:CODE:NOROOT(0)
// 3515 ZStatus_t ZDO_RegisterForZdoCB( uint8 indID, pfnZdoCb pFn )
ZDO_RegisterForZdoCB:
          CFI Block cfiBlock243 Using cfiCommon0
          CFI Function ZDO_RegisterForZdoCB
        CODE
// 3516 {
        PUSH    DPL
          CFI DPL0 Frame(CFA_SP, 4)
          CFI CFA_SP SP+-4
        PUSH    DPH
          CFI DPH0 Frame(CFA_SP, 5)
          CFI CFA_SP SP+-5
        ; Saved register size: 2
        ; Auto size: 0
        MOV     A,R1
        MOV     R4,A
// 3517   // Check the range of the indication ID
// 3518   if ( indID < MAX_ZDO_CB_FUNC )
        CLR     C
        SUBB    A,#0x9
        JNC     ??ZDO_RegisterForZdoCB_0
// 3519   {
// 3520     zdoCBFunc[indID] = pFn;
        MOV     A,R4
        ADD     A,R1
        LCALL   ?Subroutine38 & 0xFFFF
??CrossCallReturnLabel_50:
        LCALL   ??Subroutine52_0 & 0xFFFF
// 3521     return ZSuccess;
??CrossCallReturnLabel_102:
        MOV     R1,#0x0
        SJMP    ??ZDO_RegisterForZdoCB_1
// 3522   }
// 3523 
// 3524   return ZInvalidParameter;
??ZDO_RegisterForZdoCB_0:
        MOV     R1,#0x2
??ZDO_RegisterForZdoCB_1:
        LJMP    ??Subroutine40_0 & 0xFFFF
// 3525 }
          CFI EndBlock cfiBlock243
// 3526 
// 3527 /*********************************************************************
// 3528  * @fn          ZDO_DeregisterForZdoCB
// 3529  *
// 3530  * @brief       Call this function to de-register the higher layer (for
// 3531  *              example, the Application layer or MT layer) with ZDO
// 3532  *              callbacks to get notified of some ZDO indication like
// 3533  *              existence of a concentrator or receipt of a source
// 3534  *              route record.
// 3535  *
// 3536  * @param       indID - ZDO Indication ID
// 3537  *
// 3538  * @return      ZSuccess - successful, ZInvalidParameter if not
// 3539  */

        RSEG BANKED_CODE:CODE:NOROOT(0)
// 3540 ZStatus_t ZDO_DeregisterForZdoCB( uint8 indID )
ZDO_DeregisterForZdoCB:
          CFI Block cfiBlock244 Using cfiCommon0
          CFI Function ZDO_DeregisterForZdoCB
        CODE
// 3541 {
        PUSH    DPL
          CFI DPL0 Frame(CFA_SP, 4)
          CFI CFA_SP SP+-4
        PUSH    DPH
          CFI DPH0 Frame(CFA_SP, 5)
          CFI CFA_SP SP+-5
        ; Saved register size: 2
        ; Auto size: 0
        MOV     A,R1
        MOV     R2,A
// 3542   // Check the range of the indication ID
// 3543   if ( indID < MAX_ZDO_CB_FUNC )
        CLR     C
        SUBB    A,#0x9
        JNC     ??ZDO_DeregisterForZdoCB_0
// 3544   {
// 3545     zdoCBFunc[indID] = NULL;
        MOV     A,R2
        ADD     A,R1
        LCALL   ?Subroutine28 & 0xFFFF
// 3546     return ZSuccess;
??CrossCallReturnLabel_32:
        MOV     R1,A
        SJMP    ??ZDO_DeregisterForZdoCB_1
// 3547   }
// 3548 
// 3549   return ZInvalidParameter;
??ZDO_DeregisterForZdoCB_0:
        MOV     R1,#0x2
??ZDO_DeregisterForZdoCB_1:
        LJMP    ??Subroutine40_0 & 0xFFFF
// 3550 }
          CFI EndBlock cfiBlock244

        RSEG BANKED_CODE:CODE:NOROOT(0)
?Subroutine28:
          CFI Block cfiCond245 Using cfiCommon0
          CFI Function ZDApp_InitZdoCBFunc
          CFI Conditional ??CrossCallReturnLabel_31
          CFI DPL0 Frame(CFA_SP, 4)
          CFI DPH0 Frame(CFA_SP, 5)
          CFI CFA_SP SP+-7
          CFI Block cfiCond246 Using cfiCommon0
          CFI (cfiCond246) Function ZDO_DeregisterForZdoCB
          CFI (cfiCond246) Conditional ??CrossCallReturnLabel_32
          CFI (cfiCond246) DPL0 Frame(CFA_SP, 4)
          CFI (cfiCond246) DPH0 Frame(CFA_SP, 5)
          CFI (cfiCond246) CFA_SP SP+-7
          CFI Block cfiPicker247 Using cfiCommon1
          CFI (cfiPicker247) NoFunction
          CFI (cfiPicker247) Picker
        LCALL   ?Subroutine38 & 0xFFFF
??CrossCallReturnLabel_51:
        CLR     A
        MOVX    @DPTR,A
        INC     DPTR
        MOVX    @DPTR,A
        RET
          CFI (cfiCond245) CFA_SP SP+-5
          CFI (cfiCond246) CFA_SP SP+-5
          CFI (cfiPicker247) CFA_SP SP+0
          CFI EndBlock cfiCond245
          CFI EndBlock cfiCond246
          CFI EndBlock cfiPicker247

        RSEG BANKED_CODE:CODE:NOROOT(0)
?Subroutine38:
          CFI Block cfiCond248 Using cfiCommon0
          CFI Function ZDO_RegisterForZdoCB
          CFI Conditional ??CrossCallReturnLabel_50
          CFI DPL0 Frame(CFA_SP, 4)
          CFI DPH0 Frame(CFA_SP, 5)
          CFI CFA_SP SP+-7
          CFI Block cfiCond249 Using cfiCommon0
          CFI (cfiCond249) Function ZDApp_InitZdoCBFunc
          CFI (cfiCond249) Conditional ??CrossCallReturnLabel_51, ??CrossCallReturnLabel_31
          CFI (cfiCond249) DPL0 Frame(CFA_SP, 4)
          CFI (cfiCond249) DPH0 Frame(CFA_SP, 5)
          CFI (cfiCond249) CFA_SP SP+-9
          CFI Block cfiCond250 Using cfiCommon0
          CFI (cfiCond250) Function ZDO_DeregisterForZdoCB
          CFI (cfiCond250) Conditional ??CrossCallReturnLabel_51, ??CrossCallReturnLabel_32
          CFI (cfiCond250) DPL0 Frame(CFA_SP, 4)
          CFI (cfiCond250) DPH0 Frame(CFA_SP, 5)
          CFI (cfiCond250) CFA_SP SP+-9
          CFI Block cfiPicker251 Using cfiCommon1
          CFI (cfiPicker251) NoFunction
          CFI (cfiPicker251) Picker
        MOV     R0,A
        CLR     A
        RLC     A
        MOV     R1,A
        MOV     A,#zdoCBFunc & 0xff
        ADD     A,R0
        MOV     DPL,A
        MOV     A,#(zdoCBFunc >> 8) & 0xff
        ADDC    A,R1
        MOV     DPH,A
        RET
          CFI (cfiCond248) CFA_SP SP+-5
          CFI (cfiCond249) CFA_SP SP+-7
          CFI (cfiCond250) CFA_SP SP+-7
          CFI (cfiPicker251) CFA_SP SP+0
          CFI EndBlock cfiCond248
          CFI EndBlock cfiCond249
          CFI EndBlock cfiCond250
          CFI EndBlock cfiPicker251
// 3551 
// 3552 #if !defined ( ZDP_BIND_SKIP_VALIDATION )
// 3553 #if defined ( REFLECTOR )
// 3554 /*********************************************************************
// 3555  * @fn          ZDApp_SetPendingBindDefault
// 3556  *
// 3557  * @brief       This function initializes a specific entry of pending
// 3558  *              Bind Request.
// 3559  *
// 3560  * @param       pendBindReq - pointer to the entry in the table
// 3561  *
// 3562  * @return      none
// 3563  */

        RSEG BANKED_CODE:CODE:NOROOT(0)
// 3564 void ZDApp_SetPendingBindDefault( ZDO_PendingBindReq_t *pendBindReq )
ZDApp_SetPendingBindDefault:
          CFI Block cfiBlock252 Using cfiCommon0
          CFI Function ZDApp_SetPendingBindDefault
        CODE
// 3565 {
        FUNCALL ZDApp_SetPendingBindDefault, osal_memset
        LOCFRAME ISTACK, 0, STACK
        LOCFRAME PSTACK, 0, STACK
        LOCFRAME XSTACK, 9, STACK
        LOCFRAME IOVERLAY, 0, STATIC
        LOCFRAME DOVERLAY, 0, STATIC
        ARGFRAME ISTACK, 0, STACK
        ARGFRAME PSTACK, 0, STACK
        ARGFRAME XSTACK, 9, STACK
        ARGFRAME IOVERLAY, 0, STATIC
        ARGFRAME DOVERLAY, 0, STATIC
        MOV     A,#-0x9
        LCALL   ?BANKED_ENTER_XDATA
          CFI DPH0 load(1, XDATA, add(CFA_XSP16, literal(-1)))
          CFI DPL0 load(1, XDATA, add(CFA_XSP16, literal(-2)))
          CFI ?BRET_EXT load(1, XDATA, add(CFA_XSP16, literal(-3)))
          CFI ?RET_HIGH load(1, XDATA, add(CFA_XSP16, literal(-4)))
          CFI ?RET_LOW load(1, XDATA, add(CFA_XSP16, literal(-5)))
          CFI R7 load(1, XDATA, add(CFA_XSP16, literal(-6)))
          CFI V0 load(1, XDATA, add(CFA_XSP16, literal(-7)))
          CFI VB load(1, XDATA, add(CFA_XSP16, literal(-8)))
          CFI R6 load(1, XDATA, add(CFA_XSP16, literal(-9)))
          CFI CFA_SP SP+0
          CFI CFA_XSP16 add(XSP16, 9)
        ; Saved register size: 9
        ; Auto size: 0
        MOV     A,R2
        MOV     R6,A
        MOV     A,R3
        MOV     R7,A
// 3566   // Set it to an initial value
// 3567   osal_memset( pendBindReq, 0xFF, sizeof( ZDO_PendingBindReq_t ) );
        ; Setup parameters for call to function osal_memset
        MOV     R4,#0x21
        MOV     R5,#0x0
        MOV     R1,#-0x1
        LCALL   `??osal_memset::?relay`; Banked call to: osal_memset
// 3568 
// 3569   // We are checking for age 0 for aged-out records
// 3570   pendBindReq->age = 0;
        MOV     A,R6
        ADD     A,#0x20
        MOV     DPL,A
        CLR     A
        ADDC    A,R7
        MOV     DPH,A
        CLR     A
        MOVX    @DPTR,A
// 3571 }
        LJMP    ??Subroutine46_0 & 0xFFFF
          CFI EndBlock cfiBlock252
// 3572 
// 3573 /*********************************************************************
// 3574  * @fn          ZDApp_InitPendingBind
// 3575  *
// 3576  * @brief       This function initializes the buffer that holds
// 3577  *              pending Bind Request messages if no valid NWK address
// 3578  *              exists in Address Manager and a Network Address Req
// 3579  *              has been sent out.
// 3580  *
// 3581  * @param       none
// 3582  *
// 3583  * @return      none
// 3584  */

        RSEG BANKED_CODE:CODE:NOROOT(0)
// 3585 void ZDApp_InitPendingBind( void )
ZDApp_InitPendingBind:
          CFI Block cfiBlock253 Using cfiCommon0
          CFI Function ZDApp_InitPendingBind
        CODE
// 3586 {
        FUNCALL ZDApp_InitPendingBind, osal_mem_alloc
        LOCFRAME ISTACK, 0, STACK
        LOCFRAME PSTACK, 0, STACK
        LOCFRAME XSTACK, 9, STACK
        LOCFRAME IOVERLAY, 0, STATIC
        LOCFRAME DOVERLAY, 0, STATIC
        ARGFRAME ISTACK, 0, STACK
        ARGFRAME PSTACK, 0, STACK
        ARGFRAME XSTACK, 9, STACK
        ARGFRAME IOVERLAY, 0, STATIC
        ARGFRAME DOVERLAY, 0, STATIC
        FUNCALL ZDApp_InitPendingBind, ZDApp_SetPendingBindDefault
        LOCFRAME ISTACK, 0, STACK
        LOCFRAME PSTACK, 0, STACK
        LOCFRAME XSTACK, 9, STACK
        LOCFRAME IOVERLAY, 0, STATIC
        LOCFRAME DOVERLAY, 0, STATIC
        ARGFRAME ISTACK, 0, STACK
        ARGFRAME PSTACK, 0, STACK
        ARGFRAME XSTACK, 9, STACK
        ARGFRAME IOVERLAY, 0, STATIC
        ARGFRAME DOVERLAY, 0, STATIC
        MOV     A,#-0x9
        LCALL   ?BANKED_ENTER_XDATA
          CFI DPH0 load(1, XDATA, add(CFA_XSP16, literal(-1)))
          CFI DPL0 load(1, XDATA, add(CFA_XSP16, literal(-2)))
          CFI ?BRET_EXT load(1, XDATA, add(CFA_XSP16, literal(-3)))
          CFI ?RET_HIGH load(1, XDATA, add(CFA_XSP16, literal(-4)))
          CFI ?RET_LOW load(1, XDATA, add(CFA_XSP16, literal(-5)))
          CFI R7 load(1, XDATA, add(CFA_XSP16, literal(-6)))
          CFI V0 load(1, XDATA, add(CFA_XSP16, literal(-7)))
          CFI VB load(1, XDATA, add(CFA_XSP16, literal(-8)))
          CFI R6 load(1, XDATA, add(CFA_XSP16, literal(-9)))
          CFI CFA_SP SP+0
          CFI CFA_XSP16 add(XSP16, 9)
        ; Saved register size: 9
        ; Auto size: 0
// 3587   if ( ZDAppPendingBindReq == NULL )
        LCALL   ?Subroutine19 & 0xFFFF
??CrossCallReturnLabel_90:
        JNZ     ??ZDApp_InitPendingBind_0
// 3588   {
// 3589     if ( ( ZDAppPendingBindReq = osal_mem_alloc( sizeof(ZDO_PendingBindReq_t) * MAX_PENDING_BIND_REQ ) ) != NULL )
        ; Setup parameters for call to function osal_mem_alloc
        MOV     R2,#0x63
        MOV     R3,#0x0
        LCALL   `??osal_mem_alloc::?relay`; Banked call to: osal_mem_alloc
        MOV     DPTR,#ZDAppPendingBindReq
        LCALL   ??Subroutine52_0 & 0xFFFF
??CrossCallReturnLabel_103:
        LCALL   ?Subroutine19 & 0xFFFF
??CrossCallReturnLabel_91:
        JZ      ??ZDApp_InitPendingBind_0
// 3590     {
// 3591       uint8 i;
// 3592 
// 3593       for ( i = 0; i < MAX_PENDING_BIND_REQ; i++ )
        MOV     R6,#0x0
// 3594       {
// 3595         // Set to default values
// 3596         ZDApp_SetPendingBindDefault( &ZDAppPendingBindReq[i] );
??ZDApp_InitPendingBind_1:
        ; Setup parameters for call to function ZDApp_SetPendingBindDefault
        MOV     A,R6
        MOV     B,#0x21
        MUL     AB
        MOV     R0,A
        MOV     R1,B
        MOV     DPTR,#ZDAppPendingBindReq
        MOVX    A,@DPTR
        ADD     A,R0
        MOV     R2,A
        INC     DPTR
        MOVX    A,@DPTR
        ADDC    A,R1
        MOV     R3,A
        LCALL   `??ZDApp_SetPendingBindDefault::?relay`; Banked call to: ZDApp_SetPendingBindDefault
// 3597       }
        INC     R6
        MOV     A,R6
        CLR     C
        SUBB    A,#0x3
        JC      ??ZDApp_InitPendingBind_1
// 3598     }
// 3599   }
// 3600 }
??ZDApp_InitPendingBind_0:
        LJMP    ??Subroutine46_0 & 0xFFFF
          CFI EndBlock cfiBlock253

        RSEG BANKED_CODE:CODE:NOROOT(0)
?Subroutine12:
          CFI Block cfiCond254 Using cfiCommon0
          CFI Function ZDO_ConcentratorIndicationCB
          CFI Conditional ??CrossCallReturnLabel_104
          CFI R6 load(1, XDATA, add(CFA_XSP16, literal(-9)))
          CFI VB load(1, XDATA, add(CFA_XSP16, literal(-8)))
          CFI V0 load(1, XDATA, add(CFA_XSP16, literal(-7)))
          CFI R7 load(1, XDATA, add(CFA_XSP16, literal(-6)))
          CFI ?RET_LOW load(1, XDATA, add(CFA_XSP16, literal(-5)))
          CFI ?RET_HIGH load(1, XDATA, add(CFA_XSP16, literal(-4)))
          CFI ?BRET_EXT load(1, XDATA, add(CFA_XSP16, literal(-3)))
          CFI DPL0 load(1, XDATA, add(CFA_XSP16, literal(-2)))
          CFI DPH0 load(1, XDATA, add(CFA_XSP16, literal(-1)))
          CFI CFA_SP SP+-2
          CFI CFA_XSP16 add(XSP16, 14)
          CFI Block cfiCond255 Using cfiCommon0
          CFI (cfiCond255) Function ZDO_SrcRtgIndCB
          CFI (cfiCond255) Conditional ??CrossCallReturnLabel_105
          CFI (cfiCond255) R6 load(1, XDATA, add(CFA_XSP16, literal(-9)))
          CFI (cfiCond255) VB load(1, XDATA, add(CFA_XSP16, literal(-8)))
          CFI (cfiCond255) V0 load(1, XDATA, add(CFA_XSP16, literal(-7)))
          CFI (cfiCond255) R7 load(1, XDATA, add(CFA_XSP16, literal(-6)))
          CFI (cfiCond255) ?RET_LOW load(1, XDATA, add(CFA_XSP16, literal(-5)))
          CFI (cfiCond255) ?RET_HIGH load(1, XDATA, add(CFA_XSP16, literal(-4)))
          CFI (cfiCond255) ?BRET_EXT load(1, XDATA, add(CFA_XSP16, literal(-3)))
          CFI (cfiCond255) DPL0 load(1, XDATA, add(CFA_XSP16, literal(-2)))
          CFI (cfiCond255) DPH0 load(1, XDATA, add(CFA_XSP16, literal(-1)))
          CFI (cfiCond255) CFA_SP SP+-2
          CFI (cfiCond255) CFA_XSP16 add(XSP16, 14)
          CFI Block cfiPicker256 Using cfiCommon1
          CFI (cfiPicker256) NoFunction
          CFI (cfiPicker256) Picker
        MOV     DPL,?XSP + 0
        MOV     DPH,?XSP + 1
          CFI EndBlock cfiCond254
          CFI EndBlock cfiCond255
          CFI EndBlock cfiPicker256
        REQUIRE ??Subroutine52_0
        ; // Fall through to label ??Subroutine52_0

        RSEG BANKED_CODE:CODE:NOROOT(0)
??Subroutine52_0:
          CFI Block cfiCond257 Using cfiCommon0
          CFI Function ZDO_beaconNotifyIndCB
          CFI Conditional ??CrossCallReturnLabel_99
          CFI R6 load(1, XDATA, add(CFA_XSP16, literal(-18)))
          CFI VB load(1, XDATA, add(CFA_XSP16, literal(-17)))
          CFI V0 load(1, XDATA, add(CFA_XSP16, literal(-16)))
          CFI V1 load(1, XDATA, add(CFA_XSP16, literal(-15)))
          CFI V2 load(1, XDATA, add(CFA_XSP16, literal(-14)))
          CFI V3 load(1, XDATA, add(CFA_XSP16, literal(-13)))
          CFI V4 load(1, XDATA, add(CFA_XSP16, literal(-12)))
          CFI V5 load(1, XDATA, add(CFA_XSP16, literal(-11)))
          CFI V6 load(1, XDATA, add(CFA_XSP16, literal(-10)))
          CFI V7 load(1, XDATA, add(CFA_XSP16, literal(-9)))
          CFI V8 load(1, XDATA, add(CFA_XSP16, literal(-8)))
          CFI V9 load(1, XDATA, add(CFA_XSP16, literal(-7)))
          CFI R7 load(1, XDATA, add(CFA_XSP16, literal(-6)))
          CFI ?RET_LOW load(1, XDATA, add(CFA_XSP16, literal(-5)))
          CFI ?RET_HIGH load(1, XDATA, add(CFA_XSP16, literal(-4)))
          CFI ?BRET_EXT load(1, XDATA, add(CFA_XSP16, literal(-3)))
          CFI DPL0 load(1, XDATA, add(CFA_XSP16, literal(-2)))
          CFI DPH0 load(1, XDATA, add(CFA_XSP16, literal(-1)))
          CFI CFA_SP SP+-2
          CFI CFA_XSP16 add(XSP16, 18)
          CFI Block cfiCond258 Using cfiCommon0
          CFI (cfiCond258) Function ZDO_JoinConfirmCB
          CFI (cfiCond258) Conditional ??CrossCallReturnLabel_100
          CFI (cfiCond258) R6 load(1, XDATA, add(CFA_XSP16, literal(-12)))
          CFI (cfiCond258) VB load(1, XDATA, add(CFA_XSP16, literal(-11)))
          CFI (cfiCond258) V0 load(1, XDATA, add(CFA_XSP16, literal(-10)))
          CFI (cfiCond258) V1 load(1, XDATA, add(CFA_XSP16, literal(-9)))
          CFI (cfiCond258) V2 load(1, XDATA, add(CFA_XSP16, literal(-8)))
          CFI (cfiCond258) V3 load(1, XDATA, add(CFA_XSP16, literal(-7)))
          CFI (cfiCond258) R7 load(1, XDATA, add(CFA_XSP16, literal(-6)))
          CFI (cfiCond258) ?RET_LOW load(1, XDATA, add(CFA_XSP16, literal(-5)))
          CFI (cfiCond258) ?RET_HIGH load(1, XDATA, add(CFA_XSP16, literal(-4)))
          CFI (cfiCond258) ?BRET_EXT load(1, XDATA, add(CFA_XSP16, literal(-3)))
          CFI (cfiCond258) DPL0 load(1, XDATA, add(CFA_XSP16, literal(-2)))
          CFI (cfiCond258) DPH0 load(1, XDATA, add(CFA_XSP16, literal(-1)))
          CFI (cfiCond258) CFA_SP SP+-2
          CFI (cfiCond258) CFA_XSP16 add(XSP16, 17)
          CFI Block cfiCond259 Using cfiCommon0
          CFI (cfiCond259) Function ZDO_JoinConfirmCB
          CFI (cfiCond259) Conditional ??CrossCallReturnLabel_101
          CFI (cfiCond259) R6 load(1, XDATA, add(CFA_XSP16, literal(-12)))
          CFI (cfiCond259) VB load(1, XDATA, add(CFA_XSP16, literal(-11)))
          CFI (cfiCond259) V0 load(1, XDATA, add(CFA_XSP16, literal(-10)))
          CFI (cfiCond259) V1 load(1, XDATA, add(CFA_XSP16, literal(-9)))
          CFI (cfiCond259) V2 load(1, XDATA, add(CFA_XSP16, literal(-8)))
          CFI (cfiCond259) V3 load(1, XDATA, add(CFA_XSP16, literal(-7)))
          CFI (cfiCond259) R7 load(1, XDATA, add(CFA_XSP16, literal(-6)))
          CFI (cfiCond259) ?RET_LOW load(1, XDATA, add(CFA_XSP16, literal(-5)))
          CFI (cfiCond259) ?RET_HIGH load(1, XDATA, add(CFA_XSP16, literal(-4)))
          CFI (cfiCond259) ?BRET_EXT load(1, XDATA, add(CFA_XSP16, literal(-3)))
          CFI (cfiCond259) DPL0 load(1, XDATA, add(CFA_XSP16, literal(-2)))
          CFI (cfiCond259) DPH0 load(1, XDATA, add(CFA_XSP16, literal(-1)))
          CFI (cfiCond259) CFA_SP SP+-2
          CFI (cfiCond259) CFA_XSP16 add(XSP16, 17)
          CFI Block cfiCond260 Using cfiCommon0
          CFI (cfiCond260) Function ZDO_RegisterForZdoCB
          CFI (cfiCond260) Conditional ??CrossCallReturnLabel_102
          CFI (cfiCond260) DPL0 Frame(CFA_SP, 4)
          CFI (cfiCond260) DPH0 Frame(CFA_SP, 5)
          CFI (cfiCond260) CFA_SP SP+-7
          CFI Block cfiCond261 Using cfiCommon0
          CFI (cfiCond261) Function ZDApp_InitPendingBind
          CFI (cfiCond261) Conditional ??CrossCallReturnLabel_103
          CFI (cfiCond261) R6 load(1, XDATA, add(CFA_XSP16, literal(-9)))
          CFI (cfiCond261) VB load(1, XDATA, add(CFA_XSP16, literal(-8)))
          CFI (cfiCond261) V0 load(1, XDATA, add(CFA_XSP16, literal(-7)))
          CFI (cfiCond261) R7 load(1, XDATA, add(CFA_XSP16, literal(-6)))
          CFI (cfiCond261) ?RET_LOW load(1, XDATA, add(CFA_XSP16, literal(-5)))
          CFI (cfiCond261) ?RET_HIGH load(1, XDATA, add(CFA_XSP16, literal(-4)))
          CFI (cfiCond261) ?BRET_EXT load(1, XDATA, add(CFA_XSP16, literal(-3)))
          CFI (cfiCond261) DPL0 load(1, XDATA, add(CFA_XSP16, literal(-2)))
          CFI (cfiCond261) DPH0 load(1, XDATA, add(CFA_XSP16, literal(-1)))
          CFI (cfiCond261) CFA_SP SP+-2
          CFI (cfiCond261) CFA_XSP16 add(XSP16, 9)
          CFI Block cfiCond262 Using cfiCommon0
          CFI (cfiCond262) Function ZDO_ConcentratorIndicationCB
          CFI (cfiCond262) Conditional ??CrossCallReturnLabel_104
          CFI (cfiCond262) R6 load(1, XDATA, add(CFA_XSP16, literal(-9)))
          CFI (cfiCond262) VB load(1, XDATA, add(CFA_XSP16, literal(-8)))
          CFI (cfiCond262) V0 load(1, XDATA, add(CFA_XSP16, literal(-7)))
          CFI (cfiCond262) R7 load(1, XDATA, add(CFA_XSP16, literal(-6)))
          CFI (cfiCond262) ?RET_LOW load(1, XDATA, add(CFA_XSP16, literal(-5)))
          CFI (cfiCond262) ?RET_HIGH load(1, XDATA, add(CFA_XSP16, literal(-4)))
          CFI (cfiCond262) ?BRET_EXT load(1, XDATA, add(CFA_XSP16, literal(-3)))
          CFI (cfiCond262) DPL0 load(1, XDATA, add(CFA_XSP16, literal(-2)))
          CFI (cfiCond262) DPH0 load(1, XDATA, add(CFA_XSP16, literal(-1)))
          CFI (cfiCond262) CFA_SP SP+-2
          CFI (cfiCond262) CFA_XSP16 add(XSP16, 14)
          CFI Block cfiCond263 Using cfiCommon0
          CFI (cfiCond263) Function ZDO_SrcRtgIndCB
          CFI (cfiCond263) Conditional ??CrossCallReturnLabel_105
          CFI (cfiCond263) R6 load(1, XDATA, add(CFA_XSP16, literal(-9)))
          CFI (cfiCond263) VB load(1, XDATA, add(CFA_XSP16, literal(-8)))
          CFI (cfiCond263) V0 load(1, XDATA, add(CFA_XSP16, literal(-7)))
          CFI (cfiCond263) R7 load(1, XDATA, add(CFA_XSP16, literal(-6)))
          CFI (cfiCond263) ?RET_LOW load(1, XDATA, add(CFA_XSP16, literal(-5)))
          CFI (cfiCond263) ?RET_HIGH load(1, XDATA, add(CFA_XSP16, literal(-4)))
          CFI (cfiCond263) ?BRET_EXT load(1, XDATA, add(CFA_XSP16, literal(-3)))
          CFI (cfiCond263) DPL0 load(1, XDATA, add(CFA_XSP16, literal(-2)))
          CFI (cfiCond263) DPH0 load(1, XDATA, add(CFA_XSP16, literal(-1)))
          CFI (cfiCond263) CFA_SP SP+-2
          CFI (cfiCond263) CFA_XSP16 add(XSP16, 14)
          CFI Block cfiPicker264 Using cfiCommon1
          CFI (cfiPicker264) NoFunction
          CFI (cfiPicker264) Picker
        MOV     A,R2
        MOVX    @DPTR,A
        INC     DPTR
        MOV     A,R3
        MOVX    @DPTR,A
        RET
          CFI (cfiCond257) CFA_SP SP+0
          CFI (cfiCond258) CFA_SP SP+0
          CFI (cfiCond259) CFA_SP SP+0
          CFI (cfiCond260) CFA_SP SP+-5
          CFI (cfiCond261) CFA_SP SP+0
          CFI (cfiCond262) CFA_SP SP+0
          CFI (cfiCond263) CFA_SP SP+0
          CFI (cfiPicker264) CFA_SP SP+0
          CFI EndBlock cfiCond257
          CFI EndBlock cfiCond258
          CFI EndBlock cfiCond259
          CFI EndBlock cfiCond260
          CFI EndBlock cfiCond261
          CFI EndBlock cfiCond262
          CFI EndBlock cfiCond263
          CFI EndBlock cfiPicker264
// 3601 
// 3602 /*********************************************************************
// 3603  * @fn          ZDApp_GetEmptyPendingBindReq
// 3604  *
// 3605  * @brief       This function looks for an empty entry.
// 3606  *
// 3607  * @param       none
// 3608  *
// 3609  * @return      Pointer to entry
// 3610  */

        RSEG BANKED_CODE:CODE:NOROOT(0)
// 3611 ZDO_PendingBindReq_t *ZDApp_GetEmptyPendingBindReq( void )
ZDApp_GetEmptyPendingBindReq:
          CFI Block cfiBlock265 Using cfiCommon0
          CFI Function ZDApp_GetEmptyPendingBindReq
        CODE
// 3612 {
        PUSH    DPL
          CFI DPL0 Frame(CFA_SP, 4)
          CFI CFA_SP SP+-4
        PUSH    DPH
          CFI DPH0 Frame(CFA_SP, 5)
          CFI CFA_SP SP+-5
        ; Saved register size: 2
        ; Auto size: 0
// 3613   uint8 i;
// 3614 
// 3615   if ( ZDAppPendingBindReq != NULL )
        LCALL   ?Subroutine19 & 0xFFFF
??CrossCallReturnLabel_92:
        JZ      ??ZDApp_GetEmptyPendingBindReq_0
// 3616   {
// 3617     for ( i = 0; i < MAX_PENDING_BIND_REQ; i++ )
        MOV     R4,#0x0
// 3618     {
// 3619       if ( ZDAppPendingBindReq[i].age == 0 )
??ZDApp_GetEmptyPendingBindReq_1:
        MOV     A,R4
        MOV     B,#0x21
        MUL     AB
        MOV     R0,A
        MOV     R1,B
        MOV     DPTR,#ZDAppPendingBindReq
        MOVX    A,@DPTR
        ADD     A,R0
        MOV     R2,A
        INC     DPTR
        MOVX    A,@DPTR
        ADDC    A,R1
        MOV     R3,A
        MOV     A,R2
        ADD     A,#0x20
        MOV     DPL,A
        CLR     A
        ADDC    A,R3
        MOV     DPH,A
        MOVX    A,@DPTR
        JZ      ??ZDApp_GetEmptyPendingBindReq_2
// 3620       {
// 3621         return ( &ZDAppPendingBindReq[i] );
// 3622       }
// 3623     }
        INC     R4
        MOV     A,R4
        CLR     C
        SUBB    A,#0x3
        JC      ??ZDApp_GetEmptyPendingBindReq_1
// 3624   }
// 3625 
// 3626   // No empty entry was found
// 3627   return NULL;
??ZDApp_GetEmptyPendingBindReq_0:
        MOV     R2,#0x0
        MOV     R3,#0x0
??ZDApp_GetEmptyPendingBindReq_2:
        LJMP    ??Subroutine40_0 & 0xFFFF
// 3628 }
          CFI EndBlock cfiBlock265
// 3629 
// 3630 /*********************************************************************
// 3631  * @fn          ZDApp_ProcessPendingBindReq
// 3632  *
// 3633  * @brief       Process pending entry based on EXT address.
// 3634  *
// 3635  * @param       extAddr - of device to look up
// 3636  *
// 3637  * @return      none
// 3638  */

        RSEG BANKED_CODE:CODE:NOROOT(0)
// 3639 void ZDApp_ProcessPendingBindReq( uint8 *extAddr )
ZDApp_ProcessPendingBindReq:
          CFI Block cfiBlock266 Using cfiCommon0
          CFI Function ZDApp_ProcessPendingBindReq
        CODE
// 3640 {
        FUNCALL ZDApp_ProcessPendingBindReq, osal_memcmp
        LOCFRAME ISTACK, 0, STACK
        LOCFRAME PSTACK, 0, STACK
        LOCFRAME XSTACK, 19, STACK
        LOCFRAME IOVERLAY, 0, STATIC
        LOCFRAME DOVERLAY, 0, STATIC
        ARGFRAME ISTACK, 0, STACK
        ARGFRAME PSTACK, 0, STACK
        ARGFRAME XSTACK, 19, STACK
        ARGFRAME IOVERLAY, 0, STATIC
        ARGFRAME DOVERLAY, 0, STATIC
        FUNCALL ZDApp_ProcessPendingBindReq, APSME_BindRequest
        LOCFRAME ISTACK, 0, STACK
        LOCFRAME PSTACK, 0, STACK
        LOCFRAME XSTACK, 17, STACK
        LOCFRAME IOVERLAY, 0, STATIC
        LOCFRAME DOVERLAY, 0, STATIC
        ARGFRAME ISTACK, 0, STACK
        ARGFRAME PSTACK, 0, STACK
        ARGFRAME XSTACK, 17, STACK
        ARGFRAME IOVERLAY, 0, STATIC
        ARGFRAME DOVERLAY, 0, STATIC
        FUNCALL ZDApp_ProcessPendingBindReq, ZDP_SendData
        LOCFRAME ISTACK, 0, STACK
        LOCFRAME PSTACK, 0, STACK
        LOCFRAME XSTACK, 21, STACK
        LOCFRAME IOVERLAY, 0, STATIC
        LOCFRAME DOVERLAY, 0, STATIC
        ARGFRAME ISTACK, 0, STACK
        ARGFRAME PSTACK, 0, STACK
        ARGFRAME XSTACK, 21, STACK
        ARGFRAME IOVERLAY, 0, STATIC
        ARGFRAME DOVERLAY, 0, STATIC
        FUNCALL ZDApp_ProcessPendingBindReq, ZDApp_SetPendingBindDefault
        LOCFRAME ISTACK, 0, STACK
        LOCFRAME PSTACK, 0, STACK
        LOCFRAME XSTACK, 16, STACK
        LOCFRAME IOVERLAY, 0, STATIC
        LOCFRAME DOVERLAY, 0, STATIC
        ARGFRAME ISTACK, 0, STACK
        ARGFRAME PSTACK, 0, STACK
        ARGFRAME XSTACK, 16, STACK
        ARGFRAME IOVERLAY, 0, STATIC
        ARGFRAME DOVERLAY, 0, STATIC
        REQUIRE ?V0
        REQUIRE ?V1
        REQUIRE ?V2
        REQUIRE ?V3
        REQUIRE ?V4
        REQUIRE ?V5
        REQUIRE ?V6
        MOV     A,#-0xf
        LCALL   ?BANKED_ENTER_XDATA
          CFI DPH0 load(1, XDATA, add(CFA_XSP16, literal(-1)))
          CFI DPL0 load(1, XDATA, add(CFA_XSP16, literal(-2)))
          CFI ?BRET_EXT load(1, XDATA, add(CFA_XSP16, literal(-3)))
          CFI ?RET_HIGH load(1, XDATA, add(CFA_XSP16, literal(-4)))
          CFI ?RET_LOW load(1, XDATA, add(CFA_XSP16, literal(-5)))
          CFI R7 load(1, XDATA, add(CFA_XSP16, literal(-6)))
          CFI V6 load(1, XDATA, add(CFA_XSP16, literal(-7)))
          CFI V5 load(1, XDATA, add(CFA_XSP16, literal(-8)))
          CFI V4 load(1, XDATA, add(CFA_XSP16, literal(-9)))
          CFI V3 load(1, XDATA, add(CFA_XSP16, literal(-10)))
          CFI V2 load(1, XDATA, add(CFA_XSP16, literal(-11)))
          CFI V1 load(1, XDATA, add(CFA_XSP16, literal(-12)))
          CFI V0 load(1, XDATA, add(CFA_XSP16, literal(-13)))
          CFI VB load(1, XDATA, add(CFA_XSP16, literal(-14)))
          CFI R6 load(1, XDATA, add(CFA_XSP16, literal(-15)))
          CFI CFA_SP SP+0
          CFI CFA_XSP16 add(XSP16, 15)
        ; Saved register size: 15
        ; Auto size: 1
        MOV     A,#-0x1
        LCALL   ?ALLOC_XSTACK8
          CFI CFA_XSP16 add(XSP16, 16)
        MOV     ?V2,R2
        MOV     ?V3,R3
// 3641   uint8 i;
// 3642 
// 3643   // Loop through all the pending entries for that Ext Address
// 3644   // to create Bind Entries and send Bind Rsp
// 3645   if ( ZDAppPendingBindReq != NULL )
        LCALL   ?Subroutine19 & 0xFFFF
??CrossCallReturnLabel_93:
        JNZ     $+5
        LJMP    ??ZDApp_ProcessPendingBindReq_0 & 0xFFFF
// 3646   {
// 3647     for ( i = 0; i < MAX_PENDING_BIND_REQ; i++ )
        MOV     ?V0,#0x0
// 3648     {
// 3649       if ( osal_memcmp( ZDAppPendingBindReq[i].bindReq.dstAddress.addr.extAddr,
// 3650                         extAddr, Z_EXTADDR_LEN ) == TRUE )
??ZDApp_ProcessPendingBindReq_1:
        MOV     A,?V0
        MOV     B,#0x21
        MUL     AB
        MOV     R6,A
        MOV     R7,B
        ; Setup parameters for call to function osal_memcmp
        MOV     ?V4,?V2
        MOV     ?V5,?V3
        MOV     ?V6,#0x0
        MOV     R0,#?V4
        LCALL   ?PUSH_XSTACK_I_THREE
          CFI CFA_XSP16 add(XSP16, 19)
        MOV     R4,#0x8
        MOV     R5,#0x0
        LCALL   ?Subroutine27 & 0xFFFF
??CrossCallReturnLabel_29:
        ADD     A,#0xb
        MOV     ?V4,A
        CLR     A
        ADDC    A,R1
        MOV     R1,?V4
        MOV     R2,A
        MOV     R3,#0x0
        LCALL   `??osal_memcmp::?relay`; Banked call to: osal_memcmp
        MOV     A,#0x3
        LCALL   ?DEALLOC_XSTACK8
          CFI CFA_XSP16 add(XSP16, 16)
        MOV     A,R1
        XRL     A,#0x1
        JZ      $+5
        LJMP    ??ZDApp_ProcessPendingBindReq_2 & 0xFFFF
// 3651       {
// 3652         uint8 bindStat = ZDP_TABLE_FULL; // Assume table is full
        MOV     DPL,?XSP + 0
        MOV     DPH,?XSP + 1
        MOV     A,#-0x74
        MOVX    @DPTR,A
// 3653 
// 3654         // Add Bind entry
// 3655         if ( APSME_BindRequest( ZDAppPendingBindReq[i].bindReq.srcEndpoint,
// 3656                                 ZDAppPendingBindReq[i].bindReq.clusterID,
// 3657                                 &(ZDAppPendingBindReq[i].bindReq.dstAddress),
// 3658                                 ZDAppPendingBindReq[i].bindReq.dstEndpoint ) == ZSuccess )
        MOV     DPTR,#ZDAppPendingBindReq
        MOVX    A,@DPTR
        ADD     A,R6
        MOV     ?V4,A
        INC     DPTR
        MOVX    A,@DPTR
        ADDC    A,R7
        MOV     ?V5,A
        ; Setup parameters for call to function APSME_BindRequest
        MOV     A,?V4
        ADD     A,#0x14
        MOV     DPL,A
        CLR     A
        ADDC    A,?V5
        MOV     DPH,A
        MOVX    A,@DPTR
        MOV     ?V1,A
        MOV     R0,#?V1
        LCALL   ?PUSH_XSTACK_I_ONE
          CFI CFA_XSP16 add(XSP16, 17)
        MOV     A,?V4
        ADD     A,#0xb
        MOV     R4,A
        CLR     A
        ADDC    A,?V5
        MOV     R5,A
        MOV     DPL,?V4
        MOV     DPH,?V5
        INC     DPTR
        INC     DPTR
        INC     DPTR
        INC     DPTR
        INC     DPTR
        INC     DPTR
        INC     DPTR
        INC     DPTR
        LCALL   ?Subroutine22 & 0xFFFF
??CrossCallReturnLabel_76:
        MOV     DPL,?V4
        MOV     DPH,?V5
        INC     DPTR
        INC     DPTR
        INC     DPTR
        INC     DPTR
        INC     DPTR
        INC     DPTR
        INC     DPTR
        INC     DPTR
        MOVX    A,@DPTR
        MOV     R1,A
        LCALL   `??APSME_BindRequest::?relay`; Banked call to: APSME_BindRequest
        MOV     A,#0x1
        LCALL   ?DEALLOC_XSTACK8
          CFI CFA_XSP16 add(XSP16, 16)
        MOV     A,R1
        JNZ     ??ZDApp_ProcessPendingBindReq_3
// 3659         {
// 3660           // valid entry
// 3661           bindStat = ZDP_SUCCESS;
        MOV     DPL,?XSP + 0
        MOV     DPH,?XSP + 1
        CLR     A
        MOVX    @DPTR,A
// 3662 
// 3663           // Notify to save info into NV
// 3664           ZDApp_NVUpdate();
// 3665         }
// 3666 
// 3667         // Send back a response message
// 3668         ZDP_BindRsp( ZDAppPendingBindReq[i].transSeq, &(ZDAppPendingBindReq[i].srcAddr),
// 3669                      bindStat, ZDAppPendingBindReq[i].securityUse );
??ZDApp_ProcessPendingBindReq_3:
        LCALL   ?Subroutine20 & 0xFFFF
??CrossCallReturnLabel_20:
        MOV     ?V1,A
        MOV     R0,#?V1
        LCALL   ?PUSH_XSTACK_I_ONE
          CFI CFA_XSP16 add(XSP16, 17)
        MOV     A,#0x1
        LCALL   ?XSTACK_DISP100_8
        MOV     ?V4,R0
        MOV     ?V5,R1
        MOV     R0,#?V4
        LCALL   ?PUSH_XSTACK_I_TWO
          CFI CFA_XSP16 add(XSP16, 19)
        MOV     ?V4,#0x21
        MOV     ?V5,#-0x80
        MOV     R0,#?V4
        LCALL   ?PUSH_XSTACK_I_TWO
          CFI CFA_XSP16 add(XSP16, 21)
        LCALL   ?Subroutine33 & 0xFFFF
??CrossCallReturnLabel_43:
        JNC     ??ZDApp_ProcessPendingBindReq_4
        INC     R3
??ZDApp_ProcessPendingBindReq_4:
        LCALL   `??ZDP_SendData::?relay`; Banked call to: ZDP_SendData
        MOV     A,#0x5
        LCALL   ?DEALLOC_XSTACK8
          CFI CFA_XSP16 add(XSP16, 16)
// 3670 
// 3671         // Set the pending request entry to default values
// 3672         ZDApp_SetPendingBindDefault( &ZDAppPendingBindReq[i] );
        ; Setup parameters for call to function ZDApp_SetPendingBindDefault
        LCALL   ?Subroutine35 & 0xFFFF
// 3673       }
// 3674     }
??CrossCallReturnLabel_47:
        LCALL   `??ZDApp_SetPendingBindDefault::?relay`; Banked call to: ZDApp_SetPendingBindDefault
??ZDApp_ProcessPendingBindReq_2:
        INC     ?V0
        MOV     A,?V0
        CLR     C
        SUBB    A,#0x3
        JNC     $+5
        LJMP    ??ZDApp_ProcessPendingBindReq_1 & 0xFFFF
// 3675   }
// 3676 }
??ZDApp_ProcessPendingBindReq_0:
        MOV     A,#0x1
        LJMP    ?Subroutine5 & 0xFFFF
          CFI EndBlock cfiBlock266
// 3677 
// 3678 /*********************************************************************
// 3679  * @fn          ZDApp_AgeOutPendingBindEntry
// 3680  *
// 3681  * @brief       Age out pending Bind Req entries.
// 3682  *
// 3683  * @param       none
// 3684  *
// 3685  * @return      none
// 3686  */

        RSEG BANKED_CODE:CODE:NOROOT(0)
// 3687 void ZDApp_AgeOutPendingBindEntry( void )
ZDApp_AgeOutPendingBindEntry:
          CFI Block cfiBlock267 Using cfiCommon0
          CFI Function ZDApp_AgeOutPendingBindEntry
        CODE
// 3688 {
        FUNCALL ZDApp_AgeOutPendingBindEntry, AddrMgrExtAddrSet
        LOCFRAME ISTACK, 0, STACK
        LOCFRAME PSTACK, 0, STACK
        LOCFRAME XSTACK, 26, STACK
        LOCFRAME IOVERLAY, 0, STATIC
        LOCFRAME DOVERLAY, 0, STATIC
        ARGFRAME ISTACK, 0, STACK
        ARGFRAME PSTACK, 0, STACK
        ARGFRAME XSTACK, 26, STACK
        ARGFRAME IOVERLAY, 0, STATIC
        ARGFRAME DOVERLAY, 0, STATIC
        FUNCALL ZDApp_AgeOutPendingBindEntry, AddrMgrEntryLookupExt
        LOCFRAME ISTACK, 0, STACK
        LOCFRAME PSTACK, 0, STACK
        LOCFRAME XSTACK, 26, STACK
        LOCFRAME IOVERLAY, 0, STATIC
        LOCFRAME DOVERLAY, 0, STATIC
        ARGFRAME ISTACK, 0, STACK
        ARGFRAME PSTACK, 0, STACK
        ARGFRAME XSTACK, 26, STACK
        ARGFRAME IOVERLAY, 0, STATIC
        ARGFRAME DOVERLAY, 0, STATIC
        FUNCALL ZDApp_AgeOutPendingBindEntry, AddrMgrEntryRelease
        LOCFRAME ISTACK, 0, STACK
        LOCFRAME PSTACK, 0, STACK
        LOCFRAME XSTACK, 26, STACK
        LOCFRAME IOVERLAY, 0, STATIC
        LOCFRAME DOVERLAY, 0, STATIC
        ARGFRAME ISTACK, 0, STACK
        ARGFRAME PSTACK, 0, STACK
        ARGFRAME XSTACK, 26, STACK
        ARGFRAME IOVERLAY, 0, STATIC
        ARGFRAME DOVERLAY, 0, STATIC
        FUNCALL ZDApp_AgeOutPendingBindEntry, ZDP_SendData
        LOCFRAME ISTACK, 0, STACK
        LOCFRAME PSTACK, 0, STACK
        LOCFRAME XSTACK, 31, STACK
        LOCFRAME IOVERLAY, 0, STATIC
        LOCFRAME DOVERLAY, 0, STATIC
        ARGFRAME ISTACK, 0, STACK
        ARGFRAME PSTACK, 0, STACK
        ARGFRAME XSTACK, 31, STACK
        ARGFRAME IOVERLAY, 0, STATIC
        ARGFRAME DOVERLAY, 0, STATIC
        FUNCALL ZDApp_AgeOutPendingBindEntry, ZDApp_SetPendingBindDefault
        LOCFRAME ISTACK, 0, STACK
        LOCFRAME PSTACK, 0, STACK
        LOCFRAME XSTACK, 26, STACK
        LOCFRAME IOVERLAY, 0, STATIC
        LOCFRAME DOVERLAY, 0, STATIC
        ARGFRAME ISTACK, 0, STACK
        ARGFRAME PSTACK, 0, STACK
        ARGFRAME XSTACK, 26, STACK
        ARGFRAME IOVERLAY, 0, STATIC
        ARGFRAME DOVERLAY, 0, STATIC
        FUNCALL ZDApp_AgeOutPendingBindEntry, osal_stop_timerEx
        LOCFRAME ISTACK, 0, STACK
        LOCFRAME PSTACK, 0, STACK
        LOCFRAME XSTACK, 26, STACK
        LOCFRAME IOVERLAY, 0, STATIC
        LOCFRAME DOVERLAY, 0, STATIC
        ARGFRAME ISTACK, 0, STACK
        ARGFRAME PSTACK, 0, STACK
        ARGFRAME XSTACK, 26, STACK
        ARGFRAME IOVERLAY, 0, STATIC
        ARGFRAME DOVERLAY, 0, STATIC
        FUNCALL ZDApp_AgeOutPendingBindEntry, osal_start_timerEx
        LOCFRAME ISTACK, 0, STACK
        LOCFRAME PSTACK, 0, STACK
        LOCFRAME XSTACK, 30, STACK
        LOCFRAME IOVERLAY, 0, STATIC
        LOCFRAME DOVERLAY, 0, STATIC
        ARGFRAME ISTACK, 0, STACK
        ARGFRAME PSTACK, 0, STACK
        ARGFRAME XSTACK, 30, STACK
        ARGFRAME IOVERLAY, 0, STATIC
        ARGFRAME DOVERLAY, 0, STATIC
        REQUIRE ?V0
        REQUIRE ?V1
        REQUIRE ?V2
        REQUIRE ?V3
        MOV     A,#-0xc
        LCALL   ?BANKED_ENTER_XDATA
          CFI DPH0 load(1, XDATA, add(CFA_XSP16, literal(-1)))
          CFI DPL0 load(1, XDATA, add(CFA_XSP16, literal(-2)))
          CFI ?BRET_EXT load(1, XDATA, add(CFA_XSP16, literal(-3)))
          CFI ?RET_HIGH load(1, XDATA, add(CFA_XSP16, literal(-4)))
          CFI ?RET_LOW load(1, XDATA, add(CFA_XSP16, literal(-5)))
          CFI R7 load(1, XDATA, add(CFA_XSP16, literal(-6)))
          CFI V3 load(1, XDATA, add(CFA_XSP16, literal(-7)))
          CFI V2 load(1, XDATA, add(CFA_XSP16, literal(-8)))
          CFI V1 load(1, XDATA, add(CFA_XSP16, literal(-9)))
          CFI V0 load(1, XDATA, add(CFA_XSP16, literal(-10)))
          CFI VB load(1, XDATA, add(CFA_XSP16, literal(-11)))
          CFI R6 load(1, XDATA, add(CFA_XSP16, literal(-12)))
          CFI CFA_SP SP+0
          CFI CFA_XSP16 add(XSP16, 12)
        ; Saved register size: 12
        ; Auto size: 14
        MOV     A,#-0xe
        LCALL   ?ALLOC_XSTACK8
          CFI CFA_XSP16 add(XSP16, 26)
// 3689   uint8 i;
// 3690   bool entryFound = FALSE;
        MOV     ?V0,#0x0
// 3691 
// 3692   if ( ZDAppPendingBindReq != NULL )
        LCALL   ?Subroutine19 & 0xFFFF
??CrossCallReturnLabel_94:
        JNZ     $+5
        LJMP    ??ZDApp_AgeOutPendingBindEntry_0 & 0xFFFF
// 3693   {
// 3694     for ( i = 0; i < MAX_PENDING_BIND_REQ; i++ )
        MOV     ?V1,#0x0
// 3695     {
// 3696       if ( ZDAppPendingBindReq[i].age > 1 )
??ZDApp_AgeOutPendingBindEntry_1:
        MOV     A,?V1
        MOV     B,#0x21
        MUL     AB
        MOV     R6,A
        MOV     R7,B
        LCALL   ?Subroutine27 & 0xFFFF
??CrossCallReturnLabel_30:
        ADD     A,#0x20
        MOV     DPL,A
        CLR     A
        ADDC    A,R1
        MOV     DPH,A
        MOVX    A,@DPTR
        MOV     R2,A
        CLR     C
        SUBB    A,#0x2
        JC      ??ZDApp_AgeOutPendingBindEntry_2
// 3697       {
// 3698         ZDAppPendingBindReq[i].age--;
        MOVX    A,@DPTR
        DEC     A
        MOVX    @DPTR,A
// 3699 
// 3700         entryFound = TRUE;
        MOV     ?V0,#0x1
        LJMP    ??ZDApp_AgeOutPendingBindEntry_3 & 0xFFFF
// 3701       }
// 3702       else if ( ZDAppPendingBindReq[i].age == 1 )
??ZDApp_AgeOutPendingBindEntry_2:
        MOV     A,#0x1
        XRL     A,R2
        JNZ     ??ZDApp_AgeOutPendingBindEntry_3
// 3703       {
// 3704         // The record has aged out and has valid data
// 3705         AddrMgrEntry_t entry;
// 3706         uint8 bindStat = ZDP_TABLE_FULL; // Assume table is full
        MOV     DPL,?XSP + 0
        MOV     DPH,?XSP + 1
        MOV     A,#-0x74
        MOVX    @DPTR,A
// 3707 
// 3708         entry.user = ADDRMGR_USER_BINDING;
        MOV     A,#0x1
        LCALL   ?XSTACK_DISP0_8
        MOV     A,#0x4
        MOVX    @DPTR,A
// 3709 
// 3710         // Remove the entry in address manager so we do not keep entries
// 3711         // with invalid addresses
// 3712         AddrMgrExtAddrSet( entry.extAddr, ZDAppPendingBindReq[i].bindReq.dstAddress.addr.extAddr );
        ; Setup parameters for call to function AddrMgrExtAddrSet
        MOV     A,R0
        ADD     A,#0xb
        MOV     R4,A
        CLR     A
        ADDC    A,R1
        MOV     R5,A
        MOV     A,#0x4
        LCALL   ?XSTACK_DISP0_8
        MOV     R2,DPL
        MOV     R3,DPH
        LCALL   `??AddrMgrExtAddrSet::?relay`; Banked call to: AddrMgrExtAddrSet
// 3713 
// 3714         if ( AddrMgrEntryLookupExt( &entry ) == TRUE )
        ; Setup parameters for call to function AddrMgrEntryLookupExt
        MOV     A,#0x1
        LCALL   ?XSTACK_DISP101_8
        LCALL   `??AddrMgrEntryLookupExt::?relay`; Banked call to: AddrMgrEntryLookupExt
        MOV     A,R1
        XRL     A,#0x1
        JNZ     ??ZDApp_AgeOutPendingBindEntry_4
// 3715         {
// 3716           if ( entry.nwkAddr == INVALID_NODE_ADDR )
        MOV     A,#0x2
        LCALL   ?XSTACK_DISP0_8
        MOVX    A,@DPTR
        XRL     A,#0xfe
        JNZ     ??ZDApp_AgeOutPendingBindEntry_5
        INC     DPTR
        MOVX    A,@DPTR
        CPL     A
??ZDApp_AgeOutPendingBindEntry_5:
        JNZ     ??ZDApp_AgeOutPendingBindEntry_4
// 3717           {
// 3718             // Release the entry that contains an invalid NWK address
// 3719             AddrMgrEntryRelease( &entry );
        ; Setup parameters for call to function AddrMgrEntryRelease
        MOV     A,#0x1
        LCALL   ?XSTACK_DISP101_8
        LCALL   `??AddrMgrEntryRelease::?relay`; Banked call to: AddrMgrEntryRelease
// 3720           }
// 3721         }
// 3722 
// 3723         // Send the Bind Response with failure status
// 3724         ZDP_BindRsp( ZDAppPendingBindReq[i].transSeq,
// 3725                      &(ZDAppPendingBindReq[i].srcAddr),
// 3726                      bindStat, ZDAppPendingBindReq[i].securityUse );
??ZDApp_AgeOutPendingBindEntry_4:
        LCALL   ?Subroutine20 & 0xFFFF
??CrossCallReturnLabel_21:
        MOV     ?V2,A
        MOV     R0,#?V2
        LCALL   ?PUSH_XSTACK_I_ONE
          CFI CFA_XSP16 add(XSP16, 27)
        MOV     A,#0x1
        LCALL   ?XSTACK_DISP100_8
        MOV     ?V2,R0
        MOV     ?V3,R1
        MOV     R0,#?V2
        LCALL   ?PUSH_XSTACK_I_TWO
          CFI CFA_XSP16 add(XSP16, 29)
        MOV     ?V2,#0x21
        MOV     ?V3,#-0x80
        MOV     R0,#?V2
        LCALL   ?PUSH_XSTACK_I_TWO
          CFI CFA_XSP16 add(XSP16, 31)
        LCALL   ?Subroutine33 & 0xFFFF
??CrossCallReturnLabel_44:
        JNC     ??ZDApp_AgeOutPendingBindEntry_6
        INC     R3
??ZDApp_AgeOutPendingBindEntry_6:
        LCALL   `??ZDP_SendData::?relay`; Banked call to: ZDP_SendData
        MOV     A,#0x5
        LCALL   ?DEALLOC_XSTACK8
          CFI CFA_XSP16 add(XSP16, 26)
// 3727 
// 3728         // Clear the record and set to default values
// 3729         ZDApp_SetPendingBindDefault( &ZDAppPendingBindReq[i] );
        ; Setup parameters for call to function ZDApp_SetPendingBindDefault
        LCALL   ?Subroutine35 & 0xFFFF
// 3730       }
// 3731     }
??CrossCallReturnLabel_48:
        LCALL   `??ZDApp_SetPendingBindDefault::?relay`; Banked call to: ZDApp_SetPendingBindDefault
??ZDApp_AgeOutPendingBindEntry_3:
        INC     ?V1
        MOV     A,?V1
        CLR     C
        SUBB    A,#0x3
        JNC     $+5
        LJMP    ??ZDApp_AgeOutPendingBindEntry_1 & 0xFFFF
// 3732   }
// 3733 
// 3734   if ( entryFound == FALSE )
        MOV     A,?V0
        MOV     C,0xE0 /* A   */.0
        JC      ??ZDApp_AgeOutPendingBindEntry_7
// 3735   {
// 3736     osal_stop_timerEx( ZDAppTaskID, ZDO_PENDING_BIND_REQ_EVT );
??ZDApp_AgeOutPendingBindEntry_0:
        ; Setup parameters for call to function osal_stop_timerEx
        MOV     R2,#0x0
        MOV     R3,#0x10
        MOV     DPTR,#ZDAppTaskID
        MOVX    A,@DPTR
        MOV     R1,A
        LCALL   `??osal_stop_timerEx::?relay`; Banked call to: osal_stop_timerEx
        SJMP    ??ZDApp_AgeOutPendingBindEntry_8
// 3737   }
// 3738   else
// 3739   {
// 3740     osal_start_timerEx( ZDAppTaskID, ZDO_PENDING_BIND_REQ_EVT,
// 3741                         AGE_OUT_PEND_BIND_REQ_DELAY );
??ZDApp_AgeOutPendingBindEntry_7:
        ; Setup parameters for call to function osal_start_timerEx
        MOV     DPTR,#__Constant_3e8
        LCALL   ?PUSH_XSTACK8_X_FOUR
          CFI CFA_XSP16 add(XSP16, 30)
        MOV     R2,#0x0
        MOV     R3,#0x10
        MOV     DPTR,#ZDAppTaskID
        MOVX    A,@DPTR
        MOV     R1,A
        LCALL   `??osal_start_timerEx::?relay`; Banked call to: osal_start_timerEx
        MOV     A,#0x4
        LCALL   ?DEALLOC_XSTACK8
          CFI CFA_XSP16 add(XSP16, 26)
// 3742   }
// 3743 }
??ZDApp_AgeOutPendingBindEntry_8:
        MOV     A,#0xe
        LJMP    ??Subroutine53_0 & 0xFFFF
          CFI EndBlock cfiBlock267

        RSEG BANKED_CODE:CODE:NOROOT(0)
?Subroutine35:
          CFI Block cfiCond268 Using cfiCommon0
          CFI Function ZDApp_ProcessPendingBindReq
          CFI Conditional ??CrossCallReturnLabel_47
          CFI R6 load(1, XDATA, add(CFA_XSP16, literal(-15)))
          CFI VB load(1, XDATA, add(CFA_XSP16, literal(-14)))
          CFI V0 load(1, XDATA, add(CFA_XSP16, literal(-13)))
          CFI V1 load(1, XDATA, add(CFA_XSP16, literal(-12)))
          CFI V2 load(1, XDATA, add(CFA_XSP16, literal(-11)))
          CFI V3 load(1, XDATA, add(CFA_XSP16, literal(-10)))
          CFI V4 load(1, XDATA, add(CFA_XSP16, literal(-9)))
          CFI V5 load(1, XDATA, add(CFA_XSP16, literal(-8)))
          CFI V6 load(1, XDATA, add(CFA_XSP16, literal(-7)))
          CFI R7 load(1, XDATA, add(CFA_XSP16, literal(-6)))
          CFI ?RET_LOW load(1, XDATA, add(CFA_XSP16, literal(-5)))
          CFI ?RET_HIGH load(1, XDATA, add(CFA_XSP16, literal(-4)))
          CFI ?BRET_EXT load(1, XDATA, add(CFA_XSP16, literal(-3)))
          CFI DPL0 load(1, XDATA, add(CFA_XSP16, literal(-2)))
          CFI DPH0 load(1, XDATA, add(CFA_XSP16, literal(-1)))
          CFI CFA_SP SP+-2
          CFI CFA_XSP16 add(XSP16, 16)
          CFI Block cfiCond269 Using cfiCommon0
          CFI (cfiCond269) Function ZDApp_AgeOutPendingBindEntry
          CFI (cfiCond269) Conditional ??CrossCallReturnLabel_48
          CFI (cfiCond269) R6 load(1, XDATA, add(CFA_XSP16, literal(-12)))
          CFI (cfiCond269) VB load(1, XDATA, add(CFA_XSP16, literal(-11)))
          CFI (cfiCond269) V0 load(1, XDATA, add(CFA_XSP16, literal(-10)))
          CFI (cfiCond269) V1 load(1, XDATA, add(CFA_XSP16, literal(-9)))
          CFI (cfiCond269) V2 load(1, XDATA, add(CFA_XSP16, literal(-8)))
          CFI (cfiCond269) V3 load(1, XDATA, add(CFA_XSP16, literal(-7)))
          CFI (cfiCond269) R7 load(1, XDATA, add(CFA_XSP16, literal(-6)))
          CFI (cfiCond269) ?RET_LOW load(1, XDATA, add(CFA_XSP16, literal(-5)))
          CFI (cfiCond269) ?RET_HIGH load(1, XDATA, add(CFA_XSP16, literal(-4)))
          CFI (cfiCond269) ?BRET_EXT load(1, XDATA, add(CFA_XSP16, literal(-3)))
          CFI (cfiCond269) DPL0 load(1, XDATA, add(CFA_XSP16, literal(-2)))
          CFI (cfiCond269) DPH0 load(1, XDATA, add(CFA_XSP16, literal(-1)))
          CFI (cfiCond269) CFA_SP SP+-2
          CFI (cfiCond269) CFA_XSP16 add(XSP16, 26)
          CFI Block cfiCond270 Using cfiCommon0
          CFI (cfiCond270) Function ZDApp_ProcessPendingBindReq
          CFI (cfiCond270) Conditional ??CrossCallReturnLabel_49, ??CrossCallReturnLabel_20
          CFI (cfiCond270) R6 load(1, XDATA, add(CFA_XSP16, literal(-15)))
          CFI (cfiCond270) VB load(1, XDATA, add(CFA_XSP16, literal(-14)))
          CFI (cfiCond270) V0 load(1, XDATA, add(CFA_XSP16, literal(-13)))
          CFI (cfiCond270) V1 load(1, XDATA, add(CFA_XSP16, literal(-12)))
          CFI (cfiCond270) V2 load(1, XDATA, add(CFA_XSP16, literal(-11)))
          CFI (cfiCond270) V3 load(1, XDATA, add(CFA_XSP16, literal(-10)))
          CFI (cfiCond270) V4 load(1, XDATA, add(CFA_XSP16, literal(-9)))
          CFI (cfiCond270) V5 load(1, XDATA, add(CFA_XSP16, literal(-8)))
          CFI (cfiCond270) V6 load(1, XDATA, add(CFA_XSP16, literal(-7)))
          CFI (cfiCond270) R7 load(1, XDATA, add(CFA_XSP16, literal(-6)))
          CFI (cfiCond270) ?RET_LOW load(1, XDATA, add(CFA_XSP16, literal(-5)))
          CFI (cfiCond270) ?RET_HIGH load(1, XDATA, add(CFA_XSP16, literal(-4)))
          CFI (cfiCond270) ?BRET_EXT load(1, XDATA, add(CFA_XSP16, literal(-3)))
          CFI (cfiCond270) DPL0 load(1, XDATA, add(CFA_XSP16, literal(-2)))
          CFI (cfiCond270) DPH0 load(1, XDATA, add(CFA_XSP16, literal(-1)))
          CFI (cfiCond270) CFA_SP SP+-4
          CFI (cfiCond270) CFA_XSP16 add(XSP16, 16)
          CFI Block cfiCond271 Using cfiCommon0
          CFI (cfiCond271) Function ZDApp_AgeOutPendingBindEntry
          CFI (cfiCond271) Conditional ??CrossCallReturnLabel_49, ??CrossCallReturnLabel_21
          CFI (cfiCond271) R6 load(1, XDATA, add(CFA_XSP16, literal(-12)))
          CFI (cfiCond271) VB load(1, XDATA, add(CFA_XSP16, literal(-11)))
          CFI (cfiCond271) V0 load(1, XDATA, add(CFA_XSP16, literal(-10)))
          CFI (cfiCond271) V1 load(1, XDATA, add(CFA_XSP16, literal(-9)))
          CFI (cfiCond271) V2 load(1, XDATA, add(CFA_XSP16, literal(-8)))
          CFI (cfiCond271) V3 load(1, XDATA, add(CFA_XSP16, literal(-7)))
          CFI (cfiCond271) R7 load(1, XDATA, add(CFA_XSP16, literal(-6)))
          CFI (cfiCond271) ?RET_LOW load(1, XDATA, add(CFA_XSP16, literal(-5)))
          CFI (cfiCond271) ?RET_HIGH load(1, XDATA, add(CFA_XSP16, literal(-4)))
          CFI (cfiCond271) ?BRET_EXT load(1, XDATA, add(CFA_XSP16, literal(-3)))
          CFI (cfiCond271) DPL0 load(1, XDATA, add(CFA_XSP16, literal(-2)))
          CFI (cfiCond271) DPH0 load(1, XDATA, add(CFA_XSP16, literal(-1)))
          CFI (cfiCond271) CFA_SP SP+-4
          CFI (cfiCond271) CFA_XSP16 add(XSP16, 26)
          CFI Block cfiPicker272 Using cfiCommon1
          CFI (cfiPicker272) NoFunction
          CFI (cfiPicker272) Picker
        MOV     DPTR,#ZDAppPendingBindReq
        MOVX    A,@DPTR
        ADD     A,R6
        MOV     R2,A
        INC     DPTR
        MOVX    A,@DPTR
        ADDC    A,R7
        MOV     R3,A
        RET
          CFI (cfiCond268) CFA_SP SP+0
          CFI (cfiCond269) CFA_SP SP+0
          CFI (cfiCond270) CFA_SP SP+-2
          CFI (cfiCond271) CFA_SP SP+-2
          CFI (cfiPicker272) CFA_SP SP+0
          CFI EndBlock cfiCond268
          CFI EndBlock cfiCond269
          CFI EndBlock cfiCond270
          CFI EndBlock cfiCond271
          CFI EndBlock cfiPicker272

        RSEG BANKED_CODE:CODE:NOROOT(0)
?Subroutine33:
          CFI Block cfiCond273 Using cfiCommon0
          CFI Function ZDApp_ProcessPendingBindReq
          CFI Conditional ??CrossCallReturnLabel_43
          CFI R6 load(1, XDATA, add(CFA_XSP16, literal(-15)))
          CFI VB load(1, XDATA, add(CFA_XSP16, literal(-14)))
          CFI V0 load(1, XDATA, add(CFA_XSP16, literal(-13)))
          CFI V1 load(1, XDATA, add(CFA_XSP16, literal(-12)))
          CFI V2 load(1, XDATA, add(CFA_XSP16, literal(-11)))
          CFI V3 load(1, XDATA, add(CFA_XSP16, literal(-10)))
          CFI V4 load(1, XDATA, add(CFA_XSP16, literal(-9)))
          CFI V5 load(1, XDATA, add(CFA_XSP16, literal(-8)))
          CFI V6 load(1, XDATA, add(CFA_XSP16, literal(-7)))
          CFI R7 load(1, XDATA, add(CFA_XSP16, literal(-6)))
          CFI ?RET_LOW load(1, XDATA, add(CFA_XSP16, literal(-5)))
          CFI ?RET_HIGH load(1, XDATA, add(CFA_XSP16, literal(-4)))
          CFI ?BRET_EXT load(1, XDATA, add(CFA_XSP16, literal(-3)))
          CFI DPL0 load(1, XDATA, add(CFA_XSP16, literal(-2)))
          CFI DPH0 load(1, XDATA, add(CFA_XSP16, literal(-1)))
          CFI CFA_SP SP+-2
          CFI CFA_XSP16 add(XSP16, 21)
          CFI Block cfiCond274 Using cfiCommon0
          CFI (cfiCond274) Function ZDApp_AgeOutPendingBindEntry
          CFI (cfiCond274) Conditional ??CrossCallReturnLabel_44
          CFI (cfiCond274) R6 load(1, XDATA, add(CFA_XSP16, literal(-12)))
          CFI (cfiCond274) VB load(1, XDATA, add(CFA_XSP16, literal(-11)))
          CFI (cfiCond274) V0 load(1, XDATA, add(CFA_XSP16, literal(-10)))
          CFI (cfiCond274) V1 load(1, XDATA, add(CFA_XSP16, literal(-9)))
          CFI (cfiCond274) V2 load(1, XDATA, add(CFA_XSP16, literal(-8)))
          CFI (cfiCond274) V3 load(1, XDATA, add(CFA_XSP16, literal(-7)))
          CFI (cfiCond274) R7 load(1, XDATA, add(CFA_XSP16, literal(-6)))
          CFI (cfiCond274) ?RET_LOW load(1, XDATA, add(CFA_XSP16, literal(-5)))
          CFI (cfiCond274) ?RET_HIGH load(1, XDATA, add(CFA_XSP16, literal(-4)))
          CFI (cfiCond274) ?BRET_EXT load(1, XDATA, add(CFA_XSP16, literal(-3)))
          CFI (cfiCond274) DPL0 load(1, XDATA, add(CFA_XSP16, literal(-2)))
          CFI (cfiCond274) DPH0 load(1, XDATA, add(CFA_XSP16, literal(-1)))
          CFI (cfiCond274) CFA_SP SP+-2
          CFI (cfiCond274) CFA_XSP16 add(XSP16, 31)
          CFI Block cfiPicker275 Using cfiCommon1
          CFI (cfiPicker275) NoFunction
          CFI (cfiPicker275) Picker
        MOV     R1,#0x1
        MOV     A,R2
        ADD     A,#0x15
        MOV     R4,A
        CLR     A
        ADDC    A,R3
        MOV     R5,A
        MOV     A,R2
        ADD     A,#0x1f
        MOV     R2,A
        RET
          CFI (cfiCond273) CFA_SP SP+0
          CFI (cfiCond274) CFA_SP SP+0
          CFI (cfiPicker275) CFA_SP SP+0
          CFI EndBlock cfiCond273
          CFI EndBlock cfiCond274
          CFI EndBlock cfiPicker275

        RSEG BANKED_CODE:CODE:NOROOT(0)
?Subroutine27:
          CFI Block cfiCond276 Using cfiCommon0
          CFI Function ZDApp_ProcessPendingBindReq
          CFI Conditional ??CrossCallReturnLabel_29
          CFI R6 load(1, XDATA, add(CFA_XSP16, literal(-15)))
          CFI VB load(1, XDATA, add(CFA_XSP16, literal(-14)))
          CFI V0 load(1, XDATA, add(CFA_XSP16, literal(-13)))
          CFI V1 load(1, XDATA, add(CFA_XSP16, literal(-12)))
          CFI V2 load(1, XDATA, add(CFA_XSP16, literal(-11)))
          CFI V3 load(1, XDATA, add(CFA_XSP16, literal(-10)))
          CFI V4 load(1, XDATA, add(CFA_XSP16, literal(-9)))
          CFI V5 load(1, XDATA, add(CFA_XSP16, literal(-8)))
          CFI V6 load(1, XDATA, add(CFA_XSP16, literal(-7)))
          CFI R7 load(1, XDATA, add(CFA_XSP16, literal(-6)))
          CFI ?RET_LOW load(1, XDATA, add(CFA_XSP16, literal(-5)))
          CFI ?RET_HIGH load(1, XDATA, add(CFA_XSP16, literal(-4)))
          CFI ?BRET_EXT load(1, XDATA, add(CFA_XSP16, literal(-3)))
          CFI DPL0 load(1, XDATA, add(CFA_XSP16, literal(-2)))
          CFI DPH0 load(1, XDATA, add(CFA_XSP16, literal(-1)))
          CFI CFA_SP SP+-2
          CFI CFA_XSP16 add(XSP16, 19)
          CFI Block cfiCond277 Using cfiCommon0
          CFI (cfiCond277) Function ZDApp_AgeOutPendingBindEntry
          CFI (cfiCond277) Conditional ??CrossCallReturnLabel_30
          CFI (cfiCond277) R6 load(1, XDATA, add(CFA_XSP16, literal(-12)))
          CFI (cfiCond277) VB load(1, XDATA, add(CFA_XSP16, literal(-11)))
          CFI (cfiCond277) V0 load(1, XDATA, add(CFA_XSP16, literal(-10)))
          CFI (cfiCond277) V1 load(1, XDATA, add(CFA_XSP16, literal(-9)))
          CFI (cfiCond277) V2 load(1, XDATA, add(CFA_XSP16, literal(-8)))
          CFI (cfiCond277) V3 load(1, XDATA, add(CFA_XSP16, literal(-7)))
          CFI (cfiCond277) R7 load(1, XDATA, add(CFA_XSP16, literal(-6)))
          CFI (cfiCond277) ?RET_LOW load(1, XDATA, add(CFA_XSP16, literal(-5)))
          CFI (cfiCond277) ?RET_HIGH load(1, XDATA, add(CFA_XSP16, literal(-4)))
          CFI (cfiCond277) ?BRET_EXT load(1, XDATA, add(CFA_XSP16, literal(-3)))
          CFI (cfiCond277) DPL0 load(1, XDATA, add(CFA_XSP16, literal(-2)))
          CFI (cfiCond277) DPH0 load(1, XDATA, add(CFA_XSP16, literal(-1)))
          CFI (cfiCond277) CFA_SP SP+-2
          CFI (cfiCond277) CFA_XSP16 add(XSP16, 26)
          CFI Block cfiPicker278 Using cfiCommon1
          CFI (cfiPicker278) NoFunction
          CFI (cfiPicker278) Picker
        MOV     DPTR,#ZDAppPendingBindReq
        MOVX    A,@DPTR
        ADD     A,R6
        MOV     R0,A
        INC     DPTR
        MOVX    A,@DPTR
        ADDC    A,R7
        MOV     R1,A
        MOV     A,R0
        RET
          CFI (cfiCond276) CFA_SP SP+0
          CFI (cfiCond277) CFA_SP SP+0
          CFI (cfiPicker278) CFA_SP SP+0
          CFI EndBlock cfiCond276
          CFI EndBlock cfiCond277
          CFI EndBlock cfiPicker278

        RSEG BANKED_CODE:CODE:NOROOT(0)
?Subroutine20:
          CFI Block cfiCond279 Using cfiCommon0
          CFI Function ZDApp_ProcessPendingBindReq
          CFI Conditional ??CrossCallReturnLabel_20
          CFI R6 load(1, XDATA, add(CFA_XSP16, literal(-15)))
          CFI VB load(1, XDATA, add(CFA_XSP16, literal(-14)))
          CFI V0 load(1, XDATA, add(CFA_XSP16, literal(-13)))
          CFI V1 load(1, XDATA, add(CFA_XSP16, literal(-12)))
          CFI V2 load(1, XDATA, add(CFA_XSP16, literal(-11)))
          CFI V3 load(1, XDATA, add(CFA_XSP16, literal(-10)))
          CFI V4 load(1, XDATA, add(CFA_XSP16, literal(-9)))
          CFI V5 load(1, XDATA, add(CFA_XSP16, literal(-8)))
          CFI V6 load(1, XDATA, add(CFA_XSP16, literal(-7)))
          CFI R7 load(1, XDATA, add(CFA_XSP16, literal(-6)))
          CFI ?RET_LOW load(1, XDATA, add(CFA_XSP16, literal(-5)))
          CFI ?RET_HIGH load(1, XDATA, add(CFA_XSP16, literal(-4)))
          CFI ?BRET_EXT load(1, XDATA, add(CFA_XSP16, literal(-3)))
          CFI DPL0 load(1, XDATA, add(CFA_XSP16, literal(-2)))
          CFI DPH0 load(1, XDATA, add(CFA_XSP16, literal(-1)))
          CFI CFA_SP SP+-2
          CFI CFA_XSP16 add(XSP16, 16)
          CFI Block cfiCond280 Using cfiCommon0
          CFI (cfiCond280) Function ZDApp_AgeOutPendingBindEntry
          CFI (cfiCond280) Conditional ??CrossCallReturnLabel_21
          CFI (cfiCond280) R6 load(1, XDATA, add(CFA_XSP16, literal(-12)))
          CFI (cfiCond280) VB load(1, XDATA, add(CFA_XSP16, literal(-11)))
          CFI (cfiCond280) V0 load(1, XDATA, add(CFA_XSP16, literal(-10)))
          CFI (cfiCond280) V1 load(1, XDATA, add(CFA_XSP16, literal(-9)))
          CFI (cfiCond280) V2 load(1, XDATA, add(CFA_XSP16, literal(-8)))
          CFI (cfiCond280) V3 load(1, XDATA, add(CFA_XSP16, literal(-7)))
          CFI (cfiCond280) R7 load(1, XDATA, add(CFA_XSP16, literal(-6)))
          CFI (cfiCond280) ?RET_LOW load(1, XDATA, add(CFA_XSP16, literal(-5)))
          CFI (cfiCond280) ?RET_HIGH load(1, XDATA, add(CFA_XSP16, literal(-4)))
          CFI (cfiCond280) ?BRET_EXT load(1, XDATA, add(CFA_XSP16, literal(-3)))
          CFI (cfiCond280) DPL0 load(1, XDATA, add(CFA_XSP16, literal(-2)))
          CFI (cfiCond280) DPH0 load(1, XDATA, add(CFA_XSP16, literal(-1)))
          CFI (cfiCond280) CFA_SP SP+-2
          CFI (cfiCond280) CFA_XSP16 add(XSP16, 26)
          CFI Block cfiPicker281 Using cfiCommon1
          CFI (cfiPicker281) NoFunction
          CFI (cfiPicker281) Picker
        LCALL   ?Subroutine35 & 0xFFFF
??CrossCallReturnLabel_49:
        ; Setup parameters for call to function ZDP_SendData
        ; Setup parameters for call to function ZDP_SendData
        MOV     A,R2
        ADD     A,#0x1e
        MOV     DPL,A
        CLR     A
        ADDC    A,R3
        MOV     DPH,A
        MOVX    A,@DPTR
        RET
          CFI (cfiCond279) CFA_SP SP+0
          CFI (cfiCond280) CFA_SP SP+0
          CFI (cfiPicker281) CFA_SP SP+0
          CFI EndBlock cfiCond279
          CFI EndBlock cfiCond280
          CFI EndBlock cfiPicker281
// 3744 #endif
// 3745 #endif
// 3746 
// 3747 /*********************************************************************
// 3748  * @fn          ZDO_ChangeState
// 3749  *
// 3750  * @brief       Chance the device state
// 3751  *
// 3752  * @param       state - new state
// 3753  *
// 3754  * @return      none
// 3755  */

        RSEG BANKED_CODE:CODE:NOROOT(0)
// 3756 void ZDApp_ChangeState( devStates_t state )
ZDApp_ChangeState:
          CFI Block cfiBlock282 Using cfiCommon0
          CFI Function ZDApp_ChangeState
        CODE
// 3757 {
        FUNCALL ZDApp_ChangeState, osal_set_event
        LOCFRAME ISTACK, 0, STACK
        LOCFRAME PSTACK, 0, STACK
        LOCFRAME XSTACK, 9, STACK
        LOCFRAME IOVERLAY, 0, STATIC
        LOCFRAME DOVERLAY, 0, STATIC
        ARGFRAME ISTACK, 0, STACK
        ARGFRAME PSTACK, 0, STACK
        ARGFRAME XSTACK, 9, STACK
        ARGFRAME IOVERLAY, 0, STATIC
        ARGFRAME DOVERLAY, 0, STATIC
        MOV     A,#-0x9
        LCALL   ?BANKED_ENTER_XDATA
          CFI DPH0 load(1, XDATA, add(CFA_XSP16, literal(-1)))
          CFI DPL0 load(1, XDATA, add(CFA_XSP16, literal(-2)))
          CFI ?BRET_EXT load(1, XDATA, add(CFA_XSP16, literal(-3)))
          CFI ?RET_HIGH load(1, XDATA, add(CFA_XSP16, literal(-4)))
          CFI ?RET_LOW load(1, XDATA, add(CFA_XSP16, literal(-5)))
          CFI R7 load(1, XDATA, add(CFA_XSP16, literal(-6)))
          CFI V0 load(1, XDATA, add(CFA_XSP16, literal(-7)))
          CFI VB load(1, XDATA, add(CFA_XSP16, literal(-8)))
          CFI R6 load(1, XDATA, add(CFA_XSP16, literal(-9)))
          CFI CFA_SP SP+0
          CFI CFA_XSP16 add(XSP16, 9)
        ; Saved register size: 9
        ; Auto size: 0
        MOV     A,R1
        MOV     R6,A
// 3758   if ( devState != state )
        MOV     DPTR,#devState
        MOVX    A,@DPTR
        XRL     A,R6
        JZ      ??ZDApp_ChangeState_0
// 3759   {
// 3760     devState = state;
        MOV     A,R6
        MOVX    @DPTR,A
// 3761     osal_set_event( ZDAppTaskID, ZDO_STATE_CHANGE_EVT );
        ; Setup parameters for call to function osal_set_event
        MOV     R2,#0x10
        MOV     R3,#0x0
        MOV     DPTR,#ZDAppTaskID
        MOVX    A,@DPTR
        MOV     R1,A
        LCALL   `??osal_set_event::?relay`; Banked call to: osal_set_event
// 3762   }
// 3763 }
??ZDApp_ChangeState_0:
        LJMP    ??Subroutine46_0 & 0xFFFF
          CFI EndBlock cfiBlock282
// 3764 
// 3765 /*********************************************************************
// 3766  * @fn      ZDApp_SetRejoinScanDuration()
// 3767  *
// 3768  * @brief   Sets scan duration for rejoin for an end device
// 3769  *
// 3770  * @param   rejoinScanDuration - milliseconds
// 3771  *
// 3772  * @return  none
// 3773  */

        RSEG BANKED_CODE:CODE:NOROOT(0)
// 3774 void ZDApp_SetRejoinScanDuration( uint32 rejoinScanDuration )
ZDApp_SetRejoinScanDuration:
          CFI Block cfiBlock283 Using cfiCommon0
          CFI Function ZDApp_SetRejoinScanDuration
        CODE
// 3775 {
        REQUIRE ?V0
        REQUIRE ?V1
        REQUIRE ?V2
        REQUIRE ?V3
        MOV     A,#-0xc
        LCALL   ?BANKED_ENTER_XDATA
          CFI DPH0 load(1, XDATA, add(CFA_XSP16, literal(-1)))
          CFI DPL0 load(1, XDATA, add(CFA_XSP16, literal(-2)))
          CFI ?BRET_EXT load(1, XDATA, add(CFA_XSP16, literal(-3)))
          CFI ?RET_HIGH load(1, XDATA, add(CFA_XSP16, literal(-4)))
          CFI ?RET_LOW load(1, XDATA, add(CFA_XSP16, literal(-5)))
          CFI R7 load(1, XDATA, add(CFA_XSP16, literal(-6)))
          CFI V3 load(1, XDATA, add(CFA_XSP16, literal(-7)))
          CFI V2 load(1, XDATA, add(CFA_XSP16, literal(-8)))
          CFI V1 load(1, XDATA, add(CFA_XSP16, literal(-9)))
          CFI V0 load(1, XDATA, add(CFA_XSP16, literal(-10)))
          CFI VB load(1, XDATA, add(CFA_XSP16, literal(-11)))
          CFI R6 load(1, XDATA, add(CFA_XSP16, literal(-12)))
          CFI CFA_SP SP+0
          CFI CFA_XSP16 add(XSP16, 12)
        ; Saved register size: 12
        ; Auto size: 0
        MOV     ?V0,R2
        MOV     ?V1,R3
        MOV     ?V2,R4
        MOV     ?V3,R5
// 3776   zgDefaultRejoinScan = rejoinScanDuration;
        MOV     DPTR,#zgDefaultRejoinScan
          CFI EndBlock cfiBlock283
        REQUIRE ?Subroutine7
        ; // Fall through to label ?Subroutine7
// 3777 }

        RSEG BANKED_CODE:CODE:NOROOT(0)
?Subroutine7:
          CFI Block cfiBlock284 Using cfiCommon0
          CFI NoFunction
          CFI CFA_SP SP+0
          CFI CFA_XSP16 add(XSP16, 12)
          CFI VB load(1, XDATA, add(CFA_XSP16, literal(-11)))
          CFI DPL0 load(1, XDATA, add(CFA_XSP16, literal(-2)))
          CFI DPH0 load(1, XDATA, add(CFA_XSP16, literal(-1)))
          CFI R6 load(1, XDATA, add(CFA_XSP16, literal(-12)))
          CFI R7 load(1, XDATA, add(CFA_XSP16, literal(-6)))
          CFI V0 load(1, XDATA, add(CFA_XSP16, literal(-10)))
          CFI V1 load(1, XDATA, add(CFA_XSP16, literal(-9)))
          CFI V2 load(1, XDATA, add(CFA_XSP16, literal(-8)))
          CFI V3 load(1, XDATA, add(CFA_XSP16, literal(-7)))
          CFI ?BRET_EXT load(1, XDATA, add(CFA_XSP16, literal(-3)))
          CFI ?RET_HIGH load(1, XDATA, add(CFA_XSP16, literal(-4)))
          CFI ?RET_LOW load(1, XDATA, add(CFA_XSP16, literal(-5)))
        MOV     R0,#?V0
        LCALL   ?L_MOV_TO_X
        SJMP    ??Subroutine54_0
          CFI EndBlock cfiBlock284
// 3778 
// 3779 /*********************************************************************
// 3780  * @fn      ZDApp_SetRejoinBackoffDuration()
// 3781  *
// 3782  * @brief   Sets rejoin backoff duration for rejoin for an end device
// 3783  *
// 3784  * @param   rejoinBackoffDuration - milliseconds
// 3785  *
// 3786  * @return  none
// 3787  */

        RSEG BANKED_CODE:CODE:NOROOT(0)
// 3788 void ZDApp_SetRejoinBackoffDuration( uint32 rejoinBackoffDuration )
ZDApp_SetRejoinBackoffDuration:
          CFI Block cfiBlock285 Using cfiCommon0
          CFI Function ZDApp_SetRejoinBackoffDuration
        CODE
// 3789 {
        REQUIRE ?V0
        REQUIRE ?V1
        REQUIRE ?V2
        REQUIRE ?V3
        MOV     A,#-0xc
        LCALL   ?BANKED_ENTER_XDATA
          CFI DPH0 load(1, XDATA, add(CFA_XSP16, literal(-1)))
          CFI DPL0 load(1, XDATA, add(CFA_XSP16, literal(-2)))
          CFI ?BRET_EXT load(1, XDATA, add(CFA_XSP16, literal(-3)))
          CFI ?RET_HIGH load(1, XDATA, add(CFA_XSP16, literal(-4)))
          CFI ?RET_LOW load(1, XDATA, add(CFA_XSP16, literal(-5)))
          CFI R7 load(1, XDATA, add(CFA_XSP16, literal(-6)))
          CFI V3 load(1, XDATA, add(CFA_XSP16, literal(-7)))
          CFI V2 load(1, XDATA, add(CFA_XSP16, literal(-8)))
          CFI V1 load(1, XDATA, add(CFA_XSP16, literal(-9)))
          CFI V0 load(1, XDATA, add(CFA_XSP16, literal(-10)))
          CFI VB load(1, XDATA, add(CFA_XSP16, literal(-11)))
          CFI R6 load(1, XDATA, add(CFA_XSP16, literal(-12)))
          CFI CFA_SP SP+0
          CFI CFA_XSP16 add(XSP16, 12)
        ; Saved register size: 12
        ; Auto size: 0
        MOV     ?V0,R2
        MOV     ?V1,R3
        MOV     ?V2,R4
        MOV     ?V3,R5
// 3790   zgDefaultRejoinBackoff = rejoinBackoffDuration;
        MOV     DPTR,#zgDefaultRejoinBackoff
        SJMP    ?Subroutine7
// 3791 }
          CFI EndBlock cfiBlock285
// 3792 
// 3793 /*********************************************************************
// 3794  * @fn          ZDApp_SetParentAnnceTimer
// 3795  *
// 3796  * @brief       This function sets up the link status timer.
// 3797  *
// 3798  * @param       none
// 3799  *
// 3800  * @return      none
// 3801  */

        RSEG BANKED_CODE:CODE:NOROOT(0)
// 3802 void ZDApp_SetParentAnnceTimer( void )
ZDApp_SetParentAnnceTimer:
          CFI Block cfiBlock286 Using cfiCommon0
          CFI Function ZDApp_SetParentAnnceTimer
        CODE
// 3803 {
        FUNCALL ZDApp_SetParentAnnceTimer, osal_rand
        LOCFRAME ISTACK, 0, STACK
        LOCFRAME PSTACK, 0, STACK
        LOCFRAME XSTACK, 12, STACK
        LOCFRAME IOVERLAY, 0, STATIC
        LOCFRAME DOVERLAY, 0, STATIC
        ARGFRAME ISTACK, 0, STACK
        ARGFRAME PSTACK, 0, STACK
        ARGFRAME XSTACK, 12, STACK
        ARGFRAME IOVERLAY, 0, STATIC
        ARGFRAME DOVERLAY, 0, STATIC
        FUNCALL ZDApp_SetParentAnnceTimer, osal_start_timerEx
        LOCFRAME ISTACK, 0, STACK
        LOCFRAME PSTACK, 0, STACK
        LOCFRAME XSTACK, 16, STACK
        LOCFRAME IOVERLAY, 0, STATIC
        LOCFRAME DOVERLAY, 0, STATIC
        ARGFRAME ISTACK, 0, STACK
        ARGFRAME PSTACK, 0, STACK
        ARGFRAME XSTACK, 16, STACK
        ARGFRAME IOVERLAY, 0, STATIC
        ARGFRAME DOVERLAY, 0, STATIC
        REQUIRE ?V0
        REQUIRE ?V1
        REQUIRE ?V2
        REQUIRE ?V3
        MOV     A,#-0xc
        LCALL   ?BANKED_ENTER_XDATA
          CFI DPH0 load(1, XDATA, add(CFA_XSP16, literal(-1)))
          CFI DPL0 load(1, XDATA, add(CFA_XSP16, literal(-2)))
          CFI ?BRET_EXT load(1, XDATA, add(CFA_XSP16, literal(-3)))
          CFI ?RET_HIGH load(1, XDATA, add(CFA_XSP16, literal(-4)))
          CFI ?RET_LOW load(1, XDATA, add(CFA_XSP16, literal(-5)))
          CFI R7 load(1, XDATA, add(CFA_XSP16, literal(-6)))
          CFI V3 load(1, XDATA, add(CFA_XSP16, literal(-7)))
          CFI V2 load(1, XDATA, add(CFA_XSP16, literal(-8)))
          CFI V1 load(1, XDATA, add(CFA_XSP16, literal(-9)))
          CFI V0 load(1, XDATA, add(CFA_XSP16, literal(-10)))
          CFI VB load(1, XDATA, add(CFA_XSP16, literal(-11)))
          CFI R6 load(1, XDATA, add(CFA_XSP16, literal(-12)))
          CFI CFA_SP SP+0
          CFI CFA_XSP16 add(XSP16, 12)
        ; Saved register size: 12
        ; Auto size: 0
// 3804   // Parent Announce shall be sent no earlier than 10 seconds
// 3805   uint32 timeout = 10000;
// 3806 
// 3807   // Add with jitter of up to 10 seconds
// 3808   timeout += (osal_rand() & 0x2710);
        ; Setup parameters for call to function osal_rand
        LCALL   `??osal_rand::?relay`; Banked call to: osal_rand
// 3809 
// 3810   // Set timer to send the message
// 3811   osal_start_timerEx( ZDAppTaskID, ZDO_PARENT_ANNCE_EVT, timeout );
        ; Setup parameters for call to function osal_start_timerEx
        MOV     A,R2
        ANL     A,#0x10
        MOV     ?V0,A
        MOV     A,R3
        ANL     A,#0x27
        MOV     ?V1,A
        CLR     A
        MOV     ?V2,A
        MOV     ?V3,A
        MOV     DPTR,#__Constant_2710
        MOV     R0,#?V0
        LCALL   ?L_ADD_X
        MOV     R0,#?V0
        LCALL   ?PUSH_XSTACK_I_FOUR
          CFI CFA_XSP16 add(XSP16, 16)
        MOV     R2,#0x0
        MOV     R3,#0x40
        MOV     DPTR,#ZDAppTaskID
        MOVX    A,@DPTR
        MOV     R1,A
        LCALL   `??osal_start_timerEx::?relay`; Banked call to: osal_start_timerEx
        LJMP    ?Subroutine9 & 0xFFFF
// 3812 }
          CFI EndBlock cfiBlock286

        RSEG BANKED_CODE:CODE:NOROOT(0)
?Subroutine2:
          CFI Block cfiBlock287 Using cfiCommon0
          CFI NoFunction
          CFI CFA_SP SP+0
          CFI CFA_XSP16 add(XSP16, 14)
          CFI VB load(1, XDATA, add(CFA_XSP16, literal(-11)))
          CFI DPL0 load(1, XDATA, add(CFA_XSP16, literal(-2)))
          CFI DPH0 load(1, XDATA, add(CFA_XSP16, literal(-1)))
          CFI R6 load(1, XDATA, add(CFA_XSP16, literal(-12)))
          CFI R7 load(1, XDATA, add(CFA_XSP16, literal(-6)))
          CFI V0 load(1, XDATA, add(CFA_XSP16, literal(-10)))
          CFI V1 load(1, XDATA, add(CFA_XSP16, literal(-9)))
          CFI V2 load(1, XDATA, add(CFA_XSP16, literal(-8)))
          CFI V3 load(1, XDATA, add(CFA_XSP16, literal(-7)))
          CFI ?BRET_EXT load(1, XDATA, add(CFA_XSP16, literal(-3)))
          CFI ?RET_HIGH load(1, XDATA, add(CFA_XSP16, literal(-4)))
          CFI ?RET_LOW load(1, XDATA, add(CFA_XSP16, literal(-5)))
        MOV     A,#0x2
          CFI EndBlock cfiBlock287
        REQUIRE ??Subroutine53_0
        ; // Fall through to label ??Subroutine53_0

        RSEG BANKED_CODE:CODE:NOROOT(0)
??Subroutine53_0:
          CFI Block cfiBlock288 Using cfiCommon0
          CFI NoFunction
          CFI CFA_SP SP+0
          CFI CFA_XSP16 add(XSP16, 15)
          CFI VB load(1, XDATA, add(CFA_XSP16, literal(-11)))
          CFI DPL0 load(1, XDATA, add(CFA_XSP16, literal(-2)))
          CFI DPH0 load(1, XDATA, add(CFA_XSP16, literal(-1)))
          CFI R6 load(1, XDATA, add(CFA_XSP16, literal(-12)))
          CFI R7 load(1, XDATA, add(CFA_XSP16, literal(-6)))
          CFI V0 load(1, XDATA, add(CFA_XSP16, literal(-10)))
          CFI V1 load(1, XDATA, add(CFA_XSP16, literal(-9)))
          CFI V2 load(1, XDATA, add(CFA_XSP16, literal(-8)))
          CFI V3 load(1, XDATA, add(CFA_XSP16, literal(-7)))
          CFI ?BRET_EXT load(1, XDATA, add(CFA_XSP16, literal(-3)))
          CFI ?RET_HIGH load(1, XDATA, add(CFA_XSP16, literal(-4)))
          CFI ?RET_LOW load(1, XDATA, add(CFA_XSP16, literal(-5)))
          CFI Invalid
        LCALL   ?DEALLOC_XSTACK8
          CFI CFA_XSP16 add(XSP16, 12)
          CFI Valid
          CFI EndBlock cfiBlock288
        REQUIRE ??Subroutine54_0
        ; // Fall through to label ??Subroutine54_0

        RSEG BANKED_CODE:CODE:NOROOT(0)
??Subroutine54_0:
          CFI Block cfiBlock289 Using cfiCommon0
          CFI NoFunction
          CFI CFA_SP SP+0
          CFI CFA_XSP16 add(XSP16, 12)
          CFI VB load(1, XDATA, add(CFA_XSP16, literal(-11)))
          CFI DPL0 load(1, XDATA, add(CFA_XSP16, literal(-2)))
          CFI DPH0 load(1, XDATA, add(CFA_XSP16, literal(-1)))
          CFI R6 load(1, XDATA, add(CFA_XSP16, literal(-12)))
          CFI R7 load(1, XDATA, add(CFA_XSP16, literal(-6)))
          CFI V0 load(1, XDATA, add(CFA_XSP16, literal(-10)))
          CFI V1 load(1, XDATA, add(CFA_XSP16, literal(-9)))
          CFI V2 load(1, XDATA, add(CFA_XSP16, literal(-8)))
          CFI V3 load(1, XDATA, add(CFA_XSP16, literal(-7)))
          CFI ?BRET_EXT load(1, XDATA, add(CFA_XSP16, literal(-3)))
          CFI ?RET_HIGH load(1, XDATA, add(CFA_XSP16, literal(-4)))
          CFI ?RET_LOW load(1, XDATA, add(CFA_XSP16, literal(-5)))
        MOV     R7,#0x4
        LJMP    ?BANKED_LEAVE_XDATA
          CFI CFA_SP SP+-3
          CFI CFA_XSP16 XSP16+0
          CFI VB SameValue
          CFI DPL0 SameValue
          CFI DPH0 SameValue
          CFI R6 SameValue
          CFI R7 SameValue
          CFI V0 SameValue
          CFI V1 SameValue
          CFI V2 SameValue
          CFI V3 SameValue
          CFI ?BRET_EXT Frame(CFA_SP, 3)
          CFI ?RET_HIGH Frame(CFA_SP, 2)
          CFI ?RET_LOW Frame(CFA_SP, 1)
          CFI EndBlock cfiBlock289

        RSEG XDATA_ID:CODE:NOROOT(0)
`?<Initializer for zdoDiscCounter>`:
        DATA8
        DB 1

        RSEG XDATA_ID:CODE:NOROOT(0)
`?<Initializer for continueJoining>`:
        DATA8
        DB 1

        RSEG XDATA_ID:CODE:NOROOT(0)
`?<Initializer for devState>`:
        DATA8
        DB 1

        RSEG XDATA_ID:CODE:NOROOT(0)
`?<Initializer for prevDevState>`:
        DATA8
        DB 4

        RSEG XDATA_ID:CODE:NOROOT(0)
`?<Initializer for ZDApp_epDesc>`:
        DATA8
        DB 0
        DATA16
        DW ZDAppTaskID
        DW 0H
        DATA8
        DB 0

        RSEG XDATA_ID:CODE:NOROOT(0)
`?<Initializer for ZDApp_SavedPollRate>`:
        DATA32
        DD 10000

        RSEG XDATA_ROM_C:CONST:REORDER:NOROOT(0)
        DATA32
__Constant_64:
        DD 100

        RSEG XDATA_ROM_C:CONST:REORDER:NOROOT(0)
        DATA32
__Constant_0:
        DD 0

        RSEG XDATA_ROM_C:CONST:REORDER:NOROOT(0)
        DATA32
__Constant_4e2:
        DD 1250

        RSEG XDATA_ROM_C:CONST:REORDER:NOROOT(0)
        DATA32
__Constant_258:
        DD 600

        RSEG XDATA_ROM_C:CONST:REORDER:NOROOT(0)
        DATA32
__Constant_3e8:
        DD 1000

        RSEG XDATA_ROM_C:CONST:REORDER:NOROOT(0)
        DATA32
__Constant_2710:
        DD 10000

        RSEG BANK_RELAYS:CODE:REORDER:NOROOT(0)
`??ZDApp_Init::?relay`:
        CODE
        LCALL   ?BDISPATCH
        DATA24
        DC24    ZDApp_Init

        RSEG BANK_RELAYS:CODE:REORDER:NOROOT(0)
`??ZDApp_SecInit::?relay`:
        CODE
        LCALL   ?BDISPATCH
        DATA24
        DC24    ZDApp_SecInit

        RSEG BANK_RELAYS:CODE:REORDER:NOROOT(0)
`??ZDApp_event_loop::?relay`:
        CODE
        LCALL   ?BDISPATCH
        DATA24
        DC24    ZDApp_event_loop

        RSEG BANK_RELAYS:CODE:REORDER:NOROOT(0)
`??ZDApp_ProcessSecEvent::?relay`:
        CODE
        LCALL   ?BDISPATCH
        DATA24
        DC24    ZDApp_ProcessSecEvent

        RSEG BANK_RELAYS:CODE:REORDER:NOROOT(0)
`??ZDOInitDevice::?relay`:
        CODE
        LCALL   ?BDISPATCH
        DATA24
        DC24    ZDOInitDevice

        RSEG BANK_RELAYS:CODE:REORDER:NOROOT(0)
`??ZDApp_ReadNetworkRestoreState::?relay`:
        CODE
        LCALL   ?BDISPATCH
        DATA24
        DC24    ZDApp_ReadNetworkRestoreState

        RSEG BANK_RELAYS:CODE:REORDER:NOROOT(0)
`??ZDAppDetermineDeviceType::?relay`:
        CODE
        LCALL   ?BDISPATCH
        DATA24
        DC24    ZDAppDetermineDeviceType

        RSEG BANK_RELAYS:CODE:REORDER:NOROOT(0)
`??ZDApp_NetworkStartEvt::?relay`:
        CODE
        LCALL   ?BDISPATCH
        DATA24
        DC24    ZDApp_NetworkStartEvt

        RSEG BANK_RELAYS:CODE:REORDER:NOROOT(0)
`??ZDApp_DeviceAuthEvt::?relay`:
        CODE
        LCALL   ?BDISPATCH
        DATA24
        DC24    ZDApp_DeviceAuthEvt

        RSEG BANK_RELAYS:CODE:REORDER:NOROOT(0)
`??ZDApp_SaveNetworkStateEvt::?relay`:
        CODE
        LCALL   ?BDISPATCH
        DATA24
        DC24    ZDApp_SaveNetworkStateEvt

        RSEG BANK_RELAYS:CODE:REORDER:NOROOT(0)
`??ZDApp_InitUserDesc::?relay`:
        CODE
        LCALL   ?BDISPATCH
        DATA24
        DC24    ZDApp_InitUserDesc

        RSEG BANK_RELAYS:CODE:REORDER:NOROOT(0)
`??ZDAppCheckForHoldKey::?relay`:
        CODE
        LCALL   ?BDISPATCH
        DATA24
        DC24    ZDAppCheckForHoldKey

        RSEG BANK_RELAYS:CODE:REORDER:NOROOT(0)
`??ZDApp_ProcessOSALMsg::?relay`:
        CODE
        LCALL   ?BDISPATCH
        DATA24
        DC24    ZDApp_ProcessOSALMsg

        RSEG BANK_RELAYS:CODE:REORDER:NOROOT(0)
`??ZDApp_ProcessMsgCBs::?relay`:
        CODE
        LCALL   ?BDISPATCH
        DATA24
        DC24    ZDApp_ProcessMsgCBs

        RSEG BANK_RELAYS:CODE:REORDER:NOROOT(0)
`??ZDApp_RegisterCBs::?relay`:
        CODE
        LCALL   ?BDISPATCH
        DATA24
        DC24    ZDApp_RegisterCBs

        RSEG BANK_RELAYS:CODE:REORDER:NOROOT(0)
`??ZDApp_ProcessSecMsg::?relay`:
        CODE
        LCALL   ?BDISPATCH
        DATA24
        DC24    ZDApp_ProcessSecMsg

        RSEG BANK_RELAYS:CODE:REORDER:NOROOT(0)
`??ZDApp_ProcessNetworkJoin::?relay`:
        CODE
        LCALL   ?BDISPATCH
        DATA24
        DC24    ZDApp_ProcessNetworkJoin

        RSEG BANK_RELAYS:CODE:REORDER:NOROOT(0)
`??ZDApp_SaveNwkKey::?relay`:
        CODE
        LCALL   ?BDISPATCH
        DATA24
        DC24    ZDApp_SaveNwkKey

        RSEG BANK_RELAYS:CODE:REORDER:NOROOT(0)
`??ZDApp_ForceConcentratorChange::?relay`:
        CODE
        LCALL   ?BDISPATCH
        DATA24
        DC24    ZDApp_ForceConcentratorChange

        RSEG BANK_RELAYS:CODE:REORDER:NOROOT(0)
`??ZDApp_ResetNwkKey::?relay`:
        CODE
        LCALL   ?BDISPATCH
        DATA24
        DC24    ZDApp_ResetNwkKey

        RSEG BANK_RELAYS:CODE:REORDER:NOROOT(0)
`??ZDApp_RestoreNwkKey::?relay`:
        CODE
        LCALL   ?BDISPATCH
        DATA24
        DC24    ZDApp_RestoreNwkKey

        RSEG BANK_RELAYS:CODE:REORDER:NOROOT(0)
`??ZDApp_ResetTimerStart::?relay`:
        CODE
        LCALL   ?BDISPATCH
        DATA24
        DC24    ZDApp_ResetTimerStart

        RSEG BANK_RELAYS:CODE:REORDER:NOROOT(0)
`??ZDApp_ResetTimerCancel::?relay`:
        CODE
        LCALL   ?BDISPATCH
        DATA24
        DC24    ZDApp_ResetTimerCancel

        RSEG BANK_RELAYS:CODE:REORDER:NOROOT(0)
`??ZDApp_LeaveCtrlInit::?relay`:
        CODE
        LCALL   ?BDISPATCH
        DATA24
        DC24    ZDApp_LeaveCtrlInit

        RSEG BANK_RELAYS:CODE:REORDER:NOROOT(0)
`??ZDApp_LeaveCtrlSet::?relay`:
        CODE
        LCALL   ?BDISPATCH
        DATA24
        DC24    ZDApp_LeaveCtrlSet

        RSEG BANK_RELAYS:CODE:REORDER:NOROOT(0)
`??ZDApp_LeaveCtrlReset::?relay`:
        CODE
        LCALL   ?BDISPATCH
        DATA24
        DC24    ZDApp_LeaveCtrlReset

        RSEG BANK_RELAYS:CODE:REORDER:NOROOT(0)
`??ZDApp_LeaveCtrlBypass::?relay`:
        CODE
        LCALL   ?BDISPATCH
        DATA24
        DC24    ZDApp_LeaveCtrlBypass

        RSEG BANK_RELAYS:CODE:REORDER:NOROOT(0)
`??ZDApp_LeaveCtrlStartup::?relay`:
        CODE
        LCALL   ?BDISPATCH
        DATA24
        DC24    ZDApp_LeaveCtrlStartup

        RSEG BANK_RELAYS:CODE:REORDER:NOROOT(0)
`??ZDApp_LeaveReset::?relay`:
        CODE
        LCALL   ?BDISPATCH
        DATA24
        DC24    ZDApp_LeaveReset

        RSEG BANK_RELAYS:CODE:REORDER:NOROOT(0)
`??ZDApp_LeaveUpdate::?relay`:
        CODE
        LCALL   ?BDISPATCH
        DATA24
        DC24    ZDApp_LeaveUpdate

        RSEG BANK_RELAYS:CODE:REORDER:NOROOT(0)
`??ZDApp_NetworkDiscoveryReq::?relay`:
        CODE
        LCALL   ?BDISPATCH
        DATA24
        DC24    ZDApp_NetworkDiscoveryReq

        RSEG BANK_RELAYS:CODE:REORDER:NOROOT(0)
`??ZDApp_JoinReq::?relay`:
        CODE
        LCALL   ?BDISPATCH
        DATA24
        DC24    ZDApp_JoinReq

        RSEG BANK_RELAYS:CODE:REORDER:NOROOT(0)
`??ZDApp_DeviceConfigured::?relay`:
        CODE
        LCALL   ?BDISPATCH
        DATA24
        DC24    ZDApp_DeviceConfigured

        RSEG BANK_RELAYS:CODE:REORDER:NOROOT(0)
`??ZDApp_SendEventMsg::?relay`:
        CODE
        LCALL   ?BDISPATCH
        DATA24
        DC24    ZDApp_SendEventMsg

        RSEG BANK_RELAYS:CODE:REORDER:NOROOT(0)
`??ZDApp_SendMsg::?relay`:
        CODE
        LCALL   ?BDISPATCH
        DATA24
        DC24    ZDApp_SendMsg

        RSEG BANK_RELAYS:CODE:REORDER:NOROOT(0)
`??ZDO_NetworkDiscoveryConfirmCB::?relay`:
        CODE
        LCALL   ?BDISPATCH
        DATA24
        DC24    ZDO_NetworkDiscoveryConfirmCB

        RSEG BANK_RELAYS:CODE:REORDER:NOROOT(0)
`??ZDApp_NwkDescListProcessing::?relay`:
        CODE
        LCALL   ?BDISPATCH
        DATA24
        DC24    ZDApp_NwkDescListProcessing

        RSEG BANK_RELAYS:CODE:REORDER:NOROOT(0)
`??ZDO_NetworkFormationConfirmCB::?relay`:
        CODE
        LCALL   ?BDISPATCH
        DATA24
        DC24    ZDO_NetworkFormationConfirmCB

        RSEG BANK_RELAYS:CODE:REORDER:NOROOT(0)
`??ZDO_beaconNotifyIndCB::?relay`:
        CODE
        LCALL   ?BDISPATCH
        DATA24
        DC24    ZDO_beaconNotifyIndCB

        RSEG BANK_RELAYS:CODE:REORDER:NOROOT(0)
`??ZDO_StartRouterConfirmCB::?relay`:
        CODE
        LCALL   ?BDISPATCH
        DATA24
        DC24    ZDO_StartRouterConfirmCB

        RSEG BANK_RELAYS:CODE:REORDER:NOROOT(0)
`??ZDO_JoinConfirmCB::?relay`:
        CODE
        LCALL   ?BDISPATCH
        DATA24
        DC24    ZDO_JoinConfirmCB

        RSEG BANK_RELAYS:CODE:REORDER:NOROOT(0)
`??ZDO_PermitJoinCB::?relay`:
        CODE
        LCALL   ?BDISPATCH
        DATA24
        DC24    ZDO_PermitJoinCB

        RSEG BANK_RELAYS:CODE:REORDER:NOROOT(0)
`??ZDO_AddrChangeIndicationCB::?relay`:
        CODE
        LCALL   ?BDISPATCH
        DATA24
        DC24    ZDO_AddrChangeIndicationCB

        RSEG BANK_RELAYS:CODE:REORDER:NOROOT(0)
`??ZDO_JoinIndicationCB::?relay`:
        CODE
        LCALL   ?BDISPATCH
        DATA24
        DC24    ZDO_JoinIndicationCB

        RSEG BANK_RELAYS:CODE:REORDER:NOROOT(0)
`??ZDO_ConcentratorIndicationCB::?relay`:
        CODE
        LCALL   ?BDISPATCH
        DATA24
        DC24    ZDO_ConcentratorIndicationCB

        RSEG BANK_RELAYS:CODE:REORDER:NOROOT(0)
`??ZDO_LeaveCnf::?relay`:
        CODE
        LCALL   ?BDISPATCH
        DATA24
        DC24    ZDO_LeaveCnf

        RSEG BANK_RELAYS:CODE:REORDER:NOROOT(0)
`??ZDO_LeaveInd::?relay`:
        CODE
        LCALL   ?BDISPATCH
        DATA24
        DC24    ZDO_LeaveInd

        RSEG BANK_RELAYS:CODE:REORDER:NOROOT(0)
`??ZDO_SyncIndicationCB::?relay`:
        CODE
        LCALL   ?BDISPATCH
        DATA24
        DC24    ZDO_SyncIndicationCB

        RSEG BANK_RELAYS:CODE:REORDER:NOROOT(0)
`??ZDO_ManytoOneFailureIndicationCB::?relay`:
        CODE
        LCALL   ?BDISPATCH
        DATA24
        DC24    ZDO_ManytoOneFailureIndicationCB

        RSEG BANK_RELAYS:CODE:REORDER:NOROOT(0)
`??ZDO_PollConfirmCB::?relay`:
        CODE
        LCALL   ?BDISPATCH
        DATA24
        DC24    ZDO_PollConfirmCB

        RSEG BANK_RELAYS:CODE:REORDER:NOROOT(0)
`??ZDO_NetworkStatusCB::?relay`:
        CODE
        LCALL   ?BDISPATCH
        DATA24
        DC24    ZDO_NetworkStatusCB

        RSEG BANK_RELAYS:CODE:REORDER:NOROOT(0)
`??AddrMgrWriteNVRequest::?relay`:
        CODE
        LCALL   ?BDISPATCH
        DATA24
        DC24    AddrMgrWriteNVRequest

        RSEG BANK_RELAYS:CODE:REORDER:NOROOT(0)
`??ZDO_UpdateDeviceIndication::?relay`:
        CODE
        LCALL   ?BDISPATCH
        DATA24
        DC24    ZDO_UpdateDeviceIndication

        RSEG BANK_RELAYS:CODE:REORDER:NOROOT(0)
`??ZDApp_InMsgCB::?relay`:
        CODE
        LCALL   ?BDISPATCH
        DATA24
        DC24    ZDApp_InMsgCB

        RSEG BANK_RELAYS:CODE:REORDER:NOROOT(0)
`??ZDApp_ChangeMatchDescRespPermission::?relay`:
        CODE
        LCALL   ?BDISPATCH
        DATA24
        DC24    ZDApp_ChangeMatchDescRespPermission

        RSEG BANK_RELAYS:CODE:REORDER:NOROOT(0)
`??ZDApp_NetworkInit::?relay`:
        CODE
        LCALL   ?BDISPATCH
        DATA24
        DC24    ZDApp_NetworkInit

        RSEG BANK_RELAYS:CODE:REORDER:NOROOT(0)
`??ZDApp_NwkStateUpdateCB::?relay`:
        CODE
        LCALL   ?BDISPATCH
        DATA24
        DC24    ZDApp_NwkStateUpdateCB

        RSEG BANK_RELAYS:CODE:REORDER:NOROOT(0)
`??ZDApp_NodeProfileSync::?relay`:
        CODE
        LCALL   ?BDISPATCH
        DATA24
        DC24    ZDApp_NodeProfileSync

        RSEG BANK_RELAYS:CODE:REORDER:NOROOT(0)
`??ZDApp_StartJoiningCycle::?relay`:
        CODE
        LCALL   ?BDISPATCH
        DATA24
        DC24    ZDApp_StartJoiningCycle

        RSEG BANK_RELAYS:CODE:REORDER:NOROOT(0)
`??ZDApp_StopJoiningCycle::?relay`:
        CODE
        LCALL   ?BDISPATCH
        DATA24
        DC24    ZDApp_StopJoiningCycle

        RSEG BANK_RELAYS:CODE:REORDER:NOROOT(0)
`??ZDApp_AnnounceNewAddress::?relay`:
        CODE
        LCALL   ?BDISPATCH
        DATA24
        DC24    ZDApp_AnnounceNewAddress

        RSEG BANK_RELAYS:CODE:REORDER:NOROOT(0)
`??ZDApp_SendParentAnnce::?relay`:
        CODE
        LCALL   ?BDISPATCH
        DATA24
        DC24    ZDApp_SendParentAnnce

        RSEG BANK_RELAYS:CODE:REORDER:NOROOT(0)
`??ZDApp_NVUpdate::?relay`:
        CODE
        LCALL   ?BDISPATCH
        DATA24
        DC24    ZDApp_NVUpdate

        RSEG BANK_RELAYS:CODE:REORDER:NOROOT(0)
`??ZDApp_CoordStartPANIDConflictCB::?relay`:
        CODE
        LCALL   ?BDISPATCH
        DATA24
        DC24    ZDApp_CoordStartPANIDConflictCB

        RSEG BANK_RELAYS:CODE:REORDER:NOROOT(0)
`??ZDO_SrcRtgIndCB::?relay`:
        CODE
        LCALL   ?BDISPATCH
        DATA24
        DC24    ZDO_SrcRtgIndCB

        RSEG BANK_RELAYS:CODE:REORDER:NOROOT(0)
`??ZDApp_InitZdoCBFunc::?relay`:
        CODE
        LCALL   ?BDISPATCH
        DATA24
        DC24    ZDApp_InitZdoCBFunc

        RSEG BANK_RELAYS:CODE:REORDER:NOROOT(0)
`??ZDO_RegisterForZdoCB::?relay`:
        CODE
        LCALL   ?BDISPATCH
        DATA24
        DC24    ZDO_RegisterForZdoCB

        RSEG BANK_RELAYS:CODE:REORDER:NOROOT(0)
`??ZDO_DeregisterForZdoCB::?relay`:
        CODE
        LCALL   ?BDISPATCH
        DATA24
        DC24    ZDO_DeregisterForZdoCB

        RSEG BANK_RELAYS:CODE:REORDER:NOROOT(0)
`??ZDApp_SetPendingBindDefault::?relay`:
        CODE
        LCALL   ?BDISPATCH
        DATA24
        DC24    ZDApp_SetPendingBindDefault

        RSEG BANK_RELAYS:CODE:REORDER:NOROOT(0)
`??ZDApp_InitPendingBind::?relay`:
        CODE
        LCALL   ?BDISPATCH
        DATA24
        DC24    ZDApp_InitPendingBind

        RSEG BANK_RELAYS:CODE:REORDER:NOROOT(0)
`??ZDApp_GetEmptyPendingBindReq::?relay`:
        CODE
        LCALL   ?BDISPATCH
        DATA24
        DC24    ZDApp_GetEmptyPendingBindReq

        RSEG BANK_RELAYS:CODE:REORDER:NOROOT(0)
`??ZDApp_ProcessPendingBindReq::?relay`:
        CODE
        LCALL   ?BDISPATCH
        DATA24
        DC24    ZDApp_ProcessPendingBindReq

        RSEG BANK_RELAYS:CODE:REORDER:NOROOT(0)
`??ZDApp_AgeOutPendingBindEntry::?relay`:
        CODE
        LCALL   ?BDISPATCH
        DATA24
        DC24    ZDApp_AgeOutPendingBindEntry

        RSEG BANK_RELAYS:CODE:REORDER:NOROOT(0)
`??ZDApp_ChangeState::?relay`:
        CODE
        LCALL   ?BDISPATCH
        DATA24
        DC24    ZDApp_ChangeState

        RSEG BANK_RELAYS:CODE:REORDER:NOROOT(0)
`??ZDApp_SetRejoinScanDuration::?relay`:
        CODE
        LCALL   ?BDISPATCH
        DATA24
        DC24    ZDApp_SetRejoinScanDuration

        RSEG BANK_RELAYS:CODE:REORDER:NOROOT(0)
`??ZDApp_SetRejoinBackoffDuration::?relay`:
        CODE
        LCALL   ?BDISPATCH
        DATA24
        DC24    ZDApp_SetRejoinBackoffDuration

        RSEG BANK_RELAYS:CODE:REORDER:NOROOT(0)
`??ZDApp_SetParentAnnceTimer::?relay`:
        CODE
        LCALL   ?BDISPATCH
        DATA24
        DC24    ZDApp_SetParentAnnceTimer

        END
// 3813 
// 3814 /*********************************************************************
// 3815 *********************************************************************/
// 
// 7 744 bytes in segment BANKED_CODE
//   462 bytes in segment BANK_RELAYS
//    14 bytes in segment XDATA_I
//    14 bytes in segment XDATA_ID
//    24 bytes in segment XDATA_ROM_C
//    66 bytes in segment XDATA_Z
// 
// 8 220 bytes of CODE  memory
//     0 bytes of CONST memory (+ 24 bytes shared)
//    80 bytes of XDATA memory
//
//Errors: none
//Warnings: none
